
desxl.elf:     file format elf32-msp430

SYMBOL TABLE:
00004000 l    d  .text	00000000 .text
000080d0 l    d  .rodata	00000000 .rodata
00001100 l    d  .noinit	00000000 .noinit
0000ffe0 l    d  .vectors	00000000 .vectors
00000000 l    d  .debug_aranges	00000000 .debug_aranges
00000000 l    d  .debug_info	00000000 .debug_info
00000000 l    d  .debug_abbrev	00000000 .debug_abbrev
00000000 l    d  .debug_line	00000000 .debug_line
00000000 l    d  .debug_frame	00000000 .debug_frame
00000000 l    d  .debug_str	00000000 .debug_str
00000000 l    d  .debug_loc	00000000 .debug_loc
00000000 l    d  .debug_ranges	00000000 .debug_ranges
00000000 l    df *ABS*	00000000 desxl.c
000080d0 l     O .rodata	00000040 SBE
00008110 l     O .rodata	00000040 LHs
00008150 l     O .rodata	00000040 RHs
000040ce l       .text	00000000 __br_unexpected_
00000000 l    df *ABS*	00000000 tools.c
00008096 g     F .text	0000001a putchar
00000057 g       *ABS*	00000000 __BCSCTL1
0000005a g       *ABS*	00000000 __CACTL2
00000174 g       *ABS*	00000000 __TACCR1
000040d2 g     F .text	00000fd0 SetKey
00000084 g       *ABS*	00000000 __ADC12MCTL4
00000000 g       *ABS*	00000000 __data_size
0000015a g       *ABS*	00000000 __ADC12MEM13
00000052 g       *ABS*	00000000 __I2CNDAT
000040ce  w      .text	00000000 __isr_14
00000128 g       *ABS*	00000000 __FCTL1
00000024 g       *ABS*	00000000 __P1IES
0000007b g       *ABS*	00000000 __U1MCTL
000001f6 g       *ABS*	00000000 __DMA2SZ
000040ce  w      .text	00000000 __isr_4
00000002 g       *ABS*	00000000 __IFG1
00000076 g       *ABS*	00000000 __I2CDRW
000067da g     F .text	000017ee Decrypt
0000007e g       *ABS*	00000000 __U1RXBUF
00000138 g       *ABS*	00000000 __OP2
00000076 g       *ABS*	00000000 __U0RXBUF
000001a4 g       *ABS*	00000000 __ADC12IFG
0000012e g       *ABS*	00000000 __TAIV
000001e6 g       *ABS*	00000000 __DMA0SZ
00000000 g       .vectors	00000000 _efartext
0000007c g       *ABS*	00000000 __U1BR0
00000130 g       *ABS*	00000000 __MPY
00000001 g       *ABS*	00000000 __IE2
0000013a g       *ABS*	00000000 __RESLO
00000136 g       *ABS*	00000000 __MACS
00000087 g       *ABS*	00000000 __ADC12MCTL7
0000002b g       *ABS*	00000000 __P2IFG
0000001a g       *ABS*	00000000 __P3DIR
00008190 g       *ABS*	00000000 _etext
00000190 g       *ABS*	00000000 __TBR
0000001d g       *ABS*	00000000 __P4OUT
000001f4 g       *ABS*	00000000 __DMA2DA
00000000 g       *ABS*	00000000 __bss_size
00000081 g       *ABS*	00000000 __ADC12MCTL1
00008006 g     F .text	0000005e uart1_init
00000152 g       *ABS*	00000000 __ADC12MEM9
00004000  w      .text	00000000 __watchdog_support
000040c8  w      .text	00000000 __stop_progExec__
00000050 g       *ABS*	00000000 __I2CIE
0000002d g       *ABS*	00000000 __P2IE
000001e4 g       *ABS*	00000000 __DMA0DA
00000192 g       *ABS*	00000000 __TBCCR0
000040ce  w      .text	00000000 __isr_11
00000186 g       *ABS*	00000000 __TBCCTL2
000080c4 g     F .text	0000000a end_expe
00000025 g       *ABS*	00000000 __P1IE
000001a0 g       *ABS*	00000000 __ADC12CTL0
00000072 g       *ABS*	00000000 __I2CDCTL
00000073 g       *ABS*	00000000 __U0MCTL
0000007a g       *ABS*	00000000 __U1RCTL
00000082 g       *ABS*	00000000 __ADC12MCTL2
0000019c g       *ABS*	00000000 __TBCCR5
00000035 g       *ABS*	00000000 __P6OUT
00000034 g       *ABS*	00000000 __P6IN
000001c8 g       *ABS*	00000000 __DAC12_0DAT
00000182 g       *ABS*	00000000 __TBCCTL0
0000019e g       *ABS*	00000000 __TBCCR6
000040ce  w      .text	00000000 __isr_5
00008190 g       *ABS*	00000000 __data_load_start
000040ce g       .text	00000000 __dtors_end
000001ea g       *ABS*	00000000 __DMA1SA
00000088 g       *ABS*	00000000 __ADC12MCTL8
00000166 g       *ABS*	00000000 __TACCTL2
000001f0 g       *ABS*	00000000 __DMA2CTL
000040ce  w      .text	00000000 __isr_2
00000156 g       *ABS*	00000000 __ADC12MEM11
00000160 g       *ABS*	00000000 __TACTL
00000158 g       *ABS*	00000000 __ADC12MEM12
00000071 g       *ABS*	00000000 __I2CTCTL
0000012c g       *ABS*	00000000 __FCTL3
000040ce  w      .text	00000000 __isr_10
00000148 g       *ABS*	00000000 __ADC12MEM4
0000011a g       *ABS*	00000000 __I2CSA
0000002e g       *ABS*	00000000 __P2SEL
00000180 g       *ABS*	00000000 __TBCTL
0000008d g       *ABS*	00000000 __ADC12MCTL13
0000014c g       *ABS*	00000000 __ADC12MEM6
00000023 g       *ABS*	00000000 __P1IFG
0000013c g       *ABS*	00000000 __RESHI
00000072 g       *ABS*	00000000 __U0RCTL
00000172 g       *ABS*	00000000 __TACCR0
00000071 g       *ABS*	00000000 __U0TCTL
00000056 g       *ABS*	00000000 __DCOCTL
00000085 g       *ABS*	00000000 __ADC12MCTL5
00000003 g       *ABS*	00000000 __IFG2
00000005 g       *ABS*	00000000 __ME2
00001100 g     O .noinit	00000002 __wdt_clear_value
00000079 g       *ABS*	00000000 __U1TCTL
0000001b g       *ABS*	00000000 __P3SEL
000001e0 g       *ABS*	00000000 __DMA0CTL
000040ce  w      .text	00000000 __isr_7
0000ffe0 g     O .vectors	00000020 __ivtbl_16
00000028 g       *ABS*	00000000 __P2IN
0000014e g       *ABS*	00000000 __ADC12MEM7
00000184 g       *ABS*	00000000 __TBCCTL1
0000005b g       *ABS*	00000000 __CAPD
00000075 g       *ABS*	00000000 __I2CSCLL
000040ce  w      .text	00000000 __isr_0
00000029 g       *ABS*	00000000 __P2OUT
0000012a g       *ABS*	00000000 __FCTL2
00004028  w      .text	00000000 __do_clear_bss
0000008f g       *ABS*	00000000 __ADC12MCTL15
00000021 g       *ABS*	00000000 __P1OUT
0000002c g       *ABS*	00000000 __P2IES
0000015c g       *ABS*	00000000 __ADC12MEM14
00000026 g       *ABS*	00000000 __P1SEL
00000198 g       *ABS*	00000000 __TBCCR3
00000080 g       *ABS*	00000000 __ADC12MCTL0
00000140 g       *ABS*	00000000 __ADC12MEM0
00000074 g       *ABS*	00000000 __U0BR0
00000051 g       *ABS*	00000000 __I2CIFG
000080ce  w      .text	00000000 _unexpected_
000040ce  w      .text	00000000 __isr_8
0000014a g       *ABS*	00000000 __ADC12MEM5
00000070 g       *ABS*	00000000 __U0CTL
0000018a g       *ABS*	00000000 __TBCCTL4
00000073 g       *ABS*	00000000 __I2CPSC
0000008e g       *ABS*	00000000 __ADC12MCTL14
000040ce  w      .text	00000000 __isr_3
000001a6 g       *ABS*	00000000 __ADC12IE
00008064 g     F .text	00000032 uart1_putchar
00000144 g       *ABS*	00000000 __ADC12MEM2
000001ee g       *ABS*	00000000 __DMA1SZ
00000033 g       *ABS*	00000000 __P5SEL
00000030 g       *ABS*	00000000 __P5IN
00004000  w      .text	00000000 _reset_vector__
000040ce g       .text	00000000 __ctors_start
000040ce  w      .text	00000000 __isr_12
00000036 g       *ABS*	00000000 __P6DIR
00000018 g       *ABS*	00000000 __P3IN
00004010  w      .text	00000000 __do_copy_data
00000150 g       *ABS*	00000000 __ADC12MEM8
00000142 g       *ABS*	00000000 __ADC12MEM1
00001100 g       .rodata	00000000 __bss_start
0000007d g       *ABS*	00000000 __U1BR1
0000403e g     F .text	0000008a main
00000176 g       *ABS*	00000000 __TACCR2
0000019a g       *ABS*	00000000 __TBCCR4
000040ce  w      .text	00000000 __isr_13
00000078 g       *ABS*	00000000 __U1CTL
000001e2 g       *ABS*	00000000 __DMA0SA
00000170 g       *ABS*	00000000 __TAR
00000124 g       *ABS*	00000000 __DMACTL1
0000001e g       *ABS*	00000000 __P4DIR
00000162 g       *ABS*	00000000 __TACCTL0
00010000 g       .vectors	00000000 _vectors_end
00000154 g       *ABS*	00000000 __ADC12MEM10
000001f2 g       *ABS*	00000000 __DMA2SA
0000002a g       *ABS*	00000000 __P2DIR
00000089 g       *ABS*	00000000 __ADC12MCTL9
0000008a g       *ABS*	00000000 __ADC12MCTL10
00007fc8 g     F .text	0000003e delay
00000032 g       *ABS*	00000000 __P5DIR
000001c2 g       *ABS*	00000000 __DAC12_1CTL
000001a2 g       *ABS*	00000000 __ADC12CTL1
000001a8 g       *ABS*	00000000 __ADC12IV
000001e8 g       *ABS*	00000000 __DMA1CTL
00000075 g       *ABS*	00000000 __U0BR1
000040ce  w      .text	00000000 __isr_9
0000018c g       *ABS*	00000000 __TBCCTL5
0000400c  w      .text	00000000 __init_stack
00000086 g       *ABS*	00000000 __ADC12MCTL6
00000188 g       *ABS*	00000000 __TBCCTL3
00000019 g       *ABS*	00000000 __P3OUT
000001ca g       *ABS*	00000000 __DAC12_1DAT
000040ce g       .text	00000000 __dtors_start
000040ce  w      .text	00000000 __isr_6
000040ce g       .text	00000000 __ctors_end
00000132 g       *ABS*	00000000 __MPYS
0000011c g       *ABS*	00000000 __I2CIV
00000004 g       *ABS*	00000000 __ME1
00003900 g       *ABS*	00000000 __stack
00000037 g       *ABS*	00000000 __P6SEL
000040ce  w      .text	00000000 __isr_1
0000008c g       *ABS*	00000000 __ADC12MCTL12
00001100 g       .rodata	00000000 _edata
00000077 g       *ABS*	00000000 __U0TXBUF
00001102 g       *ABS*	00000000 _end
00000194 g       *ABS*	00000000 __TBCCR1
0000011e g       *ABS*	00000000 __TBIV
000001c0 g       *ABS*	00000000 __DAC12_0CTL
000080b0 g     F .text	0000000a start_encrypt
0000015e g       *ABS*	00000000 __ADC12MEM15
00000134 g       *ABS*	00000000 __MAC
00000058 g       *ABS*	00000000 __BCSCTL2
000040c8  w      .text	00000000 _endless_loop__
00000122 g       *ABS*	00000000 __DMACTL0
0000001f g       *ABS*	00000000 __P4SEL
00000196 g       *ABS*	00000000 __TBCCR2
00000022 g       *ABS*	00000000 __P1DIR
00000146 g       *ABS*	00000000 __ADC12MEM3
00000076 g       *ABS*	00000000 __I2CDRB
00000118 g       *ABS*	00000000 __I2COA
00000164 g       *ABS*	00000000 __TACCTL1
0000007f g       *ABS*	00000000 __U1TXBUF
00000055 g       *ABS*	00000000 __SVSCTL
00004010  w      .text	00000000 __low_level_init
000080ba g     F .text	0000000a start_decrypt
00001100 g       .rodata	00000000 __data_start
0000018e g       *ABS*	00000000 __TBCCTL6
00000074 g       *ABS*	00000000 __I2CSCLH
000001ec g       *ABS*	00000000 __DMA1DA
00000120 g       *ABS*	00000000 __WDTCTL
00000083 g       *ABS*	00000000 __ADC12MCTL3
00000000 g       *ABS*	00000000 __IE1
00000059 g       *ABS*	00000000 __CACTL1
00000020 g       *ABS*	00000000 __P1IN
0000001c g       *ABS*	00000000 __P4IN
000050a2 g     F .text	00001738 Encrypt
0000008b g       *ABS*	00000000 __ADC12MCTL11
0000013e g       *ABS*	00000000 __SUMEXT
00000031 g       *ABS*	00000000 __P5OUT



Disassembly of section .text:

00004000 <__watchdog_support>:
    4000:	55 42 20 01 	mov.b	&0x0120,r5	
    4004:	35 d0 08 5a 	bis	#23048,	r5	;#0x5a08
    4008:	82 45 00 11 	mov	r5,	&0x1100	

0000400c <__init_stack>:
    400c:	31 40 00 39 	mov	#14592,	r1	;#0x3900

00004010 <__do_copy_data>:
    4010:	3f 40 00 00 	mov	#0,	r15	;#0x0000
    4014:	0f 93       	tst	r15		
    4016:	08 24       	jz	$+18     	;abs 0x4028
    4018:	92 42 00 11 	mov	&0x1100,&0x0120	
    401c:	20 01 
    401e:	2f 83       	decd	r15		
    4020:	9f 4f 90 81 	mov	-32368(r15),4352(r15);0x8190(r15), 0x1100(r15)
    4024:	00 11 
    4026:	f8 23       	jnz	$-14     	;abs 0x4018

00004028 <__do_clear_bss>:
    4028:	3f 40 00 00 	mov	#0,	r15	;#0x0000
    402c:	0f 93       	tst	r15		
    402e:	07 24       	jz	$+16     	;abs 0x403e
    4030:	92 42 00 11 	mov	&0x1100,&0x0120	
    4034:	20 01 
    4036:	1f 83       	dec	r15		
    4038:	cf 43 00 11 	mov.b	#0,	4352(r15);r3 As==00, 0x1100(r15)
    403c:	f9 23       	jnz	$-12     	;abs 0x4030

0000403e <main>:

}
    
   
int main()
{
    403e:	04 41       	mov	r1,	r4	
    4040:	24 53       	incd	r4		
    4042:	31 50 5e ff 	add	#-162,	r1	;#0xff5e
    u8 input[8], output[8], i, key[8];
    u32 K[2], SK[32];

 
 
	for(i=0;i<8;i++)
    4046:	c4 43 5c ff 	mov.b	#0,	-164(r4);r3 As==00, 0xff5c(r4)
    404a:	14 3c       	jmp	$+42     	;abs 0x4074
    {                
     input[i]=i;           
    404c:	5f 44 5c ff 	mov.b	-164(r4),r15	;0xff5c(r4)
    4050:	0e 44       	mov	r4,	r14	
    4052:	3e 50 5d ff 	add	#-163,	r14	;#0xff5d
    4056:	0f 5e       	add	r14,	r15	
    4058:	df 44 5c ff 	mov.b	-164(r4),0(r15)	;0xff5c(r4), 0x0000(r15)
    405c:	00 00 
     key[i]=i;
    405e:	5f 44 5c ff 	mov.b	-164(r4),r15	;0xff5c(r4)
    4062:	0e 44       	mov	r4,	r14	
    4064:	3e 50 6d ff 	add	#-147,	r14	;#0xff6d
    4068:	0f 5e       	add	r14,	r15	
    406a:	df 44 5c ff 	mov.b	-164(r4),0(r15)	;0xff5c(r4), 0x0000(r15)
    406e:	00 00 
    u8 input[8], output[8], i, key[8];
    u32 K[2], SK[32];

 
 
	for(i=0;i<8;i++)
    4070:	d4 53 5c ff 	inc.b	-164(r4)	;0xff5c(r4)
    4074:	f4 92 5c ff 	cmp.b	#8,	-164(r4);r2 As==11, 0xff5c(r4)
    4078:	e9 2b       	jnc	$-44     	;abs 0x404c
    {                
     input[i]=i;           
     key[i]=i;
    }

  START_ENCRYPT();
    407a:	b0 12 b0 80 	call	#0x80b0	
    
  SetKey(SK, key);
    407e:	0e 44       	mov	r4,	r14	
    4080:	3e 50 6d ff 	add	#-147,	r14	;#0xff6d
    4084:	0f 44       	mov	r4,	r15	
    4086:	3f 50 7e ff 	add	#-130,	r15	;#0xff7e
    408a:	b0 12 d2 40 	call	#0x40d2	

  START_DECRYPT();
    408e:	b0 12 ba 80 	call	#0x80ba	
	
  Encrypt(SK, input, output);  
    4092:	0d 44       	mov	r4,	r13	
    4094:	3d 50 65 ff 	add	#-155,	r13	;#0xff65
    4098:	0e 44       	mov	r4,	r14	
    409a:	3e 50 5d ff 	add	#-163,	r14	;#0xff5d
    409e:	0f 44       	mov	r4,	r15	
    40a0:	3f 50 7e ff 	add	#-130,	r15	;#0xff7e
    40a4:	b0 12 a2 50 	call	#0x50a2	
	{ 
	printf("\n%x ",output[i]); 
	}
	*/
    
   Decrypt(SK, output, input);  
    40a8:	0d 44       	mov	r4,	r13	
    40aa:	3d 50 5d ff 	add	#-163,	r13	;#0xff5d
    40ae:	0e 44       	mov	r4,	r14	
    40b0:	3e 50 65 ff 	add	#-155,	r14	;#0xff65
    40b4:	0f 44       	mov	r4,	r15	
    40b6:	3f 50 7e ff 	add	#-130,	r15	;#0xff7e
    40ba:	b0 12 da 67 	call	#0x67da	
	}
	*/

//system("PAUSE");

   END_EXPE();
    40be:	b0 12 c4 80 	call	#0x80c4	
   return 0;
    40c2:	0f 43       	clr	r15		
}
    40c4:	31 50 a2 00 	add	#162,	r1	;#0x00a2

000040c8 <__stop_progExec__>:
    40c8:	32 d0 f0 00 	bis	#240,	r2	;#0x00f0
    40cc:	fd 3f       	jmp	$-4      	;abs 0x40c8

000040ce <__ctors_end>:
    40ce:	30 40 ce 80 	br	#0x80ce	

000040d2 <SetKey>:
}



 void SetKey(u32 SK[32], const unsigned char key[8] )
{
    40d2:	0b 12       	push	r11		
    40d4:	0a 12       	push	r10		
    40d6:	09 12       	push	r9		
    40d8:	08 12       	push	r8		
    40da:	07 12       	push	r7		
    40dc:	06 12       	push	r6		
    40de:	04 12       	push	r4		
    40e0:	04 41       	mov	r1,	r4	
    40e2:	34 50 0e 00 	add	#14,	r4	;#0x000e
    40e6:	31 50 7a ff 	add	#-134,	r1	;#0xff7a
    40ea:	84 4f 7a ff 	mov	r15,	-134(r4);0xff7a(r4)
    40ee:	84 4e 7c ff 	mov	r14,	-132(r4);0xff7c(r4)
    int i;
    u32 X, Y, T;

    GET_UINT32_BE( X, key, 0 );
    40f2:	1f 44 7c ff 	mov	-132(r4),r15	;0xff7c(r4)
    40f6:	6f 4f       	mov.b	@r15,	r15	
    40f8:	4c 4f       	mov.b	r15,	r12	
    40fa:	0d 43       	clr	r13		
    40fc:	0f 4c       	mov	r12,	r15	
    40fe:	0e 43       	clr	r14		
    4100:	4f 4f       	mov.b	r15,	r15	
    4102:	8f 10       	swpb	r15		
    4104:	84 4e 7e ff 	mov	r14,	-130(r4);0xff7e(r4)
    4108:	84 4f 80 ff 	mov	r15,	-128(r4);0xff80(r4)
    410c:	1f 44 7c ff 	mov	-132(r4),r15	;0xff7c(r4)
    4110:	1f 53       	inc	r15		
    4112:	6f 4f       	mov.b	@r15,	r15	
    4114:	4f 4f       	mov.b	r15,	r15	
    4116:	84 4f 82 ff 	mov	r15,	-126(r4);0xff82(r4)
    411a:	84 43 84 ff 	mov	#0,	-124(r4);r3 As==00, 0xff84(r4)
    411e:	1e 44 82 ff 	mov	-126(r4),r14	;0xff82(r4)
    4122:	0f 43       	clr	r15		
    4124:	84 4f 86 ff 	mov	r15,	-122(r4);0xff86(r4)
    4128:	84 4e 88 ff 	mov	r14,	-120(r4);0xff88(r4)
    412c:	1c 44 7e ff 	mov	-130(r4),r12	;0xff7e(r4)
    4130:	1d 44 80 ff 	mov	-128(r4),r13	;0xff80(r4)
    4134:	1c d4 86 ff 	bis	-122(r4),r12	;0xff86(r4)
    4138:	1d d4 88 ff 	bis	-120(r4),r13	;0xff88(r4)
    413c:	1f 44 7c ff 	mov	-132(r4),r15	;0xff7c(r4)
    4140:	2f 53       	incd	r15		
    4142:	6f 4f       	mov.b	@r15,	r15	
    4144:	4f 4f       	mov.b	r15,	r15	
    4146:	84 4f 8a ff 	mov	r15,	-118(r4);0xff8a(r4)
    414a:	84 43 8c ff 	mov	#0,	-116(r4);r3 As==00, 0xff8c(r4)
    414e:	1e 44 8a ff 	mov	-118(r4),r14	;0xff8a(r4)
    4152:	1f 44 8c ff 	mov	-116(r4),r15	;0xff8c(r4)
    4156:	4f ee       	xor.b	r14,	r15	
    4158:	0f ee       	xor	r14,	r15	
    415a:	8f 10       	swpb	r15		
    415c:	4e 4e       	mov.b	r14,	r14	
    415e:	8e 10       	swpb	r14		
    4160:	0a 4c       	mov	r12,	r10	
    4162:	0b 4d       	mov	r13,	r11	
    4164:	0a de       	bis	r14,	r10	
    4166:	0b df       	bis	r15,	r11	
    4168:	0d 4a       	mov	r10,	r13	
    416a:	0e 4b       	mov	r11,	r14	
    416c:	1f 44 7c ff 	mov	-132(r4),r15	;0xff7c(r4)
    4170:	3f 50 03 00 	add	#3,	r15	;#0x0003
    4174:	6f 4f       	mov.b	@r15,	r15	
    4176:	4f 4f       	mov.b	r15,	r15	
    4178:	84 4f 8e ff 	mov	r15,	-114(r4);0xff8e(r4)
    417c:	84 43 90 ff 	mov	#0,	-112(r4);r3 As==00, 0xff90(r4)
    4180:	1b 44 8e ff 	mov	-114(r4),r11	;0xff8e(r4)
    4184:	1c 44 90 ff 	mov	-112(r4),r12	;0xff90(r4)
    4188:	0b dd       	bis	r13,	r11	
    418a:	0c de       	bis	r14,	r12	
    418c:	84 4b 6e ff 	mov	r11,	-146(r4);0xff6e(r4)
    4190:	84 4c 70 ff 	mov	r12,	-144(r4);0xff70(r4)
    GET_UINT32_BE( Y, key, 4 );
    4194:	1f 44 7c ff 	mov	-132(r4),r15	;0xff7c(r4)
    4198:	2f 52       	add	#4,	r15	;r2 As==10
    419a:	6f 4f       	mov.b	@r15,	r15	
    419c:	4f 4f       	mov.b	r15,	r15	
    419e:	84 4f 92 ff 	mov	r15,	-110(r4);0xff92(r4)
    41a2:	84 43 94 ff 	mov	#0,	-108(r4);r3 As==00, 0xff94(r4)
    41a6:	1f 44 92 ff 	mov	-110(r4),r15	;0xff92(r4)
    41aa:	0e 43       	clr	r14		
    41ac:	4f 4f       	mov.b	r15,	r15	
    41ae:	8f 10       	swpb	r15		
    41b0:	84 4e 96 ff 	mov	r14,	-106(r4);0xff96(r4)
    41b4:	84 4f 98 ff 	mov	r15,	-104(r4);0xff98(r4)
    41b8:	1f 44 7c ff 	mov	-132(r4),r15	;0xff7c(r4)
    41bc:	3f 50 05 00 	add	#5,	r15	;#0x0005
    41c0:	6f 4f       	mov.b	@r15,	r15	
    41c2:	4f 4f       	mov.b	r15,	r15	
    41c4:	84 4f 9a ff 	mov	r15,	-102(r4);0xff9a(r4)
    41c8:	84 43 9c ff 	mov	#0,	-100(r4);r3 As==00, 0xff9c(r4)
    41cc:	1e 44 9a ff 	mov	-102(r4),r14	;0xff9a(r4)
    41d0:	0f 43       	clr	r15		
    41d2:	84 4f 9e ff 	mov	r15,	-98(r4)	;0xff9e(r4)
    41d6:	84 4e a0 ff 	mov	r14,	-96(r4)	;0xffa0(r4)
    41da:	1c 44 96 ff 	mov	-106(r4),r12	;0xff96(r4)
    41de:	1d 44 98 ff 	mov	-104(r4),r13	;0xff98(r4)
    41e2:	1c d4 9e ff 	bis	-98(r4),r12	;0xff9e(r4)
    41e6:	1d d4 a0 ff 	bis	-96(r4),r13	;0xffa0(r4)
    41ea:	1f 44 7c ff 	mov	-132(r4),r15	;0xff7c(r4)
    41ee:	3f 50 06 00 	add	#6,	r15	;#0x0006
    41f2:	6f 4f       	mov.b	@r15,	r15	
    41f4:	4f 4f       	mov.b	r15,	r15	
    41f6:	84 4f a2 ff 	mov	r15,	-94(r4)	;0xffa2(r4)
    41fa:	84 43 a4 ff 	mov	#0,	-92(r4)	;r3 As==00, 0xffa4(r4)
    41fe:	1e 44 a2 ff 	mov	-94(r4),r14	;0xffa2(r4)
    4202:	1f 44 a4 ff 	mov	-92(r4),r15	;0xffa4(r4)
    4206:	4f ee       	xor.b	r14,	r15	
    4208:	0f ee       	xor	r14,	r15	
    420a:	8f 10       	swpb	r15		
    420c:	4e 4e       	mov.b	r14,	r14	
    420e:	8e 10       	swpb	r14		
    4210:	0a 4c       	mov	r12,	r10	
    4212:	0b 4d       	mov	r13,	r11	
    4214:	0a de       	bis	r14,	r10	
    4216:	0b df       	bis	r15,	r11	
    4218:	0d 4a       	mov	r10,	r13	
    421a:	0e 4b       	mov	r11,	r14	
    421c:	1f 44 7c ff 	mov	-132(r4),r15	;0xff7c(r4)
    4220:	3f 50 07 00 	add	#7,	r15	;#0x0007
    4224:	6f 4f       	mov.b	@r15,	r15	
    4226:	4f 4f       	mov.b	r15,	r15	
    4228:	84 4f a6 ff 	mov	r15,	-90(r4)	;0xffa6(r4)
    422c:	84 43 a8 ff 	mov	#0,	-88(r4)	;r3 As==00, 0xffa8(r4)
    4230:	1b 44 a6 ff 	mov	-90(r4),r11	;0xffa6(r4)
    4234:	1c 44 a8 ff 	mov	-88(r4),r12	;0xffa8(r4)
    4238:	0b dd       	bis	r13,	r11	
    423a:	0c de       	bis	r14,	r12	
    423c:	84 4b 72 ff 	mov	r11,	-142(r4);0xff72(r4)
    4240:	84 4c 74 ff 	mov	r12,	-140(r4);0xff74(r4)

    /*
* Permuted Choice 1
*/
    T = ((Y >> 4) ^ X) & 0x0F0F0F0F; X ^= T; Y ^= (T << 4);
    4244:	1e 44 72 ff 	mov	-142(r4),r14	;0xff72(r4)
    4248:	1f 44 74 ff 	mov	-140(r4),r15	;0xff74(r4)
    424c:	12 c3       	clrc			
    424e:	0f 10       	rrc	r15		
    4250:	0e 10       	rrc	r14		
    4252:	12 c3       	clrc			
    4254:	0f 10       	rrc	r15		
    4256:	0e 10       	rrc	r14		
    4258:	12 c3       	clrc			
    425a:	0f 10       	rrc	r15		
    425c:	0e 10       	rrc	r14		
    425e:	12 c3       	clrc			
    4260:	0f 10       	rrc	r15		
    4262:	0e 10       	rrc	r14		
    4264:	1e e4 6e ff 	xor	-146(r4),r14	;0xff6e(r4)
    4268:	1f e4 70 ff 	xor	-144(r4),r15	;0xff70(r4)
    426c:	0c 4e       	mov	r14,	r12	
    426e:	0d 4f       	mov	r15,	r13	
    4270:	3c f0 0f 0f 	and	#3855,	r12	;#0x0f0f
    4274:	3d f0 0f 0f 	and	#3855,	r13	;#0x0f0f
    4278:	84 4c 76 ff 	mov	r12,	-138(r4);0xff76(r4)
    427c:	84 4d 78 ff 	mov	r13,	-136(r4);0xff78(r4)
    4280:	94 e4 76 ff 	xor	-138(r4),-146(r4);0xff76(r4), 0xff6e(r4)
    4284:	6e ff 
    4286:	94 e4 78 ff 	xor	-136(r4),-144(r4);0xff78(r4), 0xff70(r4)
    428a:	70 ff 
    428c:	1e 44 76 ff 	mov	-138(r4),r14	;0xff76(r4)
    4290:	1f 44 78 ff 	mov	-136(r4),r15	;0xff78(r4)
    4294:	0e 5e       	rla	r14		
    4296:	0f 6f       	rlc	r15		
    4298:	0e 5e       	rla	r14		
    429a:	0f 6f       	rlc	r15		
    429c:	0e 5e       	rla	r14		
    429e:	0f 6f       	rlc	r15		
    42a0:	0e 5e       	rla	r14		
    42a2:	0f 6f       	rlc	r15		
    42a4:	84 ee 72 ff 	xor	r14,	-142(r4);0xff72(r4)
    42a8:	84 ef 74 ff 	xor	r15,	-140(r4);0xff74(r4)
    T = ((Y ) ^ X) & 0x10101010; X ^= T; Y ^= (T );
    42ac:	1e 44 72 ff 	mov	-142(r4),r14	;0xff72(r4)
    42b0:	1f 44 74 ff 	mov	-140(r4),r15	;0xff74(r4)
    42b4:	1e e4 6e ff 	xor	-146(r4),r14	;0xff6e(r4)
    42b8:	1f e4 70 ff 	xor	-144(r4),r15	;0xff70(r4)
    42bc:	0a 4e       	mov	r14,	r10	
    42be:	0b 4f       	mov	r15,	r11	
    42c0:	3a f0 10 10 	and	#4112,	r10	;#0x1010
    42c4:	3b f0 10 10 	and	#4112,	r11	;#0x1010
    42c8:	84 4a 76 ff 	mov	r10,	-138(r4);0xff76(r4)
    42cc:	84 4b 78 ff 	mov	r11,	-136(r4);0xff78(r4)
    42d0:	94 e4 76 ff 	xor	-138(r4),-146(r4);0xff76(r4), 0xff6e(r4)
    42d4:	6e ff 
    42d6:	94 e4 78 ff 	xor	-136(r4),-144(r4);0xff78(r4), 0xff70(r4)
    42da:	70 ff 
    42dc:	94 e4 76 ff 	xor	-138(r4),-142(r4);0xff76(r4), 0xff72(r4)
    42e0:	72 ff 
    42e2:	94 e4 78 ff 	xor	-136(r4),-140(r4);0xff78(r4), 0xff74(r4)
    42e6:	74 ff 

    X = (LHs[ (X ) & 0xF] << 3) | (LHs[ (X >> 8) & 0xF ] << 2)
    42e8:	1e 44 6e ff 	mov	-146(r4),r14	;0xff6e(r4)
    42ec:	1f 44 70 ff 	mov	-144(r4),r15	;0xff70(r4)
    42f0:	3e f0 0f 00 	and	#15,	r14	;#0x000f
    42f4:	0f f3       	and	#0,	r15	;r3 As==00
    42f6:	0f 4e       	mov	r14,	r15	
    42f8:	0f 5f       	rla	r15		
    42fa:	0f 5f       	rla	r15		
    42fc:	3f 50 10 81 	add	#-32496,r15	;#0x8110
    4300:	2e 4f       	mov	@r15,	r14	
    4302:	1f 4f 02 00 	mov	2(r15),	r15	;0x0002(r15)
    4306:	0c 4e       	mov	r14,	r12	
    4308:	0d 4f       	mov	r15,	r13	
    430a:	0c 5c       	rla	r12		
    430c:	0d 6d       	rlc	r13		
    430e:	0c 5c       	rla	r12		
    4310:	0d 6d       	rlc	r13		
    4312:	0c 5c       	rla	r12		
    4314:	0d 6d       	rlc	r13		
    4316:	1e 44 6e ff 	mov	-146(r4),r14	;0xff6e(r4)
    431a:	1f 44 70 ff 	mov	-144(r4),r15	;0xff70(r4)
    431e:	8e 10       	swpb	r14		
    4320:	8f 10       	swpb	r15		
    4322:	4e ef       	xor.b	r15,	r14	
    4324:	0e ef       	xor	r15,	r14	
    4326:	4f 4f       	mov.b	r15,	r15	
    4328:	3e f0 0f 00 	and	#15,	r14	;#0x000f
    432c:	0f f3       	and	#0,	r15	;r3 As==00
    432e:	0f 4e       	mov	r14,	r15	
    4330:	0f 5f       	rla	r15		
    4332:	0f 5f       	rla	r15		
    4334:	3f 50 10 81 	add	#-32496,r15	;#0x8110
    4338:	2e 4f       	mov	@r15,	r14	
    433a:	1f 4f 02 00 	mov	2(r15),	r15	;0x0002(r15)
    433e:	0e 5e       	rla	r14		
    4340:	0f 6f       	rlc	r15		
    4342:	0e 5e       	rla	r14		
    4344:	0f 6f       	rlc	r15		
    4346:	0c de       	bis	r14,	r12	
    4348:	0d df       	bis	r15,	r13	
        | (LHs[ (X >> 16) & 0xF] << 1) | (LHs[ (X >> 24) & 0xF ] )
    434a:	1e 44 70 ff 	mov	-144(r4),r14	;0xff70(r4)
    434e:	0f 43       	clr	r15		
    4350:	84 4e aa ff 	mov	r14,	-86(r4)	;0xffaa(r4)
    4354:	84 4f ac ff 	mov	r15,	-84(r4)	;0xffac(r4)
    4358:	1e 44 aa ff 	mov	-86(r4),r14	;0xffaa(r4)
    435c:	1f 44 ac ff 	mov	-84(r4),r15	;0xffac(r4)
    4360:	3e f0 0f 00 	and	#15,	r14	;#0x000f
    4364:	0f f3       	and	#0,	r15	;r3 As==00
    4366:	0f 4e       	mov	r14,	r15	
    4368:	0f 5f       	rla	r15		
    436a:	0f 5f       	rla	r15		
    436c:	3f 50 10 81 	add	#-32496,r15	;#0x8110
    4370:	2e 4f       	mov	@r15,	r14	
    4372:	1f 4f 02 00 	mov	2(r15),	r15	;0x0002(r15)
    4376:	0e 5e       	rla	r14		
    4378:	0f 6f       	rlc	r15		
    437a:	0c de       	bis	r14,	r12	
    437c:	0d df       	bis	r15,	r13	
    437e:	1f 44 70 ff 	mov	-144(r4),r15	;0xff70(r4)
    4382:	0e 43       	clr	r14		
    4384:	8f 10       	swpb	r15		
    4386:	4f 4f       	mov.b	r15,	r15	
    4388:	84 4f ae ff 	mov	r15,	-82(r4)	;0xffae(r4)
    438c:	84 4e b0 ff 	mov	r14,	-80(r4)	;0xffb0(r4)
    4390:	1e 44 ae ff 	mov	-82(r4),r14	;0xffae(r4)
    4394:	1f 44 b0 ff 	mov	-80(r4),r15	;0xffb0(r4)
    4398:	3e f0 0f 00 	and	#15,	r14	;#0x000f
    439c:	0f f3       	and	#0,	r15	;r3 As==00
    439e:	0f 4e       	mov	r14,	r15	
    43a0:	0f 5f       	rla	r15		
    43a2:	0f 5f       	rla	r15		
    43a4:	3f 50 10 81 	add	#-32496,r15	;#0x8110
    43a8:	2e 4f       	mov	@r15,	r14	
    43aa:	1f 4f 02 00 	mov	2(r15),	r15	;0x0002(r15)
    43ae:	0c de       	bis	r14,	r12	
    43b0:	0d df       	bis	r15,	r13	
        | (LHs[ (X >> 5) & 0xF] << 7) | (LHs[ (X >> 13) & 0xF ] << 6)
    43b2:	1e 44 6e ff 	mov	-146(r4),r14	;0xff6e(r4)
    43b6:	1f 44 70 ff 	mov	-144(r4),r15	;0xff70(r4)
    43ba:	12 c3       	clrc			
    43bc:	0f 10       	rrc	r15		
    43be:	0e 10       	rrc	r14		
    43c0:	12 c3       	clrc			
    43c2:	0f 10       	rrc	r15		
    43c4:	0e 10       	rrc	r14		
    43c6:	12 c3       	clrc			
    43c8:	0f 10       	rrc	r15		
    43ca:	0e 10       	rrc	r14		
    43cc:	12 c3       	clrc			
    43ce:	0f 10       	rrc	r15		
    43d0:	0e 10       	rrc	r14		
    43d2:	12 c3       	clrc			
    43d4:	0f 10       	rrc	r15		
    43d6:	0e 10       	rrc	r14		
    43d8:	3e f0 0f 00 	and	#15,	r14	;#0x000f
    43dc:	0f f3       	and	#0,	r15	;r3 As==00
    43de:	0f 4e       	mov	r14,	r15	
    43e0:	0f 5f       	rla	r15		
    43e2:	0f 5f       	rla	r15		
    43e4:	3f 50 10 81 	add	#-32496,r15	;#0x8110
    43e8:	2e 4f       	mov	@r15,	r14	
    43ea:	1f 4f 02 00 	mov	2(r15),	r15	;0x0002(r15)
    43ee:	0e 5e       	rla	r14		
    43f0:	0f 6f       	rlc	r15		
    43f2:	0e 5e       	rla	r14		
    43f4:	0f 6f       	rlc	r15		
    43f6:	0e 5e       	rla	r14		
    43f8:	0f 6f       	rlc	r15		
    43fa:	0e 5e       	rla	r14		
    43fc:	0f 6f       	rlc	r15		
    43fe:	0e 5e       	rla	r14		
    4400:	0f 6f       	rlc	r15		
    4402:	0e 5e       	rla	r14		
    4404:	0f 6f       	rlc	r15		
    4406:	0e 5e       	rla	r14		
    4408:	0f 6f       	rlc	r15		
    440a:	0c de       	bis	r14,	r12	
    440c:	0d df       	bis	r15,	r13	
    440e:	1e 44 6e ff 	mov	-146(r4),r14	;0xff6e(r4)
    4412:	1f 44 70 ff 	mov	-144(r4),r15	;0xff70(r4)
    4416:	8e 10       	swpb	r14		
    4418:	8f 10       	swpb	r15		
    441a:	4e ef       	xor.b	r15,	r14	
    441c:	0e ef       	xor	r15,	r14	
    441e:	4f 4f       	mov.b	r15,	r15	
    4420:	12 c3       	clrc			
    4422:	0f 10       	rrc	r15		
    4424:	0e 10       	rrc	r14		
    4426:	12 c3       	clrc			
    4428:	0f 10       	rrc	r15		
    442a:	0e 10       	rrc	r14		
    442c:	12 c3       	clrc			
    442e:	0f 10       	rrc	r15		
    4430:	0e 10       	rrc	r14		
    4432:	12 c3       	clrc			
    4434:	0f 10       	rrc	r15		
    4436:	0e 10       	rrc	r14		
    4438:	12 c3       	clrc			
    443a:	0f 10       	rrc	r15		
    443c:	0e 10       	rrc	r14		
    443e:	3e f0 0f 00 	and	#15,	r14	;#0x000f
    4442:	0f f3       	and	#0,	r15	;r3 As==00
    4444:	0f 4e       	mov	r14,	r15	
    4446:	0f 5f       	rla	r15		
    4448:	0f 5f       	rla	r15		
    444a:	3f 50 10 81 	add	#-32496,r15	;#0x8110
    444e:	2e 4f       	mov	@r15,	r14	
    4450:	1f 4f 02 00 	mov	2(r15),	r15	;0x0002(r15)
    4454:	0e 5e       	rla	r14		
    4456:	0f 6f       	rlc	r15		
    4458:	0e 5e       	rla	r14		
    445a:	0f 6f       	rlc	r15		
    445c:	0e 5e       	rla	r14		
    445e:	0f 6f       	rlc	r15		
    4460:	0e 5e       	rla	r14		
    4462:	0f 6f       	rlc	r15		
    4464:	0e 5e       	rla	r14		
    4466:	0f 6f       	rlc	r15		
    4468:	0e 5e       	rla	r14		
    446a:	0f 6f       	rlc	r15		
    446c:	0c de       	bis	r14,	r12	
    446e:	0d df       	bis	r15,	r13	
        | (LHs[ (X >> 21) & 0xF] << 5) | (LHs[ (X >> 29) & 0xF ] << 4);
    4470:	1e 44 70 ff 	mov	-144(r4),r14	;0xff70(r4)
    4474:	0f 43       	clr	r15		
    4476:	0a 4e       	mov	r14,	r10	
    4478:	0b 4f       	mov	r15,	r11	
    447a:	12 c3       	clrc			
    447c:	0b 10       	rrc	r11		
    447e:	0a 10       	rrc	r10		
    4480:	12 c3       	clrc			
    4482:	0b 10       	rrc	r11		
    4484:	0a 10       	rrc	r10		
    4486:	12 c3       	clrc			
    4488:	0b 10       	rrc	r11		
    448a:	0a 10       	rrc	r10		
    448c:	12 c3       	clrc			
    448e:	0b 10       	rrc	r11		
    4490:	0a 10       	rrc	r10		
    4492:	12 c3       	clrc			
    4494:	0b 10       	rrc	r11		
    4496:	0a 10       	rrc	r10		
    4498:	0e 4a       	mov	r10,	r14	
    449a:	0f 4b       	mov	r11,	r15	
    449c:	3e f0 0f 00 	and	#15,	r14	;#0x000f
    44a0:	0f f3       	and	#0,	r15	;r3 As==00
    44a2:	0f 4e       	mov	r14,	r15	
    44a4:	0f 5f       	rla	r15		
    44a6:	0f 5f       	rla	r15		
    44a8:	3f 50 10 81 	add	#-32496,r15	;#0x8110
    44ac:	2e 4f       	mov	@r15,	r14	
    44ae:	1f 4f 02 00 	mov	2(r15),	r15	;0x0002(r15)
    44b2:	0e 5e       	rla	r14		
    44b4:	0f 6f       	rlc	r15		
    44b6:	0e 5e       	rla	r14		
    44b8:	0f 6f       	rlc	r15		
    44ba:	0e 5e       	rla	r14		
    44bc:	0f 6f       	rlc	r15		
    44be:	0e 5e       	rla	r14		
    44c0:	0f 6f       	rlc	r15		
    44c2:	0e 5e       	rla	r14		
    44c4:	0f 6f       	rlc	r15		
    44c6:	0c de       	bis	r14,	r12	
    44c8:	0d df       	bis	r15,	r13	
    44ca:	1f 44 70 ff 	mov	-144(r4),r15	;0xff70(r4)
    44ce:	0e 43       	clr	r14		
    44d0:	8f 10       	swpb	r15		
    44d2:	4f 4f       	mov.b	r15,	r15	
    44d4:	08 4f       	mov	r15,	r8	
    44d6:	09 4e       	mov	r14,	r9	
    44d8:	12 c3       	clrc			
    44da:	09 10       	rrc	r9		
    44dc:	08 10       	rrc	r8		
    44de:	12 c3       	clrc			
    44e0:	09 10       	rrc	r9		
    44e2:	08 10       	rrc	r8		
    44e4:	12 c3       	clrc			
    44e6:	09 10       	rrc	r9		
    44e8:	08 10       	rrc	r8		
    44ea:	12 c3       	clrc			
    44ec:	09 10       	rrc	r9		
    44ee:	08 10       	rrc	r8		
    44f0:	12 c3       	clrc			
    44f2:	09 10       	rrc	r9		
    44f4:	08 10       	rrc	r8		
    44f6:	0f 48       	mov	r8,	r15	
    44f8:	0f 5f       	rla	r15		
    44fa:	0f 5f       	rla	r15		
    44fc:	3f 50 10 81 	add	#-32496,r15	;#0x8110
    4500:	2e 4f       	mov	@r15,	r14	
    4502:	1f 4f 02 00 	mov	2(r15),	r15	;0x0002(r15)
    4506:	0e 5e       	rla	r14		
    4508:	0f 6f       	rlc	r15		
    450a:	0e 5e       	rla	r14		
    450c:	0f 6f       	rlc	r15		
    450e:	0e 5e       	rla	r14		
    4510:	0f 6f       	rlc	r15		
    4512:	0e 5e       	rla	r14		
    4514:	0f 6f       	rlc	r15		
* Permuted Choice 1
*/
    T = ((Y >> 4) ^ X) & 0x0F0F0F0F; X ^= T; Y ^= (T << 4);
    T = ((Y ) ^ X) & 0x10101010; X ^= T; Y ^= (T );

    X = (LHs[ (X ) & 0xF] << 3) | (LHs[ (X >> 8) & 0xF ] << 2)
    4516:	0a 4c       	mov	r12,	r10	
    4518:	0b 4d       	mov	r13,	r11	
    451a:	0a de       	bis	r14,	r10	
    451c:	0b df       	bis	r15,	r11	
    451e:	84 4a 6e ff 	mov	r10,	-146(r4);0xff6e(r4)
    4522:	84 4b 70 ff 	mov	r11,	-144(r4);0xff70(r4)
        | (LHs[ (X >> 16) & 0xF] << 1) | (LHs[ (X >> 24) & 0xF ] )
        | (LHs[ (X >> 5) & 0xF] << 7) | (LHs[ (X >> 13) & 0xF ] << 6)
        | (LHs[ (X >> 21) & 0xF] << 5) | (LHs[ (X >> 29) & 0xF ] << 4);

    Y = (RHs[ (Y >> 1) & 0xF] << 3) | (RHs[ (Y >> 9) & 0xF ] << 2)
    4526:	1e 44 72 ff 	mov	-142(r4),r14	;0xff72(r4)
    452a:	1f 44 74 ff 	mov	-140(r4),r15	;0xff74(r4)
    452e:	12 c3       	clrc			
    4530:	0f 10       	rrc	r15		
    4532:	0e 10       	rrc	r14		
    4534:	3e f0 0f 00 	and	#15,	r14	;#0x000f
    4538:	0f f3       	and	#0,	r15	;r3 As==00
    453a:	0f 4e       	mov	r14,	r15	
    453c:	0f 5f       	rla	r15		
    453e:	0f 5f       	rla	r15		
    4540:	3f 50 50 81 	add	#-32432,r15	;#0x8150
    4544:	2e 4f       	mov	@r15,	r14	
    4546:	1f 4f 02 00 	mov	2(r15),	r15	;0x0002(r15)
    454a:	0c 4e       	mov	r14,	r12	
    454c:	0d 4f       	mov	r15,	r13	
    454e:	0c 5c       	rla	r12		
    4550:	0d 6d       	rlc	r13		
    4552:	0c 5c       	rla	r12		
    4554:	0d 6d       	rlc	r13		
    4556:	0c 5c       	rla	r12		
    4558:	0d 6d       	rlc	r13		
    455a:	1e 44 72 ff 	mov	-142(r4),r14	;0xff72(r4)
    455e:	1f 44 74 ff 	mov	-140(r4),r15	;0xff74(r4)
    4562:	8e 10       	swpb	r14		
    4564:	8f 10       	swpb	r15		
    4566:	4e ef       	xor.b	r15,	r14	
    4568:	0e ef       	xor	r15,	r14	
    456a:	4f 4f       	mov.b	r15,	r15	
    456c:	12 c3       	clrc			
    456e:	0f 10       	rrc	r15		
    4570:	0e 10       	rrc	r14		
    4572:	3e f0 0f 00 	and	#15,	r14	;#0x000f
    4576:	0f f3       	and	#0,	r15	;r3 As==00
    4578:	0f 4e       	mov	r14,	r15	
    457a:	0f 5f       	rla	r15		
    457c:	0f 5f       	rla	r15		
    457e:	3f 50 50 81 	add	#-32432,r15	;#0x8150
    4582:	2e 4f       	mov	@r15,	r14	
    4584:	1f 4f 02 00 	mov	2(r15),	r15	;0x0002(r15)
    4588:	0e 5e       	rla	r14		
    458a:	0f 6f       	rlc	r15		
    458c:	0e 5e       	rla	r14		
    458e:	0f 6f       	rlc	r15		
    4590:	0c de       	bis	r14,	r12	
    4592:	0d df       	bis	r15,	r13	
        | (RHs[ (Y >> 17) & 0xF] << 1) | (RHs[ (Y >> 25) & 0xF ] )
    4594:	1e 44 74 ff 	mov	-140(r4),r14	;0xff74(r4)
    4598:	0f 43       	clr	r15		
    459a:	84 4e b2 ff 	mov	r14,	-78(r4)	;0xffb2(r4)
    459e:	84 4f b4 ff 	mov	r15,	-76(r4)	;0xffb4(r4)
    45a2:	12 c3       	clrc			
    45a4:	14 10 b4 ff 	rrc	-76(r4)	;0xffb4(r4)
    45a8:	14 10 b2 ff 	rrc	-78(r4)	;0xffb2(r4)
    45ac:	1e 44 b2 ff 	mov	-78(r4),r14	;0xffb2(r4)
    45b0:	1f 44 b4 ff 	mov	-76(r4),r15	;0xffb4(r4)
    45b4:	3e f0 0f 00 	and	#15,	r14	;#0x000f
    45b8:	0f f3       	and	#0,	r15	;r3 As==00
    45ba:	0f 4e       	mov	r14,	r15	
    45bc:	0f 5f       	rla	r15		
    45be:	0f 5f       	rla	r15		
    45c0:	3f 50 50 81 	add	#-32432,r15	;#0x8150
    45c4:	2e 4f       	mov	@r15,	r14	
    45c6:	1f 4f 02 00 	mov	2(r15),	r15	;0x0002(r15)
    45ca:	0e 5e       	rla	r14		
    45cc:	0f 6f       	rlc	r15		
    45ce:	0c de       	bis	r14,	r12	
    45d0:	0d df       	bis	r15,	r13	
    45d2:	1f 44 74 ff 	mov	-140(r4),r15	;0xff74(r4)
    45d6:	0e 43       	clr	r14		
    45d8:	8f 10       	swpb	r15		
    45da:	4f 4f       	mov.b	r15,	r15	
    45dc:	84 4f b6 ff 	mov	r15,	-74(r4)	;0xffb6(r4)
    45e0:	84 4e b8 ff 	mov	r14,	-72(r4)	;0xffb8(r4)
    45e4:	12 c3       	clrc			
    45e6:	14 10 b8 ff 	rrc	-72(r4)	;0xffb8(r4)
    45ea:	14 10 b6 ff 	rrc	-74(r4)	;0xffb6(r4)
    45ee:	1e 44 b6 ff 	mov	-74(r4),r14	;0xffb6(r4)
    45f2:	1f 44 b8 ff 	mov	-72(r4),r15	;0xffb8(r4)
    45f6:	3e f0 0f 00 	and	#15,	r14	;#0x000f
    45fa:	0f f3       	and	#0,	r15	;r3 As==00
    45fc:	0f 4e       	mov	r14,	r15	
    45fe:	0f 5f       	rla	r15		
    4600:	0f 5f       	rla	r15		
    4602:	3f 50 50 81 	add	#-32432,r15	;#0x8150
    4606:	2e 4f       	mov	@r15,	r14	
    4608:	1f 4f 02 00 	mov	2(r15),	r15	;0x0002(r15)
    460c:	0c de       	bis	r14,	r12	
    460e:	0d df       	bis	r15,	r13	
        | (RHs[ (Y >> 4) & 0xF] << 7) | (RHs[ (Y >> 12) & 0xF ] << 6)
    4610:	1e 44 72 ff 	mov	-142(r4),r14	;0xff72(r4)
    4614:	1f 44 74 ff 	mov	-140(r4),r15	;0xff74(r4)
    4618:	12 c3       	clrc			
    461a:	0f 10       	rrc	r15		
    461c:	0e 10       	rrc	r14		
    461e:	12 c3       	clrc			
    4620:	0f 10       	rrc	r15		
    4622:	0e 10       	rrc	r14		
    4624:	12 c3       	clrc			
    4626:	0f 10       	rrc	r15		
    4628:	0e 10       	rrc	r14		
    462a:	12 c3       	clrc			
    462c:	0f 10       	rrc	r15		
    462e:	0e 10       	rrc	r14		
    4630:	3e f0 0f 00 	and	#15,	r14	;#0x000f
    4634:	0f f3       	and	#0,	r15	;r3 As==00
    4636:	0f 4e       	mov	r14,	r15	
    4638:	0f 5f       	rla	r15		
    463a:	0f 5f       	rla	r15		
    463c:	3f 50 50 81 	add	#-32432,r15	;#0x8150
    4640:	2e 4f       	mov	@r15,	r14	
    4642:	1f 4f 02 00 	mov	2(r15),	r15	;0x0002(r15)
    4646:	0e 5e       	rla	r14		
    4648:	0f 6f       	rlc	r15		
    464a:	0e 5e       	rla	r14		
    464c:	0f 6f       	rlc	r15		
    464e:	0e 5e       	rla	r14		
    4650:	0f 6f       	rlc	r15		
    4652:	0e 5e       	rla	r14		
    4654:	0f 6f       	rlc	r15		
    4656:	0e 5e       	rla	r14		
    4658:	0f 6f       	rlc	r15		
    465a:	0e 5e       	rla	r14		
    465c:	0f 6f       	rlc	r15		
    465e:	0e 5e       	rla	r14		
    4660:	0f 6f       	rlc	r15		
    4662:	0c de       	bis	r14,	r12	
    4664:	0d df       	bis	r15,	r13	
    4666:	1e 44 72 ff 	mov	-142(r4),r14	;0xff72(r4)
    466a:	1f 44 74 ff 	mov	-140(r4),r15	;0xff74(r4)
    466e:	8e 10       	swpb	r14		
    4670:	8f 10       	swpb	r15		
    4672:	4e ef       	xor.b	r15,	r14	
    4674:	0e ef       	xor	r15,	r14	
    4676:	4f 4f       	mov.b	r15,	r15	
    4678:	12 c3       	clrc			
    467a:	0f 10       	rrc	r15		
    467c:	0e 10       	rrc	r14		
    467e:	12 c3       	clrc			
    4680:	0f 10       	rrc	r15		
    4682:	0e 10       	rrc	r14		
    4684:	12 c3       	clrc			
    4686:	0f 10       	rrc	r15		
    4688:	0e 10       	rrc	r14		
    468a:	12 c3       	clrc			
    468c:	0f 10       	rrc	r15		
    468e:	0e 10       	rrc	r14		
    4690:	3e f0 0f 00 	and	#15,	r14	;#0x000f
    4694:	0f f3       	and	#0,	r15	;r3 As==00
    4696:	0f 4e       	mov	r14,	r15	
    4698:	0f 5f       	rla	r15		
    469a:	0f 5f       	rla	r15		
    469c:	3f 50 50 81 	add	#-32432,r15	;#0x8150
    46a0:	2e 4f       	mov	@r15,	r14	
    46a2:	1f 4f 02 00 	mov	2(r15),	r15	;0x0002(r15)
    46a6:	0e 5e       	rla	r14		
    46a8:	0f 6f       	rlc	r15		
    46aa:	0e 5e       	rla	r14		
    46ac:	0f 6f       	rlc	r15		
    46ae:	0e 5e       	rla	r14		
    46b0:	0f 6f       	rlc	r15		
    46b2:	0e 5e       	rla	r14		
    46b4:	0f 6f       	rlc	r15		
    46b6:	0e 5e       	rla	r14		
    46b8:	0f 6f       	rlc	r15		
    46ba:	0e 5e       	rla	r14		
    46bc:	0f 6f       	rlc	r15		
    46be:	0c de       	bis	r14,	r12	
    46c0:	0d df       	bis	r15,	r13	
        | (RHs[ (Y >> 20) & 0xF] << 5) | (RHs[ (Y >> 28) & 0xF ] << 4);
    46c2:	1e 44 74 ff 	mov	-140(r4),r14	;0xff74(r4)
    46c6:	0f 43       	clr	r15		
    46c8:	06 4e       	mov	r14,	r6	
    46ca:	07 4f       	mov	r15,	r7	
    46cc:	12 c3       	clrc			
    46ce:	07 10       	rrc	r7		
    46d0:	06 10       	rrc	r6		
    46d2:	12 c3       	clrc			
    46d4:	07 10       	rrc	r7		
    46d6:	06 10       	rrc	r6		
    46d8:	12 c3       	clrc			
    46da:	07 10       	rrc	r7		
    46dc:	06 10       	rrc	r6		
    46de:	12 c3       	clrc			
    46e0:	07 10       	rrc	r7		
    46e2:	06 10       	rrc	r6		
    46e4:	0e 46       	mov	r6,	r14	
    46e6:	0f 47       	mov	r7,	r15	
    46e8:	3e f0 0f 00 	and	#15,	r14	;#0x000f
    46ec:	0f f3       	and	#0,	r15	;r3 As==00
    46ee:	0f 4e       	mov	r14,	r15	
    46f0:	0f 5f       	rla	r15		
    46f2:	0f 5f       	rla	r15		
    46f4:	3f 50 50 81 	add	#-32432,r15	;#0x8150
    46f8:	2e 4f       	mov	@r15,	r14	
    46fa:	1f 4f 02 00 	mov	2(r15),	r15	;0x0002(r15)
    46fe:	0e 5e       	rla	r14		
    4700:	0f 6f       	rlc	r15		
    4702:	0e 5e       	rla	r14		
    4704:	0f 6f       	rlc	r15		
    4706:	0e 5e       	rla	r14		
    4708:	0f 6f       	rlc	r15		
    470a:	0e 5e       	rla	r14		
    470c:	0f 6f       	rlc	r15		
    470e:	0e 5e       	rla	r14		
    4710:	0f 6f       	rlc	r15		
    4712:	0c de       	bis	r14,	r12	
    4714:	0d df       	bis	r15,	r13	
    4716:	1f 44 74 ff 	mov	-140(r4),r15	;0xff74(r4)
    471a:	0e 43       	clr	r14		
    471c:	8f 10       	swpb	r15		
    471e:	4f 4f       	mov.b	r15,	r15	
    4720:	84 4f ba ff 	mov	r15,	-70(r4)	;0xffba(r4)
    4724:	84 4e bc ff 	mov	r14,	-68(r4)	;0xffbc(r4)
    4728:	12 c3       	clrc			
    472a:	14 10 bc ff 	rrc	-68(r4)	;0xffbc(r4)
    472e:	14 10 ba ff 	rrc	-70(r4)	;0xffba(r4)
    4732:	12 c3       	clrc			
    4734:	14 10 bc ff 	rrc	-68(r4)	;0xffbc(r4)
    4738:	14 10 ba ff 	rrc	-70(r4)	;0xffba(r4)
    473c:	12 c3       	clrc			
    473e:	14 10 bc ff 	rrc	-68(r4)	;0xffbc(r4)
    4742:	14 10 ba ff 	rrc	-70(r4)	;0xffba(r4)
    4746:	12 c3       	clrc			
    4748:	14 10 bc ff 	rrc	-68(r4)	;0xffbc(r4)
    474c:	14 10 ba ff 	rrc	-70(r4)	;0xffba(r4)
    4750:	1f 44 ba ff 	mov	-70(r4),r15	;0xffba(r4)
    4754:	0f 5f       	rla	r15		
    4756:	0f 5f       	rla	r15		
    4758:	3f 50 50 81 	add	#-32432,r15	;#0x8150
    475c:	2e 4f       	mov	@r15,	r14	
    475e:	1f 4f 02 00 	mov	2(r15),	r15	;0x0002(r15)
    4762:	0e 5e       	rla	r14		
    4764:	0f 6f       	rlc	r15		
    4766:	0e 5e       	rla	r14		
    4768:	0f 6f       	rlc	r15		
    476a:	0e 5e       	rla	r14		
    476c:	0f 6f       	rlc	r15		
    476e:	0e 5e       	rla	r14		
    4770:	0f 6f       	rlc	r15		
    X = (LHs[ (X ) & 0xF] << 3) | (LHs[ (X >> 8) & 0xF ] << 2)
        | (LHs[ (X >> 16) & 0xF] << 1) | (LHs[ (X >> 24) & 0xF ] )
        | (LHs[ (X >> 5) & 0xF] << 7) | (LHs[ (X >> 13) & 0xF ] << 6)
        | (LHs[ (X >> 21) & 0xF] << 5) | (LHs[ (X >> 29) & 0xF ] << 4);

    Y = (RHs[ (Y >> 1) & 0xF] << 3) | (RHs[ (Y >> 9) & 0xF ] << 2)
    4772:	0a 4c       	mov	r12,	r10	
    4774:	0b 4d       	mov	r13,	r11	
    4776:	0a de       	bis	r14,	r10	
    4778:	0b df       	bis	r15,	r11	
    477a:	84 4a 72 ff 	mov	r10,	-142(r4);0xff72(r4)
    477e:	84 4b 74 ff 	mov	r11,	-140(r4);0xff74(r4)
        | (RHs[ (Y >> 17) & 0xF] << 1) | (RHs[ (Y >> 25) & 0xF ] )
        | (RHs[ (Y >> 4) & 0xF] << 7) | (RHs[ (Y >> 12) & 0xF ] << 6)
        | (RHs[ (Y >> 20) & 0xF] << 5) | (RHs[ (Y >> 28) & 0xF ] << 4);

    X &= 0x0FFFFFFF;
    4782:	b4 f3 6e ff 	and	#-1,	-146(r4);r3 As==11, 0xff6e(r4)
    4786:	b4 f0 ff 0f 	and	#4095,	-144(r4);#0x0fff, 0xff70(r4)
    478a:	70 ff 
    Y &= 0x0FFFFFFF;
    478c:	b4 f3 72 ff 	and	#-1,	-142(r4);r3 As==11, 0xff72(r4)
    4790:	b4 f0 ff 0f 	and	#4095,	-140(r4);#0x0fff, 0xff74(r4)
    4794:	74 ff 

    /*
* calculate subkeys
*/
    for( i = 0; i < 16; i++ )
    4796:	84 43 6c ff 	mov	#0,	-148(r4);r3 As==00, 0xff6c(r4)
    479a:	30 40 82 50 	br	#0x5082	
    {
        if( i < 2 || i == 8 || i == 15 )
    479e:	a4 93 6c ff 	cmp	#2,	-148(r4);r3 As==10, 0xff6c(r4)
    47a2:	07 38       	jl	$+16     	;abs 0x47b2
    47a4:	b4 92 6c ff 	cmp	#8,	-148(r4);r2 As==11, 0xff6c(r4)
    47a8:	04 24       	jz	$+10     	;abs 0x47b2
    47aa:	b4 90 0f 00 	cmp	#15,	-148(r4);#0x000f, 0xff6c(r4)
    47ae:	6c ff 
    47b0:	57 20       	jnz	$+176    	;abs 0x4860
        {
            X = ((X << 1) | (X >> 27)) & 0x0FFFFFFF;
    47b2:	1e 44 6e ff 	mov	-146(r4),r14	;0xff6e(r4)
    47b6:	1f 44 70 ff 	mov	-144(r4),r15	;0xff70(r4)
    47ba:	0e 5e       	rla	r14		
    47bc:	0f 6f       	rlc	r15		
    47be:	1d 44 70 ff 	mov	-144(r4),r13	;0xff70(r4)
    47c2:	0c 43       	clr	r12		
    47c4:	8d 10       	swpb	r13		
    47c6:	4d 4d       	mov.b	r13,	r13	
    47c8:	84 4d c6 ff 	mov	r13,	-58(r4)	;0xffc6(r4)
    47cc:	84 4c c8 ff 	mov	r12,	-56(r4)	;0xffc8(r4)
    47d0:	12 c3       	clrc			
    47d2:	14 10 c8 ff 	rrc	-56(r4)	;0xffc8(r4)
    47d6:	14 10 c6 ff 	rrc	-58(r4)	;0xffc6(r4)
    47da:	12 c3       	clrc			
    47dc:	14 10 c8 ff 	rrc	-56(r4)	;0xffc8(r4)
    47e0:	14 10 c6 ff 	rrc	-58(r4)	;0xffc6(r4)
    47e4:	12 c3       	clrc			
    47e6:	14 10 c8 ff 	rrc	-56(r4)	;0xffc8(r4)
    47ea:	14 10 c6 ff 	rrc	-58(r4)	;0xffc6(r4)
    47ee:	1e d4 c6 ff 	bis	-58(r4),r14	;0xffc6(r4)
    47f2:	1f d4 c8 ff 	bis	-56(r4),r15	;0xffc8(r4)
    47f6:	0b 4e       	mov	r14,	r11	
    47f8:	0c 4f       	mov	r15,	r12	
    47fa:	3b f3       	and	#-1,	r11	;r3 As==11
    47fc:	3c f0 ff 0f 	and	#4095,	r12	;#0x0fff
    4800:	84 4b 6e ff 	mov	r11,	-146(r4);0xff6e(r4)
    4804:	84 4c 70 ff 	mov	r12,	-144(r4);0xff70(r4)
            Y = ((Y << 1) | (Y >> 27)) & 0x0FFFFFFF;
    4808:	1e 44 72 ff 	mov	-142(r4),r14	;0xff72(r4)
    480c:	1f 44 74 ff 	mov	-140(r4),r15	;0xff74(r4)
    4810:	0e 5e       	rla	r14		
    4812:	0f 6f       	rlc	r15		
    4814:	1d 44 74 ff 	mov	-140(r4),r13	;0xff74(r4)
    4818:	0c 43       	clr	r12		
    481a:	8d 10       	swpb	r13		
    481c:	4d 4d       	mov.b	r13,	r13	
    481e:	84 4d ca ff 	mov	r13,	-54(r4)	;0xffca(r4)
    4822:	84 4c cc ff 	mov	r12,	-52(r4)	;0xffcc(r4)
    4826:	12 c3       	clrc			
    4828:	14 10 cc ff 	rrc	-52(r4)	;0xffcc(r4)
    482c:	14 10 ca ff 	rrc	-54(r4)	;0xffca(r4)
    4830:	12 c3       	clrc			
    4832:	14 10 cc ff 	rrc	-52(r4)	;0xffcc(r4)
    4836:	14 10 ca ff 	rrc	-54(r4)	;0xffca(r4)
    483a:	12 c3       	clrc			
    483c:	14 10 cc ff 	rrc	-52(r4)	;0xffcc(r4)
    4840:	14 10 ca ff 	rrc	-54(r4)	;0xffca(r4)
    4844:	1e d4 ca ff 	bis	-54(r4),r14	;0xffca(r4)
    4848:	1f d4 cc ff 	bis	-52(r4),r15	;0xffcc(r4)
    484c:	0c 4e       	mov	r14,	r12	
    484e:	0d 4f       	mov	r15,	r13	
    4850:	3c f3       	and	#-1,	r12	;r3 As==11
    4852:	3d f0 ff 0f 	and	#4095,	r13	;#0x0fff
    4856:	84 4c 72 ff 	mov	r12,	-142(r4);0xff72(r4)
    485a:	84 4d 74 ff 	mov	r13,	-140(r4);0xff74(r4)
    485e:	50 3c       	jmp	$+162    	;abs 0x4900
        }
        else
        {
            X = ((X << 2) | (X >> 26)) & 0x0FFFFFFF;
    4860:	1e 44 6e ff 	mov	-146(r4),r14	;0xff6e(r4)
    4864:	1f 44 70 ff 	mov	-144(r4),r15	;0xff70(r4)
    4868:	0e 5e       	rla	r14		
    486a:	0f 6f       	rlc	r15		
    486c:	0e 5e       	rla	r14		
    486e:	0f 6f       	rlc	r15		
    4870:	1d 44 70 ff 	mov	-144(r4),r13	;0xff70(r4)
    4874:	0c 43       	clr	r12		
    4876:	8d 10       	swpb	r13		
    4878:	4d 4d       	mov.b	r13,	r13	
    487a:	84 4d be ff 	mov	r13,	-66(r4)	;0xffbe(r4)
    487e:	84 4c c0 ff 	mov	r12,	-64(r4)	;0xffc0(r4)
    4882:	12 c3       	clrc			
    4884:	14 10 c0 ff 	rrc	-64(r4)	;0xffc0(r4)
    4888:	14 10 be ff 	rrc	-66(r4)	;0xffbe(r4)
    488c:	12 c3       	clrc			
    488e:	14 10 c0 ff 	rrc	-64(r4)	;0xffc0(r4)
    4892:	14 10 be ff 	rrc	-66(r4)	;0xffbe(r4)
    4896:	1e d4 be ff 	bis	-66(r4),r14	;0xffbe(r4)
    489a:	1f d4 c0 ff 	bis	-64(r4),r15	;0xffc0(r4)
    489e:	0a 4e       	mov	r14,	r10	
    48a0:	0b 4f       	mov	r15,	r11	
    48a2:	3a f3       	and	#-1,	r10	;r3 As==11
    48a4:	3b f0 ff 0f 	and	#4095,	r11	;#0x0fff
    48a8:	84 4a 6e ff 	mov	r10,	-146(r4);0xff6e(r4)
    48ac:	84 4b 70 ff 	mov	r11,	-144(r4);0xff70(r4)
            Y = ((Y << 2) | (Y >> 26)) & 0x0FFFFFFF;
    48b0:	1e 44 72 ff 	mov	-142(r4),r14	;0xff72(r4)
    48b4:	1f 44 74 ff 	mov	-140(r4),r15	;0xff74(r4)
    48b8:	0e 5e       	rla	r14		
    48ba:	0f 6f       	rlc	r15		
    48bc:	0e 5e       	rla	r14		
    48be:	0f 6f       	rlc	r15		
    48c0:	1d 44 74 ff 	mov	-140(r4),r13	;0xff74(r4)
    48c4:	0c 43       	clr	r12		
    48c6:	8d 10       	swpb	r13		
    48c8:	4d 4d       	mov.b	r13,	r13	
    48ca:	84 4d c2 ff 	mov	r13,	-62(r4)	;0xffc2(r4)
    48ce:	84 4c c4 ff 	mov	r12,	-60(r4)	;0xffc4(r4)
    48d2:	12 c3       	clrc			
    48d4:	14 10 c4 ff 	rrc	-60(r4)	;0xffc4(r4)
    48d8:	14 10 c2 ff 	rrc	-62(r4)	;0xffc2(r4)
    48dc:	12 c3       	clrc			
    48de:	14 10 c4 ff 	rrc	-60(r4)	;0xffc4(r4)
    48e2:	14 10 c2 ff 	rrc	-62(r4)	;0xffc2(r4)
    48e6:	1e d4 c2 ff 	bis	-62(r4),r14	;0xffc2(r4)
    48ea:	1f d4 c4 ff 	bis	-60(r4),r15	;0xffc4(r4)
    48ee:	0b 4e       	mov	r14,	r11	
    48f0:	0c 4f       	mov	r15,	r12	
    48f2:	3b f3       	and	#-1,	r11	;r3 As==11
    48f4:	3c f0 ff 0f 	and	#4095,	r12	;#0x0fff
    48f8:	84 4b 72 ff 	mov	r11,	-142(r4);0xff72(r4)
    48fc:	84 4c 74 ff 	mov	r12,	-140(r4);0xff74(r4)
        }

        *SK++ = ((X << 4) & 0x24000000) | ((X << 28) & 0x10000000)
    4900:	1e 44 6e ff 	mov	-146(r4),r14	;0xff6e(r4)
    4904:	1f 44 70 ff 	mov	-144(r4),r15	;0xff70(r4)
    4908:	0e 5e       	rla	r14		
    490a:	0f 6f       	rlc	r15		
    490c:	0e 5e       	rla	r14		
    490e:	0f 6f       	rlc	r15		
    4910:	0e 5e       	rla	r14		
    4912:	0f 6f       	rlc	r15		
    4914:	0e 5e       	rla	r14		
    4916:	0f 6f       	rlc	r15		
    4918:	0c 4e       	mov	r14,	r12	
    491a:	0d 4f       	mov	r15,	r13	
    491c:	0c f3       	and	#0,	r12	;r3 As==00
    491e:	3d f0 00 24 	and	#9216,	r13	;#0x2400
    4922:	1f 44 6e ff 	mov	-146(r4),r15	;0xff6e(r4)
    4926:	0e 43       	clr	r14		
    4928:	4f 4f       	mov.b	r15,	r15	
    492a:	8f 10       	swpb	r15		
    492c:	84 4e ce ff 	mov	r14,	-50(r4)	;0xffce(r4)
    4930:	84 4f d0 ff 	mov	r15,	-48(r4)	;0xffd0(r4)
    4934:	94 54 ce ff 	rla	-50(r4)	;0xffce(r4)
    4938:	ce ff 
    493a:	94 64 d0 ff 	rlc	-48(r4)	;0xffd0(r4)
    493e:	d0 ff 
    4940:	94 54 ce ff 	rla	-50(r4)	;0xffce(r4)
    4944:	ce ff 
    4946:	94 64 d0 ff 	rlc	-48(r4)	;0xffd0(r4)
    494a:	d0 ff 
    494c:	94 54 ce ff 	rla	-50(r4)	;0xffce(r4)
    4950:	ce ff 
    4952:	94 64 d0 ff 	rlc	-48(r4)	;0xffd0(r4)
    4956:	d0 ff 
    4958:	94 54 ce ff 	rla	-50(r4)	;0xffce(r4)
    495c:	ce ff 
    495e:	94 64 d0 ff 	rlc	-48(r4)	;0xffd0(r4)
    4962:	d0 ff 
    4964:	1e 44 ce ff 	mov	-50(r4),r14	;0xffce(r4)
    4968:	1f 44 d0 ff 	mov	-48(r4),r15	;0xffd0(r4)
    496c:	0e f3       	and	#0,	r14	;r3 As==00
    496e:	3f f0 00 10 	and	#4096,	r15	;#0x1000
    4972:	0c de       	bis	r14,	r12	
    4974:	0d df       	bis	r15,	r13	
                | ((X << 14) & 0x08000000) | ((X << 18) & 0x02080000)
    4976:	1e 44 6e ff 	mov	-146(r4),r14	;0xff6e(r4)
    497a:	1f 44 70 ff 	mov	-144(r4),r15	;0xff70(r4)
    497e:	4f ee       	xor.b	r14,	r15	
    4980:	0f ee       	xor	r14,	r15	
    4982:	8f 10       	swpb	r15		
    4984:	4e 4e       	mov.b	r14,	r14	
    4986:	8e 10       	swpb	r14		
    4988:	0e 5e       	rla	r14		
    498a:	0f 6f       	rlc	r15		
    498c:	0e 5e       	rla	r14		
    498e:	0f 6f       	rlc	r15		
    4990:	0e 5e       	rla	r14		
    4992:	0f 6f       	rlc	r15		
    4994:	0e 5e       	rla	r14		
    4996:	0f 6f       	rlc	r15		
    4998:	0e 5e       	rla	r14		
    499a:	0f 6f       	rlc	r15		
    499c:	0e 5e       	rla	r14		
    499e:	0f 6f       	rlc	r15		
    49a0:	0e f3       	and	#0,	r14	;r3 As==00
    49a2:	3f f0 00 08 	and	#2048,	r15	;#0x0800
    49a6:	0c de       	bis	r14,	r12	
    49a8:	0d df       	bis	r15,	r13	
    49aa:	1e 44 6e ff 	mov	-146(r4),r14	;0xff6e(r4)
    49ae:	0f 43       	clr	r15		
    49b0:	84 4f d2 ff 	mov	r15,	-46(r4)	;0xffd2(r4)
    49b4:	84 4e d4 ff 	mov	r14,	-44(r4)	;0xffd4(r4)
    49b8:	94 54 d2 ff 	rla	-46(r4)	;0xffd2(r4)
    49bc:	d2 ff 
    49be:	94 64 d4 ff 	rlc	-44(r4)	;0xffd4(r4)
    49c2:	d4 ff 
    49c4:	94 54 d2 ff 	rla	-46(r4)	;0xffd2(r4)
    49c8:	d2 ff 
    49ca:	94 64 d4 ff 	rlc	-44(r4)	;0xffd4(r4)
    49ce:	d4 ff 
    49d0:	1e 44 d2 ff 	mov	-46(r4),r14	;0xffd2(r4)
    49d4:	1f 44 d4 ff 	mov	-44(r4),r15	;0xffd4(r4)
    49d8:	0e f3       	and	#0,	r14	;r3 As==00
    49da:	3f f0 08 02 	and	#520,	r15	;#0x0208
    49de:	0c de       	bis	r14,	r12	
    49e0:	0d df       	bis	r15,	r13	
                | ((X << 6) & 0x01000000) | ((X << 9) & 0x00200000)
    49e2:	1e 44 6e ff 	mov	-146(r4),r14	;0xff6e(r4)
    49e6:	1f 44 70 ff 	mov	-144(r4),r15	;0xff70(r4)
    49ea:	0e 5e       	rla	r14		
    49ec:	0f 6f       	rlc	r15		
    49ee:	0e 5e       	rla	r14		
    49f0:	0f 6f       	rlc	r15		
    49f2:	0e 5e       	rla	r14		
    49f4:	0f 6f       	rlc	r15		
    49f6:	0e 5e       	rla	r14		
    49f8:	0f 6f       	rlc	r15		
    49fa:	0e 5e       	rla	r14		
    49fc:	0f 6f       	rlc	r15		
    49fe:	0e 5e       	rla	r14		
    4a00:	0f 6f       	rlc	r15		
    4a02:	0e f3       	and	#0,	r14	;r3 As==00
    4a04:	3f f0 00 01 	and	#256,	r15	;#0x0100
    4a08:	0c de       	bis	r14,	r12	
    4a0a:	0d df       	bis	r15,	r13	
    4a0c:	1e 44 6e ff 	mov	-146(r4),r14	;0xff6e(r4)
    4a10:	1f 44 70 ff 	mov	-144(r4),r15	;0xff70(r4)
    4a14:	4f ee       	xor.b	r14,	r15	
    4a16:	0f ee       	xor	r14,	r15	
    4a18:	8f 10       	swpb	r15		
    4a1a:	4e 4e       	mov.b	r14,	r14	
    4a1c:	8e 10       	swpb	r14		
    4a1e:	0e 5e       	rla	r14		
    4a20:	0f 6f       	rlc	r15		
    4a22:	0e f3       	and	#0,	r14	;r3 As==00
    4a24:	3f f0 20 00 	and	#32,	r15	;#0x0020
    4a28:	0c de       	bis	r14,	r12	
    4a2a:	0d df       	bis	r15,	r13	
                | ((X >> 1) & 0x00100000) | ((X << 10) & 0x00040000)
    4a2c:	1e 44 6e ff 	mov	-146(r4),r14	;0xff6e(r4)
    4a30:	1f 44 70 ff 	mov	-144(r4),r15	;0xff70(r4)
    4a34:	12 c3       	clrc			
    4a36:	0f 10       	rrc	r15		
    4a38:	0e 10       	rrc	r14		
    4a3a:	0e f3       	and	#0,	r14	;r3 As==00
    4a3c:	3f f0 10 00 	and	#16,	r15	;#0x0010
    4a40:	0c de       	bis	r14,	r12	
    4a42:	0d df       	bis	r15,	r13	
    4a44:	1e 44 6e ff 	mov	-146(r4),r14	;0xff6e(r4)
    4a48:	1f 44 70 ff 	mov	-144(r4),r15	;0xff70(r4)
    4a4c:	4f ee       	xor.b	r14,	r15	
    4a4e:	0f ee       	xor	r14,	r15	
    4a50:	8f 10       	swpb	r15		
    4a52:	4e 4e       	mov.b	r14,	r14	
    4a54:	8e 10       	swpb	r14		
    4a56:	0e 5e       	rla	r14		
    4a58:	0f 6f       	rlc	r15		
    4a5a:	0e 5e       	rla	r14		
    4a5c:	0f 6f       	rlc	r15		
    4a5e:	0e f3       	and	#0,	r14	;r3 As==00
    4a60:	2f f2       	and	#4,	r15	;r2 As==10
    4a62:	0c de       	bis	r14,	r12	
    4a64:	0d df       	bis	r15,	r13	
                | ((X << 2) & 0x00020000) | ((X >> 10) & 0x00010000)
    4a66:	1e 44 6e ff 	mov	-146(r4),r14	;0xff6e(r4)
    4a6a:	1f 44 70 ff 	mov	-144(r4),r15	;0xff70(r4)
    4a6e:	0e 5e       	rla	r14		
    4a70:	0f 6f       	rlc	r15		
    4a72:	0e 5e       	rla	r14		
    4a74:	0f 6f       	rlc	r15		
    4a76:	0e f3       	and	#0,	r14	;r3 As==00
    4a78:	2f f3       	and	#2,	r15	;r3 As==10
    4a7a:	0c de       	bis	r14,	r12	
    4a7c:	0d df       	bis	r15,	r13	
    4a7e:	1e 44 6e ff 	mov	-146(r4),r14	;0xff6e(r4)
    4a82:	1f 44 70 ff 	mov	-144(r4),r15	;0xff70(r4)
    4a86:	8e 10       	swpb	r14		
    4a88:	8f 10       	swpb	r15		
    4a8a:	4e ef       	xor.b	r15,	r14	
    4a8c:	0e ef       	xor	r15,	r14	
    4a8e:	4f 4f       	mov.b	r15,	r15	
    4a90:	12 c3       	clrc			
    4a92:	0f 10       	rrc	r15		
    4a94:	0e 10       	rrc	r14		
    4a96:	12 c3       	clrc			
    4a98:	0f 10       	rrc	r15		
    4a9a:	0e 10       	rrc	r14		
    4a9c:	0e f3       	and	#0,	r14	;r3 As==00
    4a9e:	1f f3       	and	#1,	r15	;r3 As==01
    4aa0:	0c de       	bis	r14,	r12	
    4aa2:	0d df       	bis	r15,	r13	
                | ((Y >> 13) & 0x00002000) | ((Y >> 4) & 0x00001000)
    4aa4:	1e 44 72 ff 	mov	-142(r4),r14	;0xff72(r4)
    4aa8:	1f 44 74 ff 	mov	-140(r4),r15	;0xff74(r4)
    4aac:	8e 10       	swpb	r14		
    4aae:	8f 10       	swpb	r15		
    4ab0:	4e ef       	xor.b	r15,	r14	
    4ab2:	0e ef       	xor	r15,	r14	
    4ab4:	4f 4f       	mov.b	r15,	r15	
    4ab6:	12 c3       	clrc			
    4ab8:	0f 10       	rrc	r15		
    4aba:	0e 10       	rrc	r14		
    4abc:	12 c3       	clrc			
    4abe:	0f 10       	rrc	r15		
    4ac0:	0e 10       	rrc	r14		
    4ac2:	12 c3       	clrc			
    4ac4:	0f 10       	rrc	r15		
    4ac6:	0e 10       	rrc	r14		
    4ac8:	12 c3       	clrc			
    4aca:	0f 10       	rrc	r15		
    4acc:	0e 10       	rrc	r14		
    4ace:	12 c3       	clrc			
    4ad0:	0f 10       	rrc	r15		
    4ad2:	0e 10       	rrc	r14		
    4ad4:	3e f0 00 20 	and	#8192,	r14	;#0x2000
    4ad8:	0f f3       	and	#0,	r15	;r3 As==00
    4ada:	0c de       	bis	r14,	r12	
    4adc:	0d df       	bis	r15,	r13	
    4ade:	1e 44 72 ff 	mov	-142(r4),r14	;0xff72(r4)
    4ae2:	1f 44 74 ff 	mov	-140(r4),r15	;0xff74(r4)
    4ae6:	12 c3       	clrc			
    4ae8:	0f 10       	rrc	r15		
    4aea:	0e 10       	rrc	r14		
    4aec:	12 c3       	clrc			
    4aee:	0f 10       	rrc	r15		
    4af0:	0e 10       	rrc	r14		
    4af2:	12 c3       	clrc			
    4af4:	0f 10       	rrc	r15		
    4af6:	0e 10       	rrc	r14		
    4af8:	12 c3       	clrc			
    4afa:	0f 10       	rrc	r15		
    4afc:	0e 10       	rrc	r14		
    4afe:	3e f0 00 10 	and	#4096,	r14	;#0x1000
    4b02:	0f f3       	and	#0,	r15	;r3 As==00
    4b04:	0c de       	bis	r14,	r12	
    4b06:	0d df       	bis	r15,	r13	
                | ((Y << 6) & 0x00000800) | ((Y >> 1) & 0x00000400)
    4b08:	1e 44 72 ff 	mov	-142(r4),r14	;0xff72(r4)
    4b0c:	1f 44 74 ff 	mov	-140(r4),r15	;0xff74(r4)
    4b10:	0e 5e       	rla	r14		
    4b12:	0f 6f       	rlc	r15		
    4b14:	0e 5e       	rla	r14		
    4b16:	0f 6f       	rlc	r15		
    4b18:	0e 5e       	rla	r14		
    4b1a:	0f 6f       	rlc	r15		
    4b1c:	0e 5e       	rla	r14		
    4b1e:	0f 6f       	rlc	r15		
    4b20:	0e 5e       	rla	r14		
    4b22:	0f 6f       	rlc	r15		
    4b24:	0e 5e       	rla	r14		
    4b26:	0f 6f       	rlc	r15		
    4b28:	3e f0 00 08 	and	#2048,	r14	;#0x0800
    4b2c:	0f f3       	and	#0,	r15	;r3 As==00
    4b2e:	0c de       	bis	r14,	r12	
    4b30:	0d df       	bis	r15,	r13	
    4b32:	1e 44 72 ff 	mov	-142(r4),r14	;0xff72(r4)
    4b36:	1f 44 74 ff 	mov	-140(r4),r15	;0xff74(r4)
    4b3a:	12 c3       	clrc			
    4b3c:	0f 10       	rrc	r15		
    4b3e:	0e 10       	rrc	r14		
    4b40:	3e f0 00 04 	and	#1024,	r14	;#0x0400
    4b44:	0f f3       	and	#0,	r15	;r3 As==00
    4b46:	0c de       	bis	r14,	r12	
    4b48:	0d df       	bis	r15,	r13	
                | ((Y >> 14) & 0x00000200) | ((Y ) & 0x00000100)
    4b4a:	1e 44 72 ff 	mov	-142(r4),r14	;0xff72(r4)
    4b4e:	1f 44 74 ff 	mov	-140(r4),r15	;0xff74(r4)
    4b52:	8e 10       	swpb	r14		
    4b54:	8f 10       	swpb	r15		
    4b56:	4e ef       	xor.b	r15,	r14	
    4b58:	0e ef       	xor	r15,	r14	
    4b5a:	4f 4f       	mov.b	r15,	r15	
    4b5c:	12 c3       	clrc			
    4b5e:	0f 10       	rrc	r15		
    4b60:	0e 10       	rrc	r14		
    4b62:	12 c3       	clrc			
    4b64:	0f 10       	rrc	r15		
    4b66:	0e 10       	rrc	r14		
    4b68:	12 c3       	clrc			
    4b6a:	0f 10       	rrc	r15		
    4b6c:	0e 10       	rrc	r14		
    4b6e:	12 c3       	clrc			
    4b70:	0f 10       	rrc	r15		
    4b72:	0e 10       	rrc	r14		
    4b74:	12 c3       	clrc			
    4b76:	0f 10       	rrc	r15		
    4b78:	0e 10       	rrc	r14		
    4b7a:	12 c3       	clrc			
    4b7c:	0f 10       	rrc	r15		
    4b7e:	0e 10       	rrc	r14		
    4b80:	3e f0 00 02 	and	#512,	r14	;#0x0200
    4b84:	0f f3       	and	#0,	r15	;r3 As==00
    4b86:	0c de       	bis	r14,	r12	
    4b88:	0d df       	bis	r15,	r13	
    4b8a:	1e 44 72 ff 	mov	-142(r4),r14	;0xff72(r4)
    4b8e:	1f 44 74 ff 	mov	-140(r4),r15	;0xff74(r4)
    4b92:	3e f0 00 01 	and	#256,	r14	;#0x0100
    4b96:	0f f3       	and	#0,	r15	;r3 As==00
    4b98:	0c de       	bis	r14,	r12	
    4b9a:	0d df       	bis	r15,	r13	
                | ((Y >> 5) & 0x00000020) | ((Y >> 10) & 0x00000010)
    4b9c:	1e 44 72 ff 	mov	-142(r4),r14	;0xff72(r4)
    4ba0:	1f 44 74 ff 	mov	-140(r4),r15	;0xff74(r4)
    4ba4:	12 c3       	clrc			
    4ba6:	0f 10       	rrc	r15		
    4ba8:	0e 10       	rrc	r14		
    4baa:	12 c3       	clrc			
    4bac:	0f 10       	rrc	r15		
    4bae:	0e 10       	rrc	r14		
    4bb0:	12 c3       	clrc			
    4bb2:	0f 10       	rrc	r15		
    4bb4:	0e 10       	rrc	r14		
    4bb6:	12 c3       	clrc			
    4bb8:	0f 10       	rrc	r15		
    4bba:	0e 10       	rrc	r14		
    4bbc:	12 c3       	clrc			
    4bbe:	0f 10       	rrc	r15		
    4bc0:	0e 10       	rrc	r14		
    4bc2:	3e f0 20 00 	and	#32,	r14	;#0x0020
    4bc6:	0f f3       	and	#0,	r15	;r3 As==00
    4bc8:	0c de       	bis	r14,	r12	
    4bca:	0d df       	bis	r15,	r13	
    4bcc:	1e 44 72 ff 	mov	-142(r4),r14	;0xff72(r4)
    4bd0:	1f 44 74 ff 	mov	-140(r4),r15	;0xff74(r4)
    4bd4:	8e 10       	swpb	r14		
    4bd6:	8f 10       	swpb	r15		
    4bd8:	4e ef       	xor.b	r15,	r14	
    4bda:	0e ef       	xor	r15,	r14	
    4bdc:	4f 4f       	mov.b	r15,	r15	
    4bde:	12 c3       	clrc			
    4be0:	0f 10       	rrc	r15		
    4be2:	0e 10       	rrc	r14		
    4be4:	12 c3       	clrc			
    4be6:	0f 10       	rrc	r15		
    4be8:	0e 10       	rrc	r14		
    4bea:	3e f0 10 00 	and	#16,	r14	;#0x0010
    4bee:	0f f3       	and	#0,	r15	;r3 As==00
    4bf0:	0c de       	bis	r14,	r12	
    4bf2:	0d df       	bis	r15,	r13	
                | ((Y >> 3) & 0x00000008) | ((Y >> 18) & 0x00000004)
    4bf4:	1e 44 72 ff 	mov	-142(r4),r14	;0xff72(r4)
    4bf8:	1f 44 74 ff 	mov	-140(r4),r15	;0xff74(r4)
    4bfc:	12 c3       	clrc			
    4bfe:	0f 10       	rrc	r15		
    4c00:	0e 10       	rrc	r14		
    4c02:	12 c3       	clrc			
    4c04:	0f 10       	rrc	r15		
    4c06:	0e 10       	rrc	r14		
    4c08:	12 c3       	clrc			
    4c0a:	0f 10       	rrc	r15		
    4c0c:	0e 10       	rrc	r14		
    4c0e:	3e f2       	and	#8,	r14	;r2 As==11
    4c10:	0f f3       	and	#0,	r15	;r3 As==00
    4c12:	0c de       	bis	r14,	r12	
    4c14:	0d df       	bis	r15,	r13	
    4c16:	1e 44 74 ff 	mov	-140(r4),r14	;0xff74(r4)
    4c1a:	0f 43       	clr	r15		
    4c1c:	84 4e d6 ff 	mov	r14,	-42(r4)	;0xffd6(r4)
    4c20:	84 4f d8 ff 	mov	r15,	-40(r4)	;0xffd8(r4)
    4c24:	12 c3       	clrc			
    4c26:	14 10 d8 ff 	rrc	-40(r4)	;0xffd8(r4)
    4c2a:	14 10 d6 ff 	rrc	-42(r4)	;0xffd6(r4)
    4c2e:	12 c3       	clrc			
    4c30:	14 10 d8 ff 	rrc	-40(r4)	;0xffd8(r4)
    4c34:	14 10 d6 ff 	rrc	-42(r4)	;0xffd6(r4)
    4c38:	1e 44 d6 ff 	mov	-42(r4),r14	;0xffd6(r4)
    4c3c:	1f 44 d8 ff 	mov	-40(r4),r15	;0xffd8(r4)
    4c40:	2e f2       	and	#4,	r14	;r2 As==10
    4c42:	0f f3       	and	#0,	r15	;r3 As==00
    4c44:	0c de       	bis	r14,	r12	
    4c46:	0d df       	bis	r15,	r13	
                | ((Y >> 26) & 0x00000002) | ((Y >> 24) & 0x00000001);
    4c48:	1f 44 74 ff 	mov	-140(r4),r15	;0xff74(r4)
    4c4c:	0e 43       	clr	r14		
    4c4e:	8f 10       	swpb	r15		
    4c50:	4f 4f       	mov.b	r15,	r15	
    4c52:	84 4f da ff 	mov	r15,	-38(r4)	;0xffda(r4)
    4c56:	84 4e dc ff 	mov	r14,	-36(r4)	;0xffdc(r4)
    4c5a:	12 c3       	clrc			
    4c5c:	14 10 dc ff 	rrc	-36(r4)	;0xffdc(r4)
    4c60:	14 10 da ff 	rrc	-38(r4)	;0xffda(r4)
    4c64:	12 c3       	clrc			
    4c66:	14 10 dc ff 	rrc	-36(r4)	;0xffdc(r4)
    4c6a:	14 10 da ff 	rrc	-38(r4)	;0xffda(r4)
    4c6e:	1e 44 da ff 	mov	-38(r4),r14	;0xffda(r4)
    4c72:	1f 44 dc ff 	mov	-36(r4),r15	;0xffdc(r4)
    4c76:	2e f3       	and	#2,	r14	;r3 As==10
    4c78:	0f f3       	and	#0,	r15	;r3 As==00
    4c7a:	0c de       	bis	r14,	r12	
    4c7c:	0d df       	bis	r15,	r13	
    4c7e:	1f 44 74 ff 	mov	-140(r4),r15	;0xff74(r4)
    4c82:	0e 43       	clr	r14		
    4c84:	8f 10       	swpb	r15		
    4c86:	4f 4f       	mov.b	r15,	r15	
    4c88:	84 4f de ff 	mov	r15,	-34(r4)	;0xffde(r4)
    4c8c:	84 4e e0 ff 	mov	r14,	-32(r4)	;0xffe0(r4)
    4c90:	1e 44 de ff 	mov	-34(r4),r14	;0xffde(r4)
    4c94:	1f 44 e0 ff 	mov	-32(r4),r15	;0xffe0(r4)
    4c98:	1e f3       	and	#1,	r14	;r3 As==01
    4c9a:	0f f3       	and	#0,	r15	;r3 As==00
    4c9c:	0e dc       	bis	r12,	r14	
    4c9e:	0f dd       	bis	r13,	r15	
        {
            X = ((X << 2) | (X >> 26)) & 0x0FFFFFFF;
            Y = ((Y << 2) | (Y >> 26)) & 0x0FFFFFFF;
        }

        *SK++ = ((X << 4) & 0x24000000) | ((X << 28) & 0x10000000)
    4ca0:	1d 44 7a ff 	mov	-134(r4),r13	;0xff7a(r4)
    4ca4:	8d 4e 00 00 	mov	r14,	0(r13)	;0x0000(r13)
    4ca8:	8d 4f 02 00 	mov	r15,	2(r13)	;0x0002(r13)
    4cac:	a4 52 7a ff 	add	#4,	-134(r4);r2 As==10, 0xff7a(r4)
                | ((Y >> 14) & 0x00000200) | ((Y ) & 0x00000100)
                | ((Y >> 5) & 0x00000020) | ((Y >> 10) & 0x00000010)
                | ((Y >> 3) & 0x00000008) | ((Y >> 18) & 0x00000004)
                | ((Y >> 26) & 0x00000002) | ((Y >> 24) & 0x00000001);

        *SK++ = ((X << 15) & 0x20000000) | ((X << 17) & 0x10000000)
    4cb0:	1e 44 6e ff 	mov	-146(r4),r14	;0xff6e(r4)
    4cb4:	1f 44 70 ff 	mov	-144(r4),r15	;0xff70(r4)
    4cb8:	4f ee       	xor.b	r14,	r15	
    4cba:	0f ee       	xor	r14,	r15	
    4cbc:	8f 10       	swpb	r15		
    4cbe:	4e 4e       	mov.b	r14,	r14	
    4cc0:	8e 10       	swpb	r14		
    4cc2:	0e 5e       	rla	r14		
    4cc4:	0f 6f       	rlc	r15		
    4cc6:	0e 5e       	rla	r14		
    4cc8:	0f 6f       	rlc	r15		
    4cca:	0e 5e       	rla	r14		
    4ccc:	0f 6f       	rlc	r15		
    4cce:	0e 5e       	rla	r14		
    4cd0:	0f 6f       	rlc	r15		
    4cd2:	0e 5e       	rla	r14		
    4cd4:	0f 6f       	rlc	r15		
    4cd6:	0e 5e       	rla	r14		
    4cd8:	0f 6f       	rlc	r15		
    4cda:	0e 5e       	rla	r14		
    4cdc:	0f 6f       	rlc	r15		
    4cde:	0c 4e       	mov	r14,	r12	
    4ce0:	0d 4f       	mov	r15,	r13	
    4ce2:	0c f3       	and	#0,	r12	;r3 As==00
    4ce4:	3d f0 00 20 	and	#8192,	r13	;#0x2000
    4ce8:	1e 44 6e ff 	mov	-146(r4),r14	;0xff6e(r4)
    4cec:	0f 43       	clr	r15		
    4cee:	84 4f e2 ff 	mov	r15,	-30(r4)	;0xffe2(r4)
    4cf2:	84 4e e4 ff 	mov	r14,	-28(r4)	;0xffe4(r4)
    4cf6:	94 54 e2 ff 	rla	-30(r4)	;0xffe2(r4)
    4cfa:	e2 ff 
    4cfc:	94 64 e4 ff 	rlc	-28(r4)	;0xffe4(r4)
    4d00:	e4 ff 
    4d02:	1e 44 e2 ff 	mov	-30(r4),r14	;0xffe2(r4)
    4d06:	1f 44 e4 ff 	mov	-28(r4),r15	;0xffe4(r4)
    4d0a:	0e f3       	and	#0,	r14	;r3 As==00
    4d0c:	3f f0 00 10 	and	#4096,	r15	;#0x1000
    4d10:	0c de       	bis	r14,	r12	
    4d12:	0d df       	bis	r15,	r13	
                | ((X << 10) & 0x08000000) | ((X << 22) & 0x04000000)
    4d14:	1e 44 6e ff 	mov	-146(r4),r14	;0xff6e(r4)
    4d18:	1f 44 70 ff 	mov	-144(r4),r15	;0xff70(r4)
    4d1c:	4f ee       	xor.b	r14,	r15	
    4d1e:	0f ee       	xor	r14,	r15	
    4d20:	8f 10       	swpb	r15		
    4d22:	4e 4e       	mov.b	r14,	r14	
    4d24:	8e 10       	swpb	r14		
    4d26:	0e 5e       	rla	r14		
    4d28:	0f 6f       	rlc	r15		
    4d2a:	0e 5e       	rla	r14		
    4d2c:	0f 6f       	rlc	r15		
    4d2e:	0e f3       	and	#0,	r14	;r3 As==00
    4d30:	3f f0 00 08 	and	#2048,	r15	;#0x0800
    4d34:	0c de       	bis	r14,	r12	
    4d36:	0d df       	bis	r15,	r13	
    4d38:	1e 44 6e ff 	mov	-146(r4),r14	;0xff6e(r4)
    4d3c:	0f 43       	clr	r15		
    4d3e:	84 4f e6 ff 	mov	r15,	-26(r4)	;0xffe6(r4)
    4d42:	84 4e e8 ff 	mov	r14,	-24(r4)	;0xffe8(r4)
    4d46:	94 54 e6 ff 	rla	-26(r4)	;0xffe6(r4)
    4d4a:	e6 ff 
    4d4c:	94 64 e8 ff 	rlc	-24(r4)	;0xffe8(r4)
    4d50:	e8 ff 
    4d52:	94 54 e6 ff 	rla	-26(r4)	;0xffe6(r4)
    4d56:	e6 ff 
    4d58:	94 64 e8 ff 	rlc	-24(r4)	;0xffe8(r4)
    4d5c:	e8 ff 
    4d5e:	94 54 e6 ff 	rla	-26(r4)	;0xffe6(r4)
    4d62:	e6 ff 
    4d64:	94 64 e8 ff 	rlc	-24(r4)	;0xffe8(r4)
    4d68:	e8 ff 
    4d6a:	94 54 e6 ff 	rla	-26(r4)	;0xffe6(r4)
    4d6e:	e6 ff 
    4d70:	94 64 e8 ff 	rlc	-24(r4)	;0xffe8(r4)
    4d74:	e8 ff 
    4d76:	94 54 e6 ff 	rla	-26(r4)	;0xffe6(r4)
    4d7a:	e6 ff 
    4d7c:	94 64 e8 ff 	rlc	-24(r4)	;0xffe8(r4)
    4d80:	e8 ff 
    4d82:	94 54 e6 ff 	rla	-26(r4)	;0xffe6(r4)
    4d86:	e6 ff 
    4d88:	94 64 e8 ff 	rlc	-24(r4)	;0xffe8(r4)
    4d8c:	e8 ff 
    4d8e:	1e 44 e6 ff 	mov	-26(r4),r14	;0xffe6(r4)
    4d92:	1f 44 e8 ff 	mov	-24(r4),r15	;0xffe8(r4)
    4d96:	0e f3       	and	#0,	r14	;r3 As==00
    4d98:	3f f0 00 04 	and	#1024,	r15	;#0x0400
    4d9c:	0c de       	bis	r14,	r12	
    4d9e:	0d df       	bis	r15,	r13	
                | ((X >> 2) & 0x02000000) | ((X << 1) & 0x01000000)
    4da0:	1e 44 6e ff 	mov	-146(r4),r14	;0xff6e(r4)
    4da4:	1f 44 70 ff 	mov	-144(r4),r15	;0xff70(r4)
    4da8:	12 c3       	clrc			
    4daa:	0f 10       	rrc	r15		
    4dac:	0e 10       	rrc	r14		
    4dae:	12 c3       	clrc			
    4db0:	0f 10       	rrc	r15		
    4db2:	0e 10       	rrc	r14		
    4db4:	0e f3       	and	#0,	r14	;r3 As==00
    4db6:	3f f0 00 02 	and	#512,	r15	;#0x0200
    4dba:	0c de       	bis	r14,	r12	
    4dbc:	0d df       	bis	r15,	r13	
    4dbe:	1e 44 6e ff 	mov	-146(r4),r14	;0xff6e(r4)
    4dc2:	1f 44 70 ff 	mov	-144(r4),r15	;0xff70(r4)
    4dc6:	0e 5e       	rla	r14		
    4dc8:	0f 6f       	rlc	r15		
    4dca:	0e f3       	and	#0,	r14	;r3 As==00
    4dcc:	3f f0 00 01 	and	#256,	r15	;#0x0100
    4dd0:	0c de       	bis	r14,	r12	
    4dd2:	0d df       	bis	r15,	r13	
                | ((X << 16) & 0x00200000) | ((X << 11) & 0x00100000)
    4dd4:	1e 44 6e ff 	mov	-146(r4),r14	;0xff6e(r4)
    4dd8:	0f 43       	clr	r15		
    4dda:	84 4f ea ff 	mov	r15,	-22(r4)	;0xffea(r4)
    4dde:	84 4e ec ff 	mov	r14,	-20(r4)	;0xffec(r4)
    4de2:	1e 44 ea ff 	mov	-22(r4),r14	;0xffea(r4)
    4de6:	1f 44 ec ff 	mov	-20(r4),r15	;0xffec(r4)
    4dea:	0e f3       	and	#0,	r14	;r3 As==00
    4dec:	3f f0 20 00 	and	#32,	r15	;#0x0020
    4df0:	0c de       	bis	r14,	r12	
    4df2:	0d df       	bis	r15,	r13	
    4df4:	1e 44 6e ff 	mov	-146(r4),r14	;0xff6e(r4)
    4df8:	1f 44 70 ff 	mov	-144(r4),r15	;0xff70(r4)
    4dfc:	4f ee       	xor.b	r14,	r15	
    4dfe:	0f ee       	xor	r14,	r15	
    4e00:	8f 10       	swpb	r15		
    4e02:	4e 4e       	mov.b	r14,	r14	
    4e04:	8e 10       	swpb	r14		
    4e06:	0e 5e       	rla	r14		
    4e08:	0f 6f       	rlc	r15		
    4e0a:	0e 5e       	rla	r14		
    4e0c:	0f 6f       	rlc	r15		
    4e0e:	0e 5e       	rla	r14		
    4e10:	0f 6f       	rlc	r15		
    4e12:	0e f3       	and	#0,	r14	;r3 As==00
    4e14:	3f f0 10 00 	and	#16,	r15	;#0x0010
    4e18:	0c de       	bis	r14,	r12	
    4e1a:	0d df       	bis	r15,	r13	
                | ((X << 3) & 0x00080000) | ((X >> 6) & 0x00040000)
    4e1c:	1e 44 6e ff 	mov	-146(r4),r14	;0xff6e(r4)
    4e20:	1f 44 70 ff 	mov	-144(r4),r15	;0xff70(r4)
    4e24:	0e 5e       	rla	r14		
    4e26:	0f 6f       	rlc	r15		
    4e28:	0e 5e       	rla	r14		
    4e2a:	0f 6f       	rlc	r15		
    4e2c:	0e 5e       	rla	r14		
    4e2e:	0f 6f       	rlc	r15		
    4e30:	0e f3       	and	#0,	r14	;r3 As==00
    4e32:	3f f2       	and	#8,	r15	;r2 As==11
    4e34:	0c de       	bis	r14,	r12	
    4e36:	0d df       	bis	r15,	r13	
    4e38:	1e 44 6e ff 	mov	-146(r4),r14	;0xff6e(r4)
    4e3c:	1f 44 70 ff 	mov	-144(r4),r15	;0xff70(r4)
    4e40:	12 c3       	clrc			
    4e42:	0f 10       	rrc	r15		
    4e44:	0e 10       	rrc	r14		
    4e46:	12 c3       	clrc			
    4e48:	0f 10       	rrc	r15		
    4e4a:	0e 10       	rrc	r14		
    4e4c:	12 c3       	clrc			
    4e4e:	0f 10       	rrc	r15		
    4e50:	0e 10       	rrc	r14		
    4e52:	12 c3       	clrc			
    4e54:	0f 10       	rrc	r15		
    4e56:	0e 10       	rrc	r14		
    4e58:	12 c3       	clrc			
    4e5a:	0f 10       	rrc	r15		
    4e5c:	0e 10       	rrc	r14		
    4e5e:	12 c3       	clrc			
    4e60:	0f 10       	rrc	r15		
    4e62:	0e 10       	rrc	r14		
    4e64:	0e f3       	and	#0,	r14	;r3 As==00
    4e66:	2f f2       	and	#4,	r15	;r2 As==10
    4e68:	0c de       	bis	r14,	r12	
    4e6a:	0d df       	bis	r15,	r13	
                | ((X << 15) & 0x00020000) | ((X >> 4) & 0x00010000)
    4e6c:	1e 44 6e ff 	mov	-146(r4),r14	;0xff6e(r4)
    4e70:	1f 44 70 ff 	mov	-144(r4),r15	;0xff70(r4)
    4e74:	4f ee       	xor.b	r14,	r15	
    4e76:	0f ee       	xor	r14,	r15	
    4e78:	8f 10       	swpb	r15		
    4e7a:	4e 4e       	mov.b	r14,	r14	
    4e7c:	8e 10       	swpb	r14		
    4e7e:	0e 5e       	rla	r14		
    4e80:	0f 6f       	rlc	r15		
    4e82:	0e 5e       	rla	r14		
    4e84:	0f 6f       	rlc	r15		
    4e86:	0e 5e       	rla	r14		
    4e88:	0f 6f       	rlc	r15		
    4e8a:	0e 5e       	rla	r14		
    4e8c:	0f 6f       	rlc	r15		
    4e8e:	0e 5e       	rla	r14		
    4e90:	0f 6f       	rlc	r15		
    4e92:	0e 5e       	rla	r14		
    4e94:	0f 6f       	rlc	r15		
    4e96:	0e 5e       	rla	r14		
    4e98:	0f 6f       	rlc	r15		
    4e9a:	0e f3       	and	#0,	r14	;r3 As==00
    4e9c:	2f f3       	and	#2,	r15	;r3 As==10
    4e9e:	0c de       	bis	r14,	r12	
    4ea0:	0d df       	bis	r15,	r13	
    4ea2:	1e 44 6e ff 	mov	-146(r4),r14	;0xff6e(r4)
    4ea6:	1f 44 70 ff 	mov	-144(r4),r15	;0xff70(r4)
    4eaa:	12 c3       	clrc			
    4eac:	0f 10       	rrc	r15		
    4eae:	0e 10       	rrc	r14		
    4eb0:	12 c3       	clrc			
    4eb2:	0f 10       	rrc	r15		
    4eb4:	0e 10       	rrc	r14		
    4eb6:	12 c3       	clrc			
    4eb8:	0f 10       	rrc	r15		
    4eba:	0e 10       	rrc	r14		
    4ebc:	12 c3       	clrc			
    4ebe:	0f 10       	rrc	r15		
    4ec0:	0e 10       	rrc	r14		
    4ec2:	0e f3       	and	#0,	r14	;r3 As==00
    4ec4:	1f f3       	and	#1,	r15	;r3 As==01
    4ec6:	0c de       	bis	r14,	r12	
    4ec8:	0d df       	bis	r15,	r13	
                | ((Y >> 2) & 0x00002000) | ((Y << 8) & 0x00001000)
    4eca:	1e 44 72 ff 	mov	-142(r4),r14	;0xff72(r4)
    4ece:	1f 44 74 ff 	mov	-140(r4),r15	;0xff74(r4)
    4ed2:	12 c3       	clrc			
    4ed4:	0f 10       	rrc	r15		
    4ed6:	0e 10       	rrc	r14		
    4ed8:	12 c3       	clrc			
    4eda:	0f 10       	rrc	r15		
    4edc:	0e 10       	rrc	r14		
    4ede:	3e f0 00 20 	and	#8192,	r14	;#0x2000
    4ee2:	0f f3       	and	#0,	r15	;r3 As==00
    4ee4:	0c de       	bis	r14,	r12	
    4ee6:	0d df       	bis	r15,	r13	
    4ee8:	1e 44 72 ff 	mov	-142(r4),r14	;0xff72(r4)
    4eec:	1f 44 74 ff 	mov	-140(r4),r15	;0xff74(r4)
    4ef0:	4f ee       	xor.b	r14,	r15	
    4ef2:	0f ee       	xor	r14,	r15	
    4ef4:	8f 10       	swpb	r15		
    4ef6:	4e 4e       	mov.b	r14,	r14	
    4ef8:	8e 10       	swpb	r14		
    4efa:	3e f0 00 10 	and	#4096,	r14	;#0x1000
    4efe:	0f f3       	and	#0,	r15	;r3 As==00
    4f00:	0c de       	bis	r14,	r12	
    4f02:	0d df       	bis	r15,	r13	
                | ((Y >> 14) & 0x00000808) | ((Y >> 9) & 0x00000400)
    4f04:	1e 44 72 ff 	mov	-142(r4),r14	;0xff72(r4)
    4f08:	1f 44 74 ff 	mov	-140(r4),r15	;0xff74(r4)
    4f0c:	8e 10       	swpb	r14		
    4f0e:	8f 10       	swpb	r15		
    4f10:	4e ef       	xor.b	r15,	r14	
    4f12:	0e ef       	xor	r15,	r14	
    4f14:	4f 4f       	mov.b	r15,	r15	
    4f16:	12 c3       	clrc			
    4f18:	0f 10       	rrc	r15		
    4f1a:	0e 10       	rrc	r14		
    4f1c:	12 c3       	clrc			
    4f1e:	0f 10       	rrc	r15		
    4f20:	0e 10       	rrc	r14		
    4f22:	12 c3       	clrc			
    4f24:	0f 10       	rrc	r15		
    4f26:	0e 10       	rrc	r14		
    4f28:	12 c3       	clrc			
    4f2a:	0f 10       	rrc	r15		
    4f2c:	0e 10       	rrc	r14		
    4f2e:	12 c3       	clrc			
    4f30:	0f 10       	rrc	r15		
    4f32:	0e 10       	rrc	r14		
    4f34:	12 c3       	clrc			
    4f36:	0f 10       	rrc	r15		
    4f38:	0e 10       	rrc	r14		
    4f3a:	3e f0 08 08 	and	#2056,	r14	;#0x0808
    4f3e:	0f f3       	and	#0,	r15	;r3 As==00
    4f40:	0c de       	bis	r14,	r12	
    4f42:	0d df       	bis	r15,	r13	
    4f44:	1e 44 72 ff 	mov	-142(r4),r14	;0xff72(r4)
    4f48:	1f 44 74 ff 	mov	-140(r4),r15	;0xff74(r4)
    4f4c:	8e 10       	swpb	r14		
    4f4e:	8f 10       	swpb	r15		
    4f50:	4e ef       	xor.b	r15,	r14	
    4f52:	0e ef       	xor	r15,	r14	
    4f54:	4f 4f       	mov.b	r15,	r15	
    4f56:	12 c3       	clrc			
    4f58:	0f 10       	rrc	r15		
    4f5a:	0e 10       	rrc	r14		
    4f5c:	3e f0 00 04 	and	#1024,	r14	;#0x0400
    4f60:	0f f3       	and	#0,	r15	;r3 As==00
    4f62:	0c de       	bis	r14,	r12	
    4f64:	0d df       	bis	r15,	r13	
                | ((Y ) & 0x00000200) | ((Y << 7) & 0x00000100)
    4f66:	1e 44 72 ff 	mov	-142(r4),r14	;0xff72(r4)
    4f6a:	1f 44 74 ff 	mov	-140(r4),r15	;0xff74(r4)
    4f6e:	3e f0 00 02 	and	#512,	r14	;#0x0200
    4f72:	0f f3       	and	#0,	r15	;r3 As==00
    4f74:	0c de       	bis	r14,	r12	
    4f76:	0d df       	bis	r15,	r13	
    4f78:	1e 44 72 ff 	mov	-142(r4),r14	;0xff72(r4)
    4f7c:	1f 44 74 ff 	mov	-140(r4),r15	;0xff74(r4)
    4f80:	0e 5e       	rla	r14		
    4f82:	0f 6f       	rlc	r15		
    4f84:	0e 5e       	rla	r14		
    4f86:	0f 6f       	rlc	r15		
    4f88:	0e 5e       	rla	r14		
    4f8a:	0f 6f       	rlc	r15		
    4f8c:	0e 5e       	rla	r14		
    4f8e:	0f 6f       	rlc	r15		
    4f90:	0e 5e       	rla	r14		
    4f92:	0f 6f       	rlc	r15		
    4f94:	0e 5e       	rla	r14		
    4f96:	0f 6f       	rlc	r15		
    4f98:	0e 5e       	rla	r14		
    4f9a:	0f 6f       	rlc	r15		
    4f9c:	3e f0 00 01 	and	#256,	r14	;#0x0100
    4fa0:	0f f3       	and	#0,	r15	;r3 As==00
    4fa2:	0c de       	bis	r14,	r12	
    4fa4:	0d df       	bis	r15,	r13	
                | ((Y >> 7) & 0x00000020) | ((Y >> 3) & 0x00000011)
    4fa6:	1e 44 72 ff 	mov	-142(r4),r14	;0xff72(r4)
    4faa:	1f 44 74 ff 	mov	-140(r4),r15	;0xff74(r4)
    4fae:	12 c3       	clrc			
    4fb0:	0f 10       	rrc	r15		
    4fb2:	0e 10       	rrc	r14		
    4fb4:	12 c3       	clrc			
    4fb6:	0f 10       	rrc	r15		
    4fb8:	0e 10       	rrc	r14		
    4fba:	12 c3       	clrc			
    4fbc:	0f 10       	rrc	r15		
    4fbe:	0e 10       	rrc	r14		
    4fc0:	12 c3       	clrc			
    4fc2:	0f 10       	rrc	r15		
    4fc4:	0e 10       	rrc	r14		
    4fc6:	12 c3       	clrc			
    4fc8:	0f 10       	rrc	r15		
    4fca:	0e 10       	rrc	r14		
    4fcc:	12 c3       	clrc			
    4fce:	0f 10       	rrc	r15		
    4fd0:	0e 10       	rrc	r14		
    4fd2:	12 c3       	clrc			
    4fd4:	0f 10       	rrc	r15		
    4fd6:	0e 10       	rrc	r14		
    4fd8:	3e f0 20 00 	and	#32,	r14	;#0x0020
    4fdc:	0f f3       	and	#0,	r15	;r3 As==00
    4fde:	0c de       	bis	r14,	r12	
    4fe0:	0d df       	bis	r15,	r13	
    4fe2:	1e 44 72 ff 	mov	-142(r4),r14	;0xff72(r4)
    4fe6:	1f 44 74 ff 	mov	-140(r4),r15	;0xff74(r4)
    4fea:	12 c3       	clrc			
    4fec:	0f 10       	rrc	r15		
    4fee:	0e 10       	rrc	r14		
    4ff0:	12 c3       	clrc			
    4ff2:	0f 10       	rrc	r15		
    4ff4:	0e 10       	rrc	r14		
    4ff6:	12 c3       	clrc			
    4ff8:	0f 10       	rrc	r15		
    4ffa:	0e 10       	rrc	r14		
    4ffc:	3e f0 11 00 	and	#17,	r14	;#0x0011
    5000:	0f f3       	and	#0,	r15	;r3 As==00
    5002:	0c de       	bis	r14,	r12	
    5004:	0d df       	bis	r15,	r13	
                | ((Y << 2) & 0x00000004) | ((Y >> 21) & 0x00000002);
    5006:	1e 44 72 ff 	mov	-142(r4),r14	;0xff72(r4)
    500a:	1f 44 74 ff 	mov	-140(r4),r15	;0xff74(r4)
    500e:	0e 5e       	rla	r14		
    5010:	0f 6f       	rlc	r15		
    5012:	0e 5e       	rla	r14		
    5014:	0f 6f       	rlc	r15		
    5016:	2e f2       	and	#4,	r14	;r2 As==10
    5018:	0f f3       	and	#0,	r15	;r3 As==00
    501a:	0c de       	bis	r14,	r12	
    501c:	0d df       	bis	r15,	r13	
    501e:	1e 44 74 ff 	mov	-140(r4),r14	;0xff74(r4)
    5022:	0f 43       	clr	r15		
    5024:	84 4e ee ff 	mov	r14,	-18(r4)	;0xffee(r4)
    5028:	84 4f f0 ff 	mov	r15,	-16(r4)	;0xfff0(r4)
    502c:	12 c3       	clrc			
    502e:	14 10 f0 ff 	rrc	-16(r4)	;0xfff0(r4)
    5032:	14 10 ee ff 	rrc	-18(r4)	;0xffee(r4)
    5036:	12 c3       	clrc			
    5038:	14 10 f0 ff 	rrc	-16(r4)	;0xfff0(r4)
    503c:	14 10 ee ff 	rrc	-18(r4)	;0xffee(r4)
    5040:	12 c3       	clrc			
    5042:	14 10 f0 ff 	rrc	-16(r4)	;0xfff0(r4)
    5046:	14 10 ee ff 	rrc	-18(r4)	;0xffee(r4)
    504a:	12 c3       	clrc			
    504c:	14 10 f0 ff 	rrc	-16(r4)	;0xfff0(r4)
    5050:	14 10 ee ff 	rrc	-18(r4)	;0xffee(r4)
    5054:	12 c3       	clrc			
    5056:	14 10 f0 ff 	rrc	-16(r4)	;0xfff0(r4)
    505a:	14 10 ee ff 	rrc	-18(r4)	;0xffee(r4)
    505e:	1e 44 ee ff 	mov	-18(r4),r14	;0xffee(r4)
    5062:	1f 44 f0 ff 	mov	-16(r4),r15	;0xfff0(r4)
    5066:	2e f3       	and	#2,	r14	;r3 As==10
    5068:	0f f3       	and	#0,	r15	;r3 As==00
    506a:	0e dc       	bis	r12,	r14	
    506c:	0f dd       	bis	r13,	r15	
                | ((Y >> 14) & 0x00000200) | ((Y ) & 0x00000100)
                | ((Y >> 5) & 0x00000020) | ((Y >> 10) & 0x00000010)
                | ((Y >> 3) & 0x00000008) | ((Y >> 18) & 0x00000004)
                | ((Y >> 26) & 0x00000002) | ((Y >> 24) & 0x00000001);

        *SK++ = ((X << 15) & 0x20000000) | ((X << 17) & 0x10000000)
    506e:	1d 44 7a ff 	mov	-134(r4),r13	;0xff7a(r4)
    5072:	8d 4e 00 00 	mov	r14,	0(r13)	;0x0000(r13)
    5076:	8d 4f 02 00 	mov	r15,	2(r13)	;0x0002(r13)
    507a:	a4 52 7a ff 	add	#4,	-134(r4);r2 As==10, 0xff7a(r4)
    Y &= 0x0FFFFFFF;

    /*
* calculate subkeys
*/
    for( i = 0; i < 16; i++ )
    507e:	94 53 6c ff 	inc	-148(r4)	;0xff6c(r4)
    5082:	b4 90 10 00 	cmp	#16,	-148(r4);#0x0010, 0xff6c(r4)
    5086:	6c ff 
    5088:	02 34       	jge	$+6      	;abs 0x508e
    508a:	30 40 9e 47 	br	#0x479e	
                | ((Y >> 14) & 0x00000808) | ((Y >> 9) & 0x00000400)
                | ((Y ) & 0x00000200) | ((Y << 7) & 0x00000100)
                | ((Y >> 7) & 0x00000020) | ((Y >> 3) & 0x00000011)
                | ((Y << 2) & 0x00000004) | ((Y >> 21) & 0x00000002);
    }
}
    508e:	31 50 86 00 	add	#134,	r1	;#0x0086
    5092:	34 41       	pop	r4		
    5094:	36 41       	pop	r6		
    5096:	37 41       	pop	r7		
    5098:	38 41       	pop	r8		
    509a:	39 41       	pop	r9		
    509c:	3a 41       	pop	r10		
    509e:	3b 41       	pop	r11		
    50a0:	30 41       	ret			

000050a2 <Encrypt>:


void Encrypt( u32 SK[32],
                    const unsigned char input[8],
                    unsigned char output[8] )
{
    50a2:	0b 12       	push	r11		
    50a4:	0a 12       	push	r10		
    50a6:	09 12       	push	r9		
    50a8:	08 12       	push	r8		
    50aa:	07 12       	push	r7		
    50ac:	06 12       	push	r6		
    50ae:	05 12       	push	r5		
    50b0:	04 12       	push	r4		
    50b2:	04 41       	mov	r1,	r4	
    50b4:	34 50 10 00 	add	#16,	r4	;#0x0010
    50b8:	31 50 3c ff 	add	#-196,	r1	;#0xff3c
    50bc:	84 4f 3a ff 	mov	r15,	-198(r4);0xff3a(r4)
    50c0:	84 4e 3c ff 	mov	r14,	-196(r4);0xff3c(r4)
    50c4:	84 4d 3e ff 	mov	r13,	-194(r4);0xff3e(r4)
    int i;
    u32 X, Y, T;


    GET_UINT32_BE( X, input, 0 );
    50c8:	1f 44 3c ff 	mov	-196(r4),r15	;0xff3c(r4)
    50cc:	6f 4f       	mov.b	@r15,	r15	
    50ce:	4b 4f       	mov.b	r15,	r11	
    50d0:	0c 43       	clr	r12		
    50d2:	0f 4b       	mov	r11,	r15	
    50d4:	0e 43       	clr	r14		
    50d6:	4f 4f       	mov.b	r15,	r15	
    50d8:	8f 10       	swpb	r15		
    50da:	84 4e 40 ff 	mov	r14,	-192(r4);0xff40(r4)
    50de:	84 4f 42 ff 	mov	r15,	-190(r4);0xff42(r4)
    50e2:	1f 44 3c ff 	mov	-196(r4),r15	;0xff3c(r4)
    50e6:	1f 53       	inc	r15		
    50e8:	6f 4f       	mov.b	@r15,	r15	
    50ea:	45 4f       	mov.b	r15,	r5	
    50ec:	06 43       	clr	r6		
    50ee:	0e 45       	mov	r5,	r14	
    50f0:	0f 43       	clr	r15		
    50f2:	09 4f       	mov	r15,	r9	
    50f4:	0a 4e       	mov	r14,	r10	
    50f6:	1c 44 40 ff 	mov	-192(r4),r12	;0xff40(r4)
    50fa:	1d 44 42 ff 	mov	-190(r4),r13	;0xff42(r4)
    50fe:	0c d9       	bis	r9,	r12	
    5100:	0d da       	bis	r10,	r13	
    5102:	1f 44 3c ff 	mov	-196(r4),r15	;0xff3c(r4)
    5106:	2f 53       	incd	r15		
    5108:	6f 4f       	mov.b	@r15,	r15	
    510a:	47 4f       	mov.b	r15,	r7	
    510c:	08 43       	clr	r8		
    510e:	0e 47       	mov	r7,	r14	
    5110:	0f 48       	mov	r8,	r15	
    5112:	4f ee       	xor.b	r14,	r15	
    5114:	0f ee       	xor	r14,	r15	
    5116:	8f 10       	swpb	r15		
    5118:	4e 4e       	mov.b	r14,	r14	
    511a:	8e 10       	swpb	r14		
    511c:	0a 4c       	mov	r12,	r10	
    511e:	0b 4d       	mov	r13,	r11	
    5120:	0a de       	bis	r14,	r10	
    5122:	0b df       	bis	r15,	r11	
    5124:	0d 4a       	mov	r10,	r13	
    5126:	0e 4b       	mov	r11,	r14	
    5128:	1f 44 3c ff 	mov	-196(r4),r15	;0xff3c(r4)
    512c:	3f 50 03 00 	add	#3,	r15	;#0x0003
    5130:	6f 4f       	mov.b	@r15,	r15	
    5132:	4f 4f       	mov.b	r15,	r15	
    5134:	84 4f 44 ff 	mov	r15,	-188(r4);0xff44(r4)
    5138:	84 43 46 ff 	mov	#0,	-186(r4);r3 As==00, 0xff46(r4)
    513c:	1b 44 44 ff 	mov	-188(r4),r11	;0xff44(r4)
    5140:	1c 44 46 ff 	mov	-186(r4),r12	;0xff46(r4)
    5144:	0b dd       	bis	r13,	r11	
    5146:	0c de       	bis	r14,	r12	
    5148:	84 4b 2e ff 	mov	r11,	-210(r4);0xff2e(r4)
    514c:	84 4c 30 ff 	mov	r12,	-208(r4);0xff30(r4)
    GET_UINT32_BE( Y, input, 4 );
    5150:	1f 44 3c ff 	mov	-196(r4),r15	;0xff3c(r4)
    5154:	2f 52       	add	#4,	r15	;r2 As==10
    5156:	6f 4f       	mov.b	@r15,	r15	
    5158:	4f 4f       	mov.b	r15,	r15	
    515a:	84 4f 48 ff 	mov	r15,	-184(r4);0xff48(r4)
    515e:	84 43 4a ff 	mov	#0,	-182(r4);r3 As==00, 0xff4a(r4)
    5162:	1f 44 48 ff 	mov	-184(r4),r15	;0xff48(r4)
    5166:	0e 43       	clr	r14		
    5168:	4f 4f       	mov.b	r15,	r15	
    516a:	8f 10       	swpb	r15		
    516c:	84 4e 4c ff 	mov	r14,	-180(r4);0xff4c(r4)
    5170:	84 4f 4e ff 	mov	r15,	-178(r4);0xff4e(r4)
    5174:	1f 44 3c ff 	mov	-196(r4),r15	;0xff3c(r4)
    5178:	3f 50 05 00 	add	#5,	r15	;#0x0005
    517c:	6f 4f       	mov.b	@r15,	r15	
    517e:	4f 4f       	mov.b	r15,	r15	
    5180:	84 4f 50 ff 	mov	r15,	-176(r4);0xff50(r4)
    5184:	84 43 52 ff 	mov	#0,	-174(r4);r3 As==00, 0xff52(r4)
    5188:	1e 44 50 ff 	mov	-176(r4),r14	;0xff50(r4)
    518c:	0f 43       	clr	r15		
    518e:	84 4f 54 ff 	mov	r15,	-172(r4);0xff54(r4)
    5192:	84 4e 56 ff 	mov	r14,	-170(r4);0xff56(r4)
    5196:	1c 44 4c ff 	mov	-180(r4),r12	;0xff4c(r4)
    519a:	1d 44 4e ff 	mov	-178(r4),r13	;0xff4e(r4)
    519e:	1c d4 54 ff 	bis	-172(r4),r12	;0xff54(r4)
    51a2:	1d d4 56 ff 	bis	-170(r4),r13	;0xff56(r4)
    51a6:	1f 44 3c ff 	mov	-196(r4),r15	;0xff3c(r4)
    51aa:	3f 50 06 00 	add	#6,	r15	;#0x0006
    51ae:	6f 4f       	mov.b	@r15,	r15	
    51b0:	4f 4f       	mov.b	r15,	r15	
    51b2:	84 4f 58 ff 	mov	r15,	-168(r4);0xff58(r4)
    51b6:	84 43 5a ff 	mov	#0,	-166(r4);r3 As==00, 0xff5a(r4)
    51ba:	1e 44 58 ff 	mov	-168(r4),r14	;0xff58(r4)
    51be:	1f 44 5a ff 	mov	-166(r4),r15	;0xff5a(r4)
    51c2:	4f ee       	xor.b	r14,	r15	
    51c4:	0f ee       	xor	r14,	r15	
    51c6:	8f 10       	swpb	r15		
    51c8:	4e 4e       	mov.b	r14,	r14	
    51ca:	8e 10       	swpb	r14		
    51cc:	0a 4c       	mov	r12,	r10	
    51ce:	0b 4d       	mov	r13,	r11	
    51d0:	0a de       	bis	r14,	r10	
    51d2:	0b df       	bis	r15,	r11	
    51d4:	0d 4a       	mov	r10,	r13	
    51d6:	0e 4b       	mov	r11,	r14	
    51d8:	1f 44 3c ff 	mov	-196(r4),r15	;0xff3c(r4)
    51dc:	3f 50 07 00 	add	#7,	r15	;#0x0007
    51e0:	6f 4f       	mov.b	@r15,	r15	
    51e2:	4f 4f       	mov.b	r15,	r15	
    51e4:	84 4f 5c ff 	mov	r15,	-164(r4);0xff5c(r4)
    51e8:	84 43 5e ff 	mov	#0,	-162(r4);r3 As==00, 0xff5e(r4)
    51ec:	1b 44 5c ff 	mov	-164(r4),r11	;0xff5c(r4)
    51f0:	1c 44 5e ff 	mov	-162(r4),r12	;0xff5e(r4)
    51f4:	0b dd       	bis	r13,	r11	
    51f6:	0c de       	bis	r14,	r12	
    51f8:	84 4b 32 ff 	mov	r11,	-206(r4);0xff32(r4)
    51fc:	84 4c 34 ff 	mov	r12,	-204(r4);0xff34(r4)

    for( i = 0; i < 8; i++ )
    5200:	84 43 2c ff 	mov	#0,	-212(r4);r3 As==00, 0xff2c(r4)
    5204:	30 40 e0 66 	br	#0x66e0	
    {
        DES_ROUND( Y, X );
    5208:	1f 44 32 ff 	mov	-206(r4),r15	;0xff32(r4)
    520c:	0f 5f       	rla	r15		
    520e:	0f 43       	clr	r15		
    5210:	0f 6f       	rlc	r15		
    5212:	0e 4f       	mov	r15,	r14	
    5214:	1f 44 34 ff 	mov	-204(r4),r15	;0xff34(r4)
    5218:	0f 5f       	rla	r15		
    521a:	0c 4e       	mov	r14,	r12	
    521c:	0c df       	bis	r15,	r12	
    521e:	84 4c 62 ff 	mov	r12,	-158(r4);0xff62(r4)
    5222:	1f 44 34 ff 	mov	-204(r4),r15	;0xff34(r4)
    5226:	0f 5f       	rla	r15		
    5228:	0f 43       	clr	r15		
    522a:	0f 6f       	rlc	r15		
    522c:	0e 4f       	mov	r15,	r14	
    522e:	1f 44 32 ff 	mov	-206(r4),r15	;0xff32(r4)
    5232:	0f 5f       	rla	r15		
    5234:	0d 4e       	mov	r14,	r13	
    5236:	0d df       	bis	r15,	r13	
    5238:	84 4d 60 ff 	mov	r13,	-160(r4);0xff60(r4)
    523c:	1f 44 3a ff 	mov	-198(r4),r15	;0xff3a(r4)
    5240:	2e 4f       	mov	@r15,	r14	
    5242:	1f 4f 02 00 	mov	2(r15),	r15	;0x0002(r15)
    5246:	1e e4 60 ff 	xor	-160(r4),r14	;0xff60(r4)
    524a:	1f e4 62 ff 	xor	-158(r4),r15	;0xff62(r4)
    524e:	3e f0 3f 00 	and	#63,	r14	;#0x003f
    5252:	0f f3       	and	#0,	r15	;r3 As==00
    5254:	0f 4e       	mov	r14,	r15	
    5256:	3f 50 d0 80 	add	#-32560,r15	;#0x80d0
    525a:	6f 4f       	mov.b	@r15,	r15	
    525c:	4b 4f       	mov.b	r15,	r11	
    525e:	1c 44 32 ff 	mov	-206(r4),r12	;0xff32(r4)
    5262:	1d 44 34 ff 	mov	-204(r4),r13	;0xff34(r4)
    5266:	12 c3       	clrc			
    5268:	0d 10       	rrc	r13		
    526a:	0c 10       	rrc	r12		
    526c:	12 c3       	clrc			
    526e:	0d 10       	rrc	r13		
    5270:	0c 10       	rrc	r12		
    5272:	12 c3       	clrc			
    5274:	0d 10       	rrc	r13		
    5276:	0c 10       	rrc	r12		
    5278:	1f 44 3a ff 	mov	-198(r4),r15	;0xff3a(r4)
    527c:	2e 4f       	mov	@r15,	r14	
    527e:	1f 4f 02 00 	mov	2(r15),	r15	;0x0002(r15)
    5282:	12 c3       	clrc			
    5284:	0f 10       	rrc	r15		
    5286:	0e 10       	rrc	r14		
    5288:	12 c3       	clrc			
    528a:	0f 10       	rrc	r15		
    528c:	0e 10       	rrc	r14		
    528e:	12 c3       	clrc			
    5290:	0f 10       	rrc	r15		
    5292:	0e 10       	rrc	r14		
    5294:	12 c3       	clrc			
    5296:	0f 10       	rrc	r15		
    5298:	0e 10       	rrc	r14		
    529a:	12 c3       	clrc			
    529c:	0f 10       	rrc	r15		
    529e:	0e 10       	rrc	r14		
    52a0:	12 c3       	clrc			
    52a2:	0f 10       	rrc	r15		
    52a4:	0e 10       	rrc	r14		
    52a6:	0e ec       	xor	r12,	r14	
    52a8:	0f ed       	xor	r13,	r15	
    52aa:	3e f0 3f 00 	and	#63,	r14	;#0x003f
    52ae:	0f f3       	and	#0,	r15	;r3 As==00
    52b0:	0f 4e       	mov	r14,	r15	
    52b2:	3f 50 d0 80 	add	#-32560,r15	;#0x80d0
    52b6:	6f 4f       	mov.b	@r15,	r15	
    52b8:	4f 4f       	mov.b	r15,	r15	
    52ba:	0f 5f       	rla	r15		
    52bc:	0f 5f       	rla	r15		
    52be:	0f 5f       	rla	r15		
    52c0:	0f 5f       	rla	r15		
    52c2:	0b ef       	xor	r15,	r11	
    52c4:	1c 44 32 ff 	mov	-206(r4),r12	;0xff32(r4)
    52c8:	1d 44 34 ff 	mov	-204(r4),r13	;0xff34(r4)
    52cc:	12 c3       	clrc			
    52ce:	0d 10       	rrc	r13		
    52d0:	0c 10       	rrc	r12		
    52d2:	12 c3       	clrc			
    52d4:	0d 10       	rrc	r13		
    52d6:	0c 10       	rrc	r12		
    52d8:	12 c3       	clrc			
    52da:	0d 10       	rrc	r13		
    52dc:	0c 10       	rrc	r12		
    52de:	12 c3       	clrc			
    52e0:	0d 10       	rrc	r13		
    52e2:	0c 10       	rrc	r12		
    52e4:	12 c3       	clrc			
    52e6:	0d 10       	rrc	r13		
    52e8:	0c 10       	rrc	r12		
    52ea:	12 c3       	clrc			
    52ec:	0d 10       	rrc	r13		
    52ee:	0c 10       	rrc	r12		
    52f0:	12 c3       	clrc			
    52f2:	0d 10       	rrc	r13		
    52f4:	0c 10       	rrc	r12		
    52f6:	1f 44 3a ff 	mov	-198(r4),r15	;0xff3a(r4)
    52fa:	2e 4f       	mov	@r15,	r14	
    52fc:	1f 4f 02 00 	mov	2(r15),	r15	;0x0002(r15)
    5300:	8e 10       	swpb	r14		
    5302:	8f 10       	swpb	r15		
    5304:	4e ef       	xor.b	r15,	r14	
    5306:	0e ef       	xor	r15,	r14	
    5308:	4f 4f       	mov.b	r15,	r15	
    530a:	12 c3       	clrc			
    530c:	0f 10       	rrc	r15		
    530e:	0e 10       	rrc	r14		
    5310:	12 c3       	clrc			
    5312:	0f 10       	rrc	r15		
    5314:	0e 10       	rrc	r14		
    5316:	12 c3       	clrc			
    5318:	0f 10       	rrc	r15		
    531a:	0e 10       	rrc	r14		
    531c:	12 c3       	clrc			
    531e:	0f 10       	rrc	r15		
    5320:	0e 10       	rrc	r14		
    5322:	0e ec       	xor	r12,	r14	
    5324:	0f ed       	xor	r13,	r15	
    5326:	3e f0 3f 00 	and	#63,	r14	;#0x003f
    532a:	0f f3       	and	#0,	r15	;r3 As==00
    532c:	0f 4e       	mov	r14,	r15	
    532e:	3f 50 d0 80 	add	#-32560,r15	;#0x80d0
    5332:	6f 4f       	mov.b	@r15,	r15	
    5334:	4f 4f       	mov.b	r15,	r15	
    5336:	4f 4f       	mov.b	r15,	r15	
    5338:	8f 10       	swpb	r15		
    533a:	0b ef       	xor	r15,	r11	
    533c:	1c 44 32 ff 	mov	-206(r4),r12	;0xff32(r4)
    5340:	1d 44 34 ff 	mov	-204(r4),r13	;0xff34(r4)
    5344:	8c 10       	swpb	r12		
    5346:	8d 10       	swpb	r13		
    5348:	4c ed       	xor.b	r13,	r12	
    534a:	0c ed       	xor	r13,	r12	
    534c:	4d 4d       	mov.b	r13,	r13	
    534e:	12 c3       	clrc			
    5350:	0d 10       	rrc	r13		
    5352:	0c 10       	rrc	r12		
    5354:	12 c3       	clrc			
    5356:	0d 10       	rrc	r13		
    5358:	0c 10       	rrc	r12		
    535a:	12 c3       	clrc			
    535c:	0d 10       	rrc	r13		
    535e:	0c 10       	rrc	r12		
    5360:	1f 44 3a ff 	mov	-198(r4),r15	;0xff3a(r4)
    5364:	2e 4f       	mov	@r15,	r14	
    5366:	1f 4f 02 00 	mov	2(r15),	r15	;0x0002(r15)
    536a:	0e 4f       	mov	r15,	r14	
    536c:	0f 43       	clr	r15		
    536e:	84 4e 64 ff 	mov	r14,	-156(r4);0xff64(r4)
    5372:	84 4f 66 ff 	mov	r15,	-154(r4);0xff66(r4)
    5376:	12 c3       	clrc			
    5378:	14 10 66 ff 	rrc	-154(r4)	;0xff66(r4)
    537c:	14 10 64 ff 	rrc	-156(r4)	;0xff64(r4)
    5380:	12 c3       	clrc			
    5382:	14 10 66 ff 	rrc	-154(r4)	;0xff66(r4)
    5386:	14 10 64 ff 	rrc	-156(r4)	;0xff64(r4)
    538a:	1e 44 64 ff 	mov	-156(r4),r14	;0xff64(r4)
    538e:	1f 44 66 ff 	mov	-154(r4),r15	;0xff66(r4)
    5392:	0e ec       	xor	r12,	r14	
    5394:	0f ed       	xor	r13,	r15	
    5396:	3e f0 3f 00 	and	#63,	r14	;#0x003f
    539a:	0f f3       	and	#0,	r15	;r3 As==00
    539c:	0f 4e       	mov	r14,	r15	
    539e:	3f 50 d0 80 	add	#-32560,r15	;#0x80d0
    53a2:	6f 4f       	mov.b	@r15,	r15	
    53a4:	4f 4f       	mov.b	r15,	r15	
    53a6:	4f 4f       	mov.b	r15,	r15	
    53a8:	8f 10       	swpb	r15		
    53aa:	0f 5f       	rla	r15		
    53ac:	0f 5f       	rla	r15		
    53ae:	0f 5f       	rla	r15		
    53b0:	0f 5f       	rla	r15		
    53b2:	0b ef       	xor	r15,	r11	
    53b4:	1c 44 32 ff 	mov	-206(r4),r12	;0xff32(r4)
    53b8:	1d 44 34 ff 	mov	-204(r4),r13	;0xff34(r4)
    53bc:	8c 10       	swpb	r12		
    53be:	8d 10       	swpb	r13		
    53c0:	4c ed       	xor.b	r13,	r12	
    53c2:	0c ed       	xor	r13,	r12	
    53c4:	4d 4d       	mov.b	r13,	r13	
    53c6:	12 c3       	clrc			
    53c8:	0d 10       	rrc	r13		
    53ca:	0c 10       	rrc	r12		
    53cc:	12 c3       	clrc			
    53ce:	0d 10       	rrc	r13		
    53d0:	0c 10       	rrc	r12		
    53d2:	12 c3       	clrc			
    53d4:	0d 10       	rrc	r13		
    53d6:	0c 10       	rrc	r12		
    53d8:	12 c3       	clrc			
    53da:	0d 10       	rrc	r13		
    53dc:	0c 10       	rrc	r12		
    53de:	12 c3       	clrc			
    53e0:	0d 10       	rrc	r13		
    53e2:	0c 10       	rrc	r12		
    53e4:	12 c3       	clrc			
    53e6:	0d 10       	rrc	r13		
    53e8:	0c 10       	rrc	r12		
    53ea:	12 c3       	clrc			
    53ec:	0d 10       	rrc	r13		
    53ee:	0c 10       	rrc	r12		
    53f0:	1f 44 3a ff 	mov	-198(r4),r15	;0xff3a(r4)
    53f4:	2e 4f       	mov	@r15,	r14	
    53f6:	1f 4f 02 00 	mov	2(r15),	r15	;0x0002(r15)
    53fa:	0e 43       	clr	r14		
    53fc:	8f 10       	swpb	r15		
    53fe:	4f 4f       	mov.b	r15,	r15	
    5400:	84 4f 68 ff 	mov	r15,	-152(r4);0xff68(r4)
    5404:	84 4e 6a ff 	mov	r14,	-150(r4);0xff6a(r4)
    5408:	1e 44 68 ff 	mov	-152(r4),r14	;0xff68(r4)
    540c:	1f 44 6a ff 	mov	-150(r4),r15	;0xff6a(r4)
    5410:	0e ec       	xor	r12,	r14	
    5412:	0f ed       	xor	r13,	r15	
    5414:	3e f0 3f 00 	and	#63,	r14	;#0x003f
    5418:	0f f3       	and	#0,	r15	;r3 As==00
    541a:	0f 4e       	mov	r14,	r15	
    541c:	3f 50 d0 80 	add	#-32560,r15	;#0x80d0
    5420:	6f 4f       	mov.b	@r15,	r15	
    5422:	4f 4f       	mov.b	r15,	r15	
    5424:	0b ef       	xor	r15,	r11	
    5426:	1e 44 34 ff 	mov	-204(r4),r14	;0xff34(r4)
    542a:	0f 43       	clr	r15		
    542c:	84 4e 6c ff 	mov	r14,	-148(r4);0xff6c(r4)
    5430:	84 4f 6e ff 	mov	r15,	-146(r4);0xff6e(r4)
    5434:	12 c3       	clrc			
    5436:	14 10 6e ff 	rrc	-146(r4)	;0xff6e(r4)
    543a:	14 10 6c ff 	rrc	-148(r4)	;0xff6c(r4)
    543e:	12 c3       	clrc			
    5440:	14 10 6e ff 	rrc	-146(r4)	;0xff6e(r4)
    5444:	14 10 6c ff 	rrc	-148(r4)	;0xff6c(r4)
    5448:	12 c3       	clrc			
    544a:	14 10 6e ff 	rrc	-146(r4)	;0xff6e(r4)
    544e:	14 10 6c ff 	rrc	-148(r4)	;0xff6c(r4)
    5452:	1f 44 3a ff 	mov	-198(r4),r15	;0xff3a(r4)
    5456:	2e 4f       	mov	@r15,	r14	
    5458:	1f 4f 02 00 	mov	2(r15),	r15	;0x0002(r15)
    545c:	0e 43       	clr	r14		
    545e:	8f 10       	swpb	r15		
    5460:	4f 4f       	mov.b	r15,	r15	
    5462:	84 4f 70 ff 	mov	r15,	-144(r4);0xff70(r4)
    5466:	84 4e 72 ff 	mov	r14,	-142(r4);0xff72(r4)
    546a:	12 c3       	clrc			
    546c:	14 10 72 ff 	rrc	-142(r4)	;0xff72(r4)
    5470:	14 10 70 ff 	rrc	-144(r4)	;0xff70(r4)
    5474:	12 c3       	clrc			
    5476:	14 10 72 ff 	rrc	-142(r4)	;0xff72(r4)
    547a:	14 10 70 ff 	rrc	-144(r4)	;0xff70(r4)
    547e:	12 c3       	clrc			
    5480:	14 10 72 ff 	rrc	-142(r4)	;0xff72(r4)
    5484:	14 10 70 ff 	rrc	-144(r4)	;0xff70(r4)
    5488:	12 c3       	clrc			
    548a:	14 10 72 ff 	rrc	-142(r4)	;0xff72(r4)
    548e:	14 10 70 ff 	rrc	-144(r4)	;0xff70(r4)
    5492:	12 c3       	clrc			
    5494:	14 10 72 ff 	rrc	-142(r4)	;0xff72(r4)
    5498:	14 10 70 ff 	rrc	-144(r4)	;0xff70(r4)
    549c:	12 c3       	clrc			
    549e:	14 10 72 ff 	rrc	-142(r4)	;0xff72(r4)
    54a2:	14 10 70 ff 	rrc	-144(r4)	;0xff70(r4)
    54a6:	1c 44 6c ff 	mov	-148(r4),r12	;0xff6c(r4)
    54aa:	1d 44 6e ff 	mov	-146(r4),r13	;0xff6e(r4)
    54ae:	1c e4 70 ff 	xor	-144(r4),r12	;0xff70(r4)
    54b2:	1d e4 72 ff 	xor	-142(r4),r13	;0xff72(r4)
    54b6:	1f 44 3a ff 	mov	-198(r4),r15	;0xff3a(r4)
    54ba:	2e 4f       	mov	@r15,	r14	
    54bc:	1f 4f 02 00 	mov	2(r15),	r15	;0x0002(r15)
    54c0:	0e 5e       	rla	r14		
    54c2:	0f 6f       	rlc	r15		
    54c4:	0e 5e       	rla	r14		
    54c6:	0f 6f       	rlc	r15		
    54c8:	0e ec       	xor	r12,	r14	
    54ca:	0f ed       	xor	r13,	r15	
    54cc:	3e f0 3f 00 	and	#63,	r14	;#0x003f
    54d0:	0f f3       	and	#0,	r15	;r3 As==00
    54d2:	0f 4e       	mov	r14,	r15	
    54d4:	3f 50 d0 80 	add	#-32560,r15	;#0x80d0
    54d8:	6f 4f       	mov.b	@r15,	r15	
    54da:	4f 4f       	mov.b	r15,	r15	
    54dc:	0f 5f       	rla	r15		
    54de:	0f 5f       	rla	r15		
    54e0:	0f 5f       	rla	r15		
    54e2:	0f 5f       	rla	r15		
    54e4:	0d 4b       	mov	r11,	r13	
    54e6:	0d ef       	xor	r15,	r13	
    54e8:	1e 44 34 ff 	mov	-204(r4),r14	;0xff34(r4)
    54ec:	0f 43       	clr	r15		
    54ee:	84 4e 74 ff 	mov	r14,	-140(r4);0xff74(r4)
    54f2:	84 4f 76 ff 	mov	r15,	-138(r4);0xff76(r4)
    54f6:	12 c3       	clrc			
    54f8:	14 10 76 ff 	rrc	-138(r4)	;0xff76(r4)
    54fc:	14 10 74 ff 	rrc	-140(r4)	;0xff74(r4)
    5500:	12 c3       	clrc			
    5502:	14 10 76 ff 	rrc	-138(r4)	;0xff76(r4)
    5506:	14 10 74 ff 	rrc	-140(r4)	;0xff74(r4)
    550a:	12 c3       	clrc			
    550c:	14 10 76 ff 	rrc	-138(r4)	;0xff76(r4)
    5510:	14 10 74 ff 	rrc	-140(r4)	;0xff74(r4)
    5514:	12 c3       	clrc			
    5516:	14 10 76 ff 	rrc	-138(r4)	;0xff76(r4)
    551a:	14 10 74 ff 	rrc	-140(r4)	;0xff74(r4)
    551e:	12 c3       	clrc			
    5520:	14 10 76 ff 	rrc	-138(r4)	;0xff76(r4)
    5524:	14 10 74 ff 	rrc	-140(r4)	;0xff74(r4)
    5528:	12 c3       	clrc			
    552a:	14 10 76 ff 	rrc	-138(r4)	;0xff76(r4)
    552e:	14 10 74 ff 	rrc	-140(r4)	;0xff74(r4)
    5532:	12 c3       	clrc			
    5534:	14 10 76 ff 	rrc	-138(r4)	;0xff76(r4)
    5538:	14 10 74 ff 	rrc	-140(r4)	;0xff74(r4)
    553c:	1f 44 3a ff 	mov	-198(r4),r15	;0xff3a(r4)
    5540:	2e 4f       	mov	@r15,	r14	
    5542:	1f 4f 02 00 	mov	2(r15),	r15	;0x0002(r15)
    5546:	12 c3       	clrc			
    5548:	0f 10       	rrc	r15		
    554a:	0e 10       	rrc	r14		
    554c:	12 c3       	clrc			
    554e:	0f 10       	rrc	r15		
    5550:	0e 10       	rrc	r14		
    5552:	12 c3       	clrc			
    5554:	0f 10       	rrc	r15		
    5556:	0e 10       	rrc	r14		
    5558:	12 c3       	clrc			
    555a:	0f 10       	rrc	r15		
    555c:	0e 10       	rrc	r14		
    555e:	1e e4 74 ff 	xor	-140(r4),r14	;0xff74(r4)
    5562:	1f e4 76 ff 	xor	-138(r4),r15	;0xff76(r4)
    5566:	3e f0 3f 00 	and	#63,	r14	;#0x003f
    556a:	0f f3       	and	#0,	r15	;r3 As==00
    556c:	0f 4e       	mov	r14,	r15	
    556e:	3f 50 d0 80 	add	#-32560,r15	;#0x80d0
    5572:	6f 4f       	mov.b	@r15,	r15	
    5574:	4f 4f       	mov.b	r15,	r15	
    5576:	4f 4f       	mov.b	r15,	r15	
    5578:	8f 10       	swpb	r15		
    557a:	0d ef       	xor	r15,	r13	
    557c:	1f 44 34 ff 	mov	-204(r4),r15	;0xff34(r4)
    5580:	0e 43       	clr	r14		
    5582:	8f 10       	swpb	r15		
    5584:	4f 4f       	mov.b	r15,	r15	
    5586:	84 4f 78 ff 	mov	r15,	-136(r4);0xff78(r4)
    558a:	84 4e 7a ff 	mov	r14,	-134(r4);0xff7a(r4)
    558e:	12 c3       	clrc			
    5590:	14 10 7a ff 	rrc	-134(r4)	;0xff7a(r4)
    5594:	14 10 78 ff 	rrc	-136(r4)	;0xff78(r4)
    5598:	12 c3       	clrc			
    559a:	14 10 7a ff 	rrc	-134(r4)	;0xff7a(r4)
    559e:	14 10 78 ff 	rrc	-136(r4)	;0xff78(r4)
    55a2:	12 c3       	clrc			
    55a4:	14 10 7a ff 	rrc	-134(r4)	;0xff7a(r4)
    55a8:	14 10 78 ff 	rrc	-136(r4)	;0xff78(r4)
    55ac:	1f 44 3a ff 	mov	-198(r4),r15	;0xff3a(r4)
    55b0:	2e 4f       	mov	@r15,	r14	
    55b2:	1f 4f 02 00 	mov	2(r15),	r15	;0x0002(r15)
    55b6:	8e 10       	swpb	r14		
    55b8:	8f 10       	swpb	r15		
    55ba:	4e ef       	xor.b	r15,	r14	
    55bc:	0e ef       	xor	r15,	r14	
    55be:	4f 4f       	mov.b	r15,	r15	
    55c0:	12 c3       	clrc			
    55c2:	0f 10       	rrc	r15		
    55c4:	0e 10       	rrc	r14		
    55c6:	12 c3       	clrc			
    55c8:	0f 10       	rrc	r15		
    55ca:	0e 10       	rrc	r14		
    55cc:	1e e4 78 ff 	xor	-136(r4),r14	;0xff78(r4)
    55d0:	1f e4 7a ff 	xor	-134(r4),r15	;0xff7a(r4)
    55d4:	3e f0 3f 00 	and	#63,	r14	;#0x003f
    55d8:	0f f3       	and	#0,	r15	;r3 As==00
    55da:	0f 4e       	mov	r14,	r15	
    55dc:	3f 50 d0 80 	add	#-32560,r15	;#0x80d0
    55e0:	6f 4f       	mov.b	@r15,	r15	
    55e2:	4f 4f       	mov.b	r15,	r15	
    55e4:	4f 4f       	mov.b	r15,	r15	
    55e6:	8f 10       	swpb	r15		
    55e8:	0f 5f       	rla	r15		
    55ea:	0f 5f       	rla	r15		
    55ec:	0f 5f       	rla	r15		
    55ee:	0f 5f       	rla	r15		
    55f0:	0f ed       	xor	r13,	r15	
    55f2:	84 4f 36 ff 	mov	r15,	-202(r4);0xff36(r4)
    55f6:	1f 44 36 ff 	mov	-202(r4),r15	;0xff36(r4)
    55fa:	8f 10       	swpb	r15		
    55fc:	8f 11       	sxt	r15		
    55fe:	8f 10       	swpb	r15		
    5600:	8f 11       	sxt	r15		
    5602:	84 4f 38 ff 	mov	r15,	-200(r4);0xff38(r4)
    5606:	a4 52 3a ff 	add	#4,	-198(r4);r2 As==10, 0xff3a(r4)
    560a:	a4 52 3a ff 	add	#4,	-198(r4);r2 As==10, 0xff3a(r4)
    560e:	1e 44 36 ff 	mov	-202(r4),r14	;0xff36(r4)
    5612:	1f 44 38 ff 	mov	-200(r4),r15	;0xff38(r4)
    5616:	1e f3       	and	#1,	r14	;r3 As==01
    5618:	0f f3       	and	#0,	r15	;r3 As==00
    561a:	0c 4e       	mov	r14,	r12	
    561c:	0d 4f       	mov	r15,	r13	
    561e:	4d ec       	xor.b	r12,	r13	
    5620:	0d ec       	xor	r12,	r13	
    5622:	8d 10       	swpb	r13		
    5624:	4c 4c       	mov.b	r12,	r12	
    5626:	8c 10       	swpb	r12		
    5628:	1e 44 36 ff 	mov	-202(r4),r14	;0xff36(r4)
    562c:	1f 44 38 ff 	mov	-200(r4),r15	;0xff38(r4)
    5630:	2e f3       	and	#2,	r14	;r3 As==10
    5632:	0f f3       	and	#0,	r15	;r3 As==00
    5634:	4f ee       	xor.b	r14,	r15	
    5636:	0f ee       	xor	r14,	r15	
    5638:	8f 10       	swpb	r15		
    563a:	4e 4e       	mov.b	r14,	r14	
    563c:	8e 10       	swpb	r14		
    563e:	0e 5e       	rla	r14		
    5640:	0f 6f       	rlc	r15		
    5642:	0e 5e       	rla	r14		
    5644:	0f 6f       	rlc	r15		
    5646:	0e 5e       	rla	r14		
    5648:	0f 6f       	rlc	r15		
    564a:	0e 5e       	rla	r14		
    564c:	0f 6f       	rlc	r15		
    564e:	0e 5e       	rla	r14		
    5650:	0f 6f       	rlc	r15		
    5652:	0e 5e       	rla	r14		
    5654:	0f 6f       	rlc	r15		
    5656:	0e 5e       	rla	r14		
    5658:	0f 6f       	rlc	r15		
    565a:	0c ee       	xor	r14,	r12	
    565c:	0d ef       	xor	r15,	r13	
    565e:	1e 44 36 ff 	mov	-202(r4),r14	;0xff36(r4)
    5662:	1f 44 38 ff 	mov	-200(r4),r15	;0xff38(r4)
    5666:	2e f2       	and	#4,	r14	;r2 As==10
    5668:	0f f3       	and	#0,	r15	;r3 As==00
    566a:	0f 43       	clr	r15		
    566c:	84 4f 7c ff 	mov	r15,	-132(r4);0xff7c(r4)
    5670:	84 4e 7e ff 	mov	r14,	-130(r4);0xff7e(r4)
    5674:	94 54 7c ff 	rla	-132(r4)	;0xff7c(r4)
    5678:	7c ff 
    567a:	94 64 7e ff 	rlc	-130(r4)	;0xff7e(r4)
    567e:	7e ff 
    5680:	94 54 7c ff 	rla	-132(r4)	;0xff7c(r4)
    5684:	7c ff 
    5686:	94 64 7e ff 	rlc	-130(r4)	;0xff7e(r4)
    568a:	7e ff 
    568c:	94 54 7c ff 	rla	-132(r4)	;0xff7c(r4)
    5690:	7c ff 
    5692:	94 64 7e ff 	rlc	-130(r4)	;0xff7e(r4)
    5696:	7e ff 
    5698:	94 54 7c ff 	rla	-132(r4)	;0xff7c(r4)
    569c:	7c ff 
    569e:	94 64 7e ff 	rlc	-130(r4)	;0xff7e(r4)
    56a2:	7e ff 
    56a4:	1c e4 7c ff 	xor	-132(r4),r12	;0xff7c(r4)
    56a8:	1d e4 7e ff 	xor	-130(r4),r13	;0xff7e(r4)
    56ac:	1e 44 36 ff 	mov	-202(r4),r14	;0xff36(r4)
    56b0:	1f 44 38 ff 	mov	-200(r4),r15	;0xff38(r4)
    56b4:	3e f2       	and	#8,	r14	;r2 As==11
    56b6:	0f f3       	and	#0,	r15	;r3 As==00
    56b8:	0f 4e       	mov	r14,	r15	
    56ba:	0e 43       	clr	r14		
    56bc:	4f 4f       	mov.b	r15,	r15	
    56be:	8f 10       	swpb	r15		
    56c0:	84 4e 80 ff 	mov	r14,	-128(r4);0xff80(r4)
    56c4:	84 4f 82 ff 	mov	r15,	-126(r4);0xff82(r4)
    56c8:	94 54 80 ff 	rla	-128(r4)	;0xff80(r4)
    56cc:	80 ff 
    56ce:	94 64 82 ff 	rlc	-126(r4)	;0xff82(r4)
    56d2:	82 ff 
    56d4:	94 54 80 ff 	rla	-128(r4)	;0xff80(r4)
    56d8:	80 ff 
    56da:	94 64 82 ff 	rlc	-126(r4)	;0xff82(r4)
    56de:	82 ff 
    56e0:	94 54 80 ff 	rla	-128(r4)	;0xff80(r4)
    56e4:	80 ff 
    56e6:	94 64 82 ff 	rlc	-126(r4)	;0xff82(r4)
    56ea:	82 ff 
    56ec:	1c e4 80 ff 	xor	-128(r4),r12	;0xff80(r4)
    56f0:	1d e4 82 ff 	xor	-126(r4),r13	;0xff82(r4)
    56f4:	1e 44 36 ff 	mov	-202(r4),r14	;0xff36(r4)
    56f8:	1f 44 38 ff 	mov	-200(r4),r15	;0xff38(r4)
    56fc:	3e f0 10 00 	and	#16,	r14	;#0x0010
    5700:	0f f3       	and	#0,	r15	;r3 As==00
    5702:	4f ee       	xor.b	r14,	r15	
    5704:	0f ee       	xor	r14,	r15	
    5706:	8f 10       	swpb	r15		
    5708:	4e 4e       	mov.b	r14,	r14	
    570a:	8e 10       	swpb	r14		
    570c:	0c ee       	xor	r14,	r12	
    570e:	0d ef       	xor	r15,	r13	
    5710:	1e 44 36 ff 	mov	-202(r4),r14	;0xff36(r4)
    5714:	1f 44 38 ff 	mov	-200(r4),r15	;0xff38(r4)
    5718:	3e f0 20 00 	and	#32,	r14	;#0x0020
    571c:	0f f3       	and	#0,	r15	;r3 As==00
    571e:	0f 43       	clr	r15		
    5720:	84 4f 84 ff 	mov	r15,	-124(r4);0xff84(r4)
    5724:	84 4e 86 ff 	mov	r14,	-122(r4);0xff86(r4)
    5728:	94 54 84 ff 	rla	-124(r4)	;0xff84(r4)
    572c:	84 ff 
    572e:	94 64 86 ff 	rlc	-122(r4)	;0xff86(r4)
    5732:	86 ff 
    5734:	94 54 84 ff 	rla	-124(r4)	;0xff84(r4)
    5738:	84 ff 
    573a:	94 64 86 ff 	rlc	-122(r4)	;0xff86(r4)
    573e:	86 ff 
    5740:	94 54 84 ff 	rla	-124(r4)	;0xff84(r4)
    5744:	84 ff 
    5746:	94 64 86 ff 	rlc	-122(r4)	;0xff86(r4)
    574a:	86 ff 
    574c:	94 54 84 ff 	rla	-124(r4)	;0xff84(r4)
    5750:	84 ff 
    5752:	94 64 86 ff 	rlc	-122(r4)	;0xff86(r4)
    5756:	86 ff 
    5758:	94 54 84 ff 	rla	-124(r4)	;0xff84(r4)
    575c:	84 ff 
    575e:	94 64 86 ff 	rlc	-122(r4)	;0xff86(r4)
    5762:	86 ff 
    5764:	94 54 84 ff 	rla	-124(r4)	;0xff84(r4)
    5768:	84 ff 
    576a:	94 64 86 ff 	rlc	-122(r4)	;0xff86(r4)
    576e:	86 ff 
    5770:	1c e4 84 ff 	xor	-124(r4),r12	;0xff84(r4)
    5774:	1d e4 86 ff 	xor	-122(r4),r13	;0xff86(r4)
    5778:	1e 44 36 ff 	mov	-202(r4),r14	;0xff36(r4)
    577c:	1f 44 38 ff 	mov	-200(r4),r15	;0xff38(r4)
    5780:	3e f0 40 00 	and	#64,	r14	;#0x0040
    5784:	0f f3       	and	#0,	r15	;r3 As==00
    5786:	12 c3       	clrc			
    5788:	0f 10       	rrc	r15		
    578a:	0e 10       	rrc	r14		
    578c:	12 c3       	clrc			
    578e:	0f 10       	rrc	r15		
    5790:	0e 10       	rrc	r14		
    5792:	12 c3       	clrc			
    5794:	0f 10       	rrc	r15		
    5796:	0e 10       	rrc	r14		
    5798:	12 c3       	clrc			
    579a:	0f 10       	rrc	r15		
    579c:	0e 10       	rrc	r14		
    579e:	12 c3       	clrc			
    57a0:	0f 10       	rrc	r15		
    57a2:	0e 10       	rrc	r14		
    57a4:	0c ee       	xor	r14,	r12	
    57a6:	0d ef       	xor	r15,	r13	
    57a8:	1e 44 36 ff 	mov	-202(r4),r14	;0xff36(r4)
    57ac:	1f 44 38 ff 	mov	-200(r4),r15	;0xff38(r4)
    57b0:	3e f0 80 00 	and	#128,	r14	;#0x0080
    57b4:	0f f3       	and	#0,	r15	;r3 As==00
    57b6:	4f ee       	xor.b	r14,	r15	
    57b8:	0f ee       	xor	r14,	r15	
    57ba:	8f 10       	swpb	r15		
    57bc:	4e 4e       	mov.b	r14,	r14	
    57be:	8e 10       	swpb	r14		
    57c0:	0e 5e       	rla	r14		
    57c2:	0f 6f       	rlc	r15		
    57c4:	0e 5e       	rla	r14		
    57c6:	0f 6f       	rlc	r15		
    57c8:	0c ee       	xor	r14,	r12	
    57ca:	0d ef       	xor	r15,	r13	
    57cc:	1e 44 36 ff 	mov	-202(r4),r14	;0xff36(r4)
    57d0:	1f 44 38 ff 	mov	-200(r4),r15	;0xff38(r4)
    57d4:	3e f0 00 01 	and	#256,	r14	;#0x0100
    57d8:	0f f3       	and	#0,	r15	;r3 As==00
    57da:	4f ee       	xor.b	r14,	r15	
    57dc:	0f ee       	xor	r14,	r15	
    57de:	8f 10       	swpb	r15		
    57e0:	4e 4e       	mov.b	r14,	r14	
    57e2:	8e 10       	swpb	r14		
    57e4:	0e 5e       	rla	r14		
    57e6:	0f 6f       	rlc	r15		
    57e8:	0e 5e       	rla	r14		
    57ea:	0f 6f       	rlc	r15		
    57ec:	0e 5e       	rla	r14		
    57ee:	0f 6f       	rlc	r15		
    57f0:	0e 5e       	rla	r14		
    57f2:	0f 6f       	rlc	r15		
    57f4:	0e 5e       	rla	r14		
    57f6:	0f 6f       	rlc	r15		
    57f8:	0e 5e       	rla	r14		
    57fa:	0f 6f       	rlc	r15		
    57fc:	0e 5e       	rla	r14		
    57fe:	0f 6f       	rlc	r15		
    5800:	0c ee       	xor	r14,	r12	
    5802:	0d ef       	xor	r15,	r13	
    5804:	1e 44 36 ff 	mov	-202(r4),r14	;0xff36(r4)
    5808:	1f 44 38 ff 	mov	-200(r4),r15	;0xff38(r4)
    580c:	3e f0 00 02 	and	#512,	r14	;#0x0200
    5810:	0f f3       	and	#0,	r15	;r3 As==00
    5812:	0e 5e       	rla	r14		
    5814:	0f 6f       	rlc	r15		
    5816:	0e 5e       	rla	r14		
    5818:	0f 6f       	rlc	r15		
    581a:	0e 5e       	rla	r14		
    581c:	0f 6f       	rlc	r15		
    581e:	0e 5e       	rla	r14		
    5820:	0f 6f       	rlc	r15		
    5822:	0e 5e       	rla	r14		
    5824:	0f 6f       	rlc	r15		
    5826:	0e 5e       	rla	r14		
    5828:	0f 6f       	rlc	r15		
    582a:	0c ee       	xor	r14,	r12	
    582c:	0d ef       	xor	r15,	r13	
    582e:	1e 44 36 ff 	mov	-202(r4),r14	;0xff36(r4)
    5832:	1f 44 38 ff 	mov	-200(r4),r15	;0xff38(r4)
    5836:	3e f0 00 04 	and	#1024,	r14	;#0x0400
    583a:	0f f3       	and	#0,	r15	;r3 As==00
    583c:	0f 43       	clr	r15		
    583e:	84 4f 88 ff 	mov	r15,	-120(r4);0xff88(r4)
    5842:	84 4e 8a ff 	mov	r14,	-118(r4);0xff8a(r4)
    5846:	94 54 88 ff 	rla	-120(r4)	;0xff88(r4)
    584a:	88 ff 
    584c:	94 64 8a ff 	rlc	-118(r4)	;0xff8a(r4)
    5850:	8a ff 
    5852:	94 54 88 ff 	rla	-120(r4)	;0xff88(r4)
    5856:	88 ff 
    5858:	94 64 8a ff 	rlc	-118(r4)	;0xff8a(r4)
    585c:	8a ff 
    585e:	94 54 88 ff 	rla	-120(r4)	;0xff88(r4)
    5862:	88 ff 
    5864:	94 64 8a ff 	rlc	-118(r4)	;0xff8a(r4)
    5868:	8a ff 
    586a:	1c e4 88 ff 	xor	-120(r4),r12	;0xff88(r4)
    586e:	1d e4 8a ff 	xor	-118(r4),r13	;0xff8a(r4)
    5872:	1e 44 36 ff 	mov	-202(r4),r14	;0xff36(r4)
    5876:	1f 44 38 ff 	mov	-200(r4),r15	;0xff38(r4)
    587a:	3e f0 00 08 	and	#2048,	r14	;#0x0800
    587e:	0f f3       	and	#0,	r15	;r3 As==00
    5880:	12 c3       	clrc			
    5882:	0f 10       	rrc	r15		
    5884:	0e 10       	rrc	r14		
    5886:	12 c3       	clrc			
    5888:	0f 10       	rrc	r15		
    588a:	0e 10       	rrc	r14		
    588c:	12 c3       	clrc			
    588e:	0f 10       	rrc	r15		
    5890:	0e 10       	rrc	r14		
    5892:	12 c3       	clrc			
    5894:	0f 10       	rrc	r15		
    5896:	0e 10       	rrc	r14		
    5898:	12 c3       	clrc			
    589a:	0f 10       	rrc	r15		
    589c:	0e 10       	rrc	r14		
    589e:	12 c3       	clrc			
    58a0:	0f 10       	rrc	r15		
    58a2:	0e 10       	rrc	r14		
    58a4:	0c ee       	xor	r14,	r12	
    58a6:	0d ef       	xor	r15,	r13	
    58a8:	1e 44 36 ff 	mov	-202(r4),r14	;0xff36(r4)
    58ac:	1f 44 38 ff 	mov	-200(r4),r15	;0xff38(r4)
    58b0:	3e f0 00 10 	and	#4096,	r14	;#0x1000
    58b4:	0f f3       	and	#0,	r15	;r3 As==00
    58b6:	4f ee       	xor.b	r14,	r15	
    58b8:	0f ee       	xor	r14,	r15	
    58ba:	8f 10       	swpb	r15		
    58bc:	4e 4e       	mov.b	r14,	r14	
    58be:	8e 10       	swpb	r14		
    58c0:	0e 5e       	rla	r14		
    58c2:	0f 6f       	rlc	r15		
    58c4:	0e 5e       	rla	r14		
    58c6:	0f 6f       	rlc	r15		
    58c8:	0e 5e       	rla	r14		
    58ca:	0f 6f       	rlc	r15		
    58cc:	0e 5e       	rla	r14		
    58ce:	0f 6f       	rlc	r15		
    58d0:	0e 5e       	rla	r14		
    58d2:	0f 6f       	rlc	r15		
    58d4:	0c ee       	xor	r14,	r12	
    58d6:	0d ef       	xor	r15,	r13	
    58d8:	1e 44 36 ff 	mov	-202(r4),r14	;0xff36(r4)
    58dc:	1f 44 38 ff 	mov	-200(r4),r15	;0xff38(r4)
    58e0:	3e f0 00 20 	and	#8192,	r14	;#0x2000
    58e4:	0f f3       	and	#0,	r15	;r3 As==00
    58e6:	0e 5e       	rla	r14		
    58e8:	0f 6f       	rlc	r15		
    58ea:	0e 5e       	rla	r14		
    58ec:	0f 6f       	rlc	r15		
    58ee:	0e 5e       	rla	r14		
    58f0:	0f 6f       	rlc	r15		
    58f2:	0e 5e       	rla	r14		
    58f4:	0f 6f       	rlc	r15		
    58f6:	0e 5e       	rla	r14		
    58f8:	0f 6f       	rlc	r15		
    58fa:	0e 5e       	rla	r14		
    58fc:	0f 6f       	rlc	r15		
    58fe:	0c ee       	xor	r14,	r12	
    5900:	0d ef       	xor	r15,	r13	
    5902:	1e 44 36 ff 	mov	-202(r4),r14	;0xff36(r4)
    5906:	1f 44 38 ff 	mov	-200(r4),r15	;0xff38(r4)
    590a:	3e f0 00 40 	and	#16384,	r14	;#0x4000
    590e:	0f f3       	and	#0,	r15	;r3 As==00
    5910:	12 c3       	clrc			
    5912:	0f 10       	rrc	r15		
    5914:	0e 10       	rrc	r14		
    5916:	12 c3       	clrc			
    5918:	0f 10       	rrc	r15		
    591a:	0e 10       	rrc	r14		
    591c:	12 c3       	clrc			
    591e:	0f 10       	rrc	r15		
    5920:	0e 10       	rrc	r14		
    5922:	12 c3       	clrc			
    5924:	0f 10       	rrc	r15		
    5926:	0e 10       	rrc	r14		
    5928:	12 c3       	clrc			
    592a:	0f 10       	rrc	r15		
    592c:	0e 10       	rrc	r14		
    592e:	0c ee       	xor	r14,	r12	
    5930:	0d ef       	xor	r15,	r13	
    5932:	1e 44 36 ff 	mov	-202(r4),r14	;0xff36(r4)
    5936:	1f 44 38 ff 	mov	-200(r4),r15	;0xff38(r4)
    593a:	3e f0 00 80 	and	#-32768,r14	;#0x8000
    593e:	0f f3       	and	#0,	r15	;r3 As==00
    5940:	8e 10       	swpb	r14		
    5942:	8f 10       	swpb	r15		
    5944:	4e ef       	xor.b	r15,	r14	
    5946:	0e ef       	xor	r15,	r14	
    5948:	4f 4f       	mov.b	r15,	r15	
    594a:	12 c3       	clrc			
    594c:	0f 10       	rrc	r15		
    594e:	0e 10       	rrc	r14		
    5950:	12 c3       	clrc			
    5952:	0f 10       	rrc	r15		
    5954:	0e 10       	rrc	r14		
    5956:	12 c3       	clrc			
    5958:	0f 10       	rrc	r15		
    595a:	0e 10       	rrc	r14		
    595c:	12 c3       	clrc			
    595e:	0f 10       	rrc	r15		
    5960:	0e 10       	rrc	r14		
    5962:	12 c3       	clrc			
    5964:	0f 10       	rrc	r15		
    5966:	0e 10       	rrc	r14		
    5968:	12 c3       	clrc			
    596a:	0f 10       	rrc	r15		
    596c:	0e 10       	rrc	r14		
    596e:	12 c3       	clrc			
    5970:	0f 10       	rrc	r15		
    5972:	0e 10       	rrc	r14		
    5974:	0c ee       	xor	r14,	r12	
    5976:	0d ef       	xor	r15,	r13	
    5978:	1e 44 36 ff 	mov	-202(r4),r14	;0xff36(r4)
    597c:	1f 44 38 ff 	mov	-200(r4),r15	;0xff38(r4)
    5980:	0e f3       	and	#0,	r14	;r3 As==00
    5982:	1f f3       	and	#1,	r15	;r3 As==01
    5984:	8e 10       	swpb	r14		
    5986:	8f 10       	swpb	r15		
    5988:	4e ef       	xor.b	r15,	r14	
    598a:	0e ef       	xor	r15,	r14	
    598c:	4f 4f       	mov.b	r15,	r15	
    598e:	12 c3       	clrc			
    5990:	0f 10       	rrc	r15		
    5992:	0e 10       	rrc	r14		
    5994:	0c ee       	xor	r14,	r12	
    5996:	0d ef       	xor	r15,	r13	
    5998:	1e 44 36 ff 	mov	-202(r4),r14	;0xff36(r4)
    599c:	1f 44 38 ff 	mov	-200(r4),r15	;0xff38(r4)
    59a0:	0e f3       	and	#0,	r14	;r3 As==00
    59a2:	2f f3       	and	#2,	r15	;r3 As==10
    59a4:	12 c3       	clrc			
    59a6:	0f 10       	rrc	r15		
    59a8:	0e 10       	rrc	r14		
    59aa:	12 c3       	clrc			
    59ac:	0f 10       	rrc	r15		
    59ae:	0e 10       	rrc	r14		
    59b0:	12 c3       	clrc			
    59b2:	0f 10       	rrc	r15		
    59b4:	0e 10       	rrc	r14		
    59b6:	12 c3       	clrc			
    59b8:	0f 10       	rrc	r15		
    59ba:	0e 10       	rrc	r14		
    59bc:	0c ee       	xor	r14,	r12	
    59be:	0d ef       	xor	r15,	r13	
    59c0:	1e 44 36 ff 	mov	-202(r4),r14	;0xff36(r4)
    59c4:	1f 44 38 ff 	mov	-200(r4),r15	;0xff38(r4)
    59c8:	0e f3       	and	#0,	r14	;r3 As==00
    59ca:	2f f2       	and	#4,	r15	;r2 As==10
    59cc:	0e 5e       	rla	r14		
    59ce:	0f 6f       	rlc	r15		
    59d0:	0e 5e       	rla	r14		
    59d2:	0f 6f       	rlc	r15		
    59d4:	0e 5e       	rla	r14		
    59d6:	0f 6f       	rlc	r15		
    59d8:	0e 5e       	rla	r14		
    59da:	0f 6f       	rlc	r15		
    59dc:	0e 5e       	rla	r14		
    59de:	0f 6f       	rlc	r15		
    59e0:	0e 5e       	rla	r14		
    59e2:	0f 6f       	rlc	r15		
    59e4:	0c ee       	xor	r14,	r12	
    59e6:	0d ef       	xor	r15,	r13	
    59e8:	1e 44 36 ff 	mov	-202(r4),r14	;0xff36(r4)
    59ec:	1f 44 38 ff 	mov	-200(r4),r15	;0xff38(r4)
    59f0:	0e f3       	and	#0,	r14	;r3 As==00
    59f2:	3f f2       	and	#8,	r15	;r2 As==11
    59f4:	0e 4f       	mov	r15,	r14	
    59f6:	0f 43       	clr	r15		
    59f8:	84 4e 8c ff 	mov	r14,	-116(r4);0xff8c(r4)
    59fc:	84 4f 8e ff 	mov	r15,	-114(r4);0xff8e(r4)
    5a00:	12 c3       	clrc			
    5a02:	14 10 8e ff 	rrc	-114(r4)	;0xff8e(r4)
    5a06:	14 10 8c ff 	rrc	-116(r4)	;0xff8c(r4)
    5a0a:	1c e4 8c ff 	xor	-116(r4),r12	;0xff8c(r4)
    5a0e:	1d e4 8e ff 	xor	-114(r4),r13	;0xff8e(r4)
    5a12:	1e 44 36 ff 	mov	-202(r4),r14	;0xff36(r4)
    5a16:	1f 44 38 ff 	mov	-200(r4),r15	;0xff38(r4)
    5a1a:	0e f3       	and	#0,	r14	;r3 As==00
    5a1c:	3f f0 10 00 	and	#16,	r15	;#0x0010
    5a20:	0e 4f       	mov	r15,	r14	
    5a22:	0f 43       	clr	r15		
    5a24:	84 4e 90 ff 	mov	r14,	-112(r4);0xff90(r4)
    5a28:	84 4f 92 ff 	mov	r15,	-110(r4);0xff92(r4)
    5a2c:	12 c3       	clrc			
    5a2e:	14 10 92 ff 	rrc	-110(r4)	;0xff92(r4)
    5a32:	14 10 90 ff 	rrc	-112(r4)	;0xff90(r4)
    5a36:	1c e4 90 ff 	xor	-112(r4),r12	;0xff90(r4)
    5a3a:	1d e4 92 ff 	xor	-110(r4),r13	;0xff92(r4)
    5a3e:	1e 44 36 ff 	mov	-202(r4),r14	;0xff36(r4)
    5a42:	1f 44 38 ff 	mov	-200(r4),r15	;0xff38(r4)
    5a46:	0e f3       	and	#0,	r14	;r3 As==00
    5a48:	3f f0 20 00 	and	#32,	r15	;#0x0020
    5a4c:	0e 5e       	rla	r14		
    5a4e:	0f 6f       	rlc	r15		
    5a50:	0e 5e       	rla	r14		
    5a52:	0f 6f       	rlc	r15		
    5a54:	0e 5e       	rla	r14		
    5a56:	0f 6f       	rlc	r15		
    5a58:	0e 5e       	rla	r14		
    5a5a:	0f 6f       	rlc	r15		
    5a5c:	0e 5e       	rla	r14		
    5a5e:	0f 6f       	rlc	r15		
    5a60:	0e 5e       	rla	r14		
    5a62:	0f 6f       	rlc	r15		
    5a64:	0e 5e       	rla	r14		
    5a66:	0f 6f       	rlc	r15		
    5a68:	0c ee       	xor	r14,	r12	
    5a6a:	0d ef       	xor	r15,	r13	
    5a6c:	1e 44 36 ff 	mov	-202(r4),r14	;0xff36(r4)
    5a70:	1f 44 38 ff 	mov	-200(r4),r15	;0xff38(r4)
    5a74:	0e f3       	and	#0,	r14	;r3 As==00
    5a76:	3f f0 40 00 	and	#64,	r15	;#0x0040
    5a7a:	8e 10       	swpb	r14		
    5a7c:	8f 10       	swpb	r15		
    5a7e:	4e ef       	xor.b	r15,	r14	
    5a80:	0e ef       	xor	r15,	r14	
    5a82:	4f 4f       	mov.b	r15,	r15	
    5a84:	12 c3       	clrc			
    5a86:	0f 10       	rrc	r15		
    5a88:	0e 10       	rrc	r14		
    5a8a:	12 c3       	clrc			
    5a8c:	0f 10       	rrc	r15		
    5a8e:	0e 10       	rrc	r14		
    5a90:	12 c3       	clrc			
    5a92:	0f 10       	rrc	r15		
    5a94:	0e 10       	rrc	r14		
    5a96:	12 c3       	clrc			
    5a98:	0f 10       	rrc	r15		
    5a9a:	0e 10       	rrc	r14		
    5a9c:	0c ee       	xor	r14,	r12	
    5a9e:	0d ef       	xor	r15,	r13	
    5aa0:	1e 44 36 ff 	mov	-202(r4),r14	;0xff36(r4)
    5aa4:	1f 44 38 ff 	mov	-200(r4),r15	;0xff38(r4)
    5aa8:	0e f3       	and	#0,	r14	;r3 As==00
    5aaa:	3f f0 80 00 	and	#128,	r15	;#0x0080
    5aae:	12 c3       	clrc			
    5ab0:	0f 10       	rrc	r15		
    5ab2:	0e 10       	rrc	r14		
    5ab4:	12 c3       	clrc			
    5ab6:	0f 10       	rrc	r15		
    5ab8:	0e 10       	rrc	r14		
    5aba:	12 c3       	clrc			
    5abc:	0f 10       	rrc	r15		
    5abe:	0e 10       	rrc	r14		
    5ac0:	12 c3       	clrc			
    5ac2:	0f 10       	rrc	r15		
    5ac4:	0e 10       	rrc	r14		
    5ac6:	12 c3       	clrc			
    5ac8:	0f 10       	rrc	r15		
    5aca:	0e 10       	rrc	r14		
    5acc:	0c ee       	xor	r14,	r12	
    5ace:	0d ef       	xor	r15,	r13	
    5ad0:	1e 44 36 ff 	mov	-202(r4),r14	;0xff36(r4)
    5ad4:	1f 44 38 ff 	mov	-200(r4),r15	;0xff38(r4)
    5ad8:	0e f3       	and	#0,	r14	;r3 As==00
    5ada:	3f f0 00 01 	and	#256,	r15	;#0x0100
    5ade:	0e 5e       	rla	r14		
    5ae0:	0f 6f       	rlc	r15		
    5ae2:	0e 5e       	rla	r14		
    5ae4:	0f 6f       	rlc	r15		
    5ae6:	0e 5e       	rla	r14		
    5ae8:	0f 6f       	rlc	r15		
    5aea:	0e 5e       	rla	r14		
    5aec:	0f 6f       	rlc	r15		
    5aee:	0e 5e       	rla	r14		
    5af0:	0f 6f       	rlc	r15		
    5af2:	0e 5e       	rla	r14		
    5af4:	0f 6f       	rlc	r15		
    5af6:	0e 5e       	rla	r14		
    5af8:	0f 6f       	rlc	r15		
    5afa:	0c ee       	xor	r14,	r12	
    5afc:	0d ef       	xor	r15,	r13	
    5afe:	1e 44 36 ff 	mov	-202(r4),r14	;0xff36(r4)
    5b02:	1f 44 38 ff 	mov	-200(r4),r15	;0xff38(r4)
    5b06:	0e f3       	and	#0,	r14	;r3 As==00
    5b08:	3f f0 00 02 	and	#512,	r15	;#0x0200
    5b0c:	8e 10       	swpb	r14		
    5b0e:	8f 10       	swpb	r15		
    5b10:	4e ef       	xor.b	r15,	r14	
    5b12:	0e ef       	xor	r15,	r14	
    5b14:	4f 4f       	mov.b	r15,	r15	
    5b16:	12 c3       	clrc			
    5b18:	0f 10       	rrc	r15		
    5b1a:	0e 10       	rrc	r14		
    5b1c:	12 c3       	clrc			
    5b1e:	0f 10       	rrc	r15		
    5b20:	0e 10       	rrc	r14		
    5b22:	12 c3       	clrc			
    5b24:	0f 10       	rrc	r15		
    5b26:	0e 10       	rrc	r14		
    5b28:	12 c3       	clrc			
    5b2a:	0f 10       	rrc	r15		
    5b2c:	0e 10       	rrc	r14		
    5b2e:	12 c3       	clrc			
    5b30:	0f 10       	rrc	r15		
    5b32:	0e 10       	rrc	r14		
    5b34:	12 c3       	clrc			
    5b36:	0f 10       	rrc	r15		
    5b38:	0e 10       	rrc	r14		
    5b3a:	0c ee       	xor	r14,	r12	
    5b3c:	0d ef       	xor	r15,	r13	
    5b3e:	1e 44 36 ff 	mov	-202(r4),r14	;0xff36(r4)
    5b42:	1f 44 38 ff 	mov	-200(r4),r15	;0xff38(r4)
    5b46:	0e f3       	and	#0,	r14	;r3 As==00
    5b48:	3f f0 00 04 	and	#1024,	r15	;#0x0400
    5b4c:	12 c3       	clrc			
    5b4e:	0f 10       	rrc	r15		
    5b50:	0e 10       	rrc	r14		
    5b52:	12 c3       	clrc			
    5b54:	0f 10       	rrc	r15		
    5b56:	0e 10       	rrc	r14		
    5b58:	12 c3       	clrc			
    5b5a:	0f 10       	rrc	r15		
    5b5c:	0e 10       	rrc	r14		
    5b5e:	12 c3       	clrc			
    5b60:	0f 10       	rrc	r15		
    5b62:	0e 10       	rrc	r14		
    5b64:	12 c3       	clrc			
    5b66:	0f 10       	rrc	r15		
    5b68:	0e 10       	rrc	r14		
    5b6a:	0c ee       	xor	r14,	r12	
    5b6c:	0d ef       	xor	r15,	r13	
    5b6e:	1e 44 36 ff 	mov	-202(r4),r14	;0xff36(r4)
    5b72:	1f 44 38 ff 	mov	-200(r4),r15	;0xff38(r4)
    5b76:	0e f3       	and	#0,	r14	;r3 As==00
    5b78:	3f f0 00 08 	and	#2048,	r15	;#0x0800
    5b7c:	0e 4f       	mov	r15,	r14	
    5b7e:	0f 43       	clr	r15		
    5b80:	84 4e 94 ff 	mov	r14,	-108(r4);0xff94(r4)
    5b84:	84 4f 96 ff 	mov	r15,	-106(r4);0xff96(r4)
    5b88:	12 c3       	clrc			
    5b8a:	14 10 96 ff 	rrc	-106(r4)	;0xff96(r4)
    5b8e:	14 10 94 ff 	rrc	-108(r4)	;0xff94(r4)
    5b92:	12 c3       	clrc			
    5b94:	14 10 96 ff 	rrc	-106(r4)	;0xff96(r4)
    5b98:	14 10 94 ff 	rrc	-108(r4)	;0xff94(r4)
    5b9c:	12 c3       	clrc			
    5b9e:	14 10 96 ff 	rrc	-106(r4)	;0xff96(r4)
    5ba2:	14 10 94 ff 	rrc	-108(r4)	;0xff94(r4)
    5ba6:	12 c3       	clrc			
    5ba8:	14 10 96 ff 	rrc	-106(r4)	;0xff96(r4)
    5bac:	14 10 94 ff 	rrc	-108(r4)	;0xff94(r4)
    5bb0:	12 c3       	clrc			
    5bb2:	14 10 96 ff 	rrc	-106(r4)	;0xff96(r4)
    5bb6:	14 10 94 ff 	rrc	-108(r4)	;0xff94(r4)
    5bba:	1c e4 94 ff 	xor	-108(r4),r12	;0xff94(r4)
    5bbe:	1d e4 96 ff 	xor	-106(r4),r13	;0xff96(r4)
    5bc2:	1e 44 36 ff 	mov	-202(r4),r14	;0xff36(r4)
    5bc6:	1f 44 38 ff 	mov	-200(r4),r15	;0xff38(r4)
    5bca:	0e f3       	and	#0,	r14	;r3 As==00
    5bcc:	3f f0 00 10 	and	#4096,	r15	;#0x1000
    5bd0:	0e 43       	clr	r14		
    5bd2:	8f 10       	swpb	r15		
    5bd4:	4f 4f       	mov.b	r15,	r15	
    5bd6:	84 4f 98 ff 	mov	r15,	-104(r4);0xff98(r4)
    5bda:	84 4e 9a ff 	mov	r14,	-102(r4);0xff9a(r4)
    5bde:	1c e4 98 ff 	xor	-104(r4),r12	;0xff98(r4)
    5be2:	1d e4 9a ff 	xor	-102(r4),r13	;0xff9a(r4)
    5be6:	1e 44 36 ff 	mov	-202(r4),r14	;0xff36(r4)
    5bea:	1f 44 38 ff 	mov	-200(r4),r15	;0xff38(r4)
    5bee:	0e f3       	and	#0,	r14	;r3 As==00
    5bf0:	3f f0 00 20 	and	#8192,	r15	;#0x2000
    5bf4:	12 c3       	clrc			
    5bf6:	0f 10       	rrc	r15		
    5bf8:	0e 10       	rrc	r14		
    5bfa:	12 c3       	clrc			
    5bfc:	0f 10       	rrc	r15		
    5bfe:	0e 10       	rrc	r14		
    5c00:	12 c3       	clrc			
    5c02:	0f 10       	rrc	r15		
    5c04:	0e 10       	rrc	r14		
    5c06:	0c ee       	xor	r14,	r12	
    5c08:	0d ef       	xor	r15,	r13	
    5c0a:	1e 44 36 ff 	mov	-202(r4),r14	;0xff36(r4)
    5c0e:	1f 44 38 ff 	mov	-200(r4),r15	;0xff38(r4)
    5c12:	0e f3       	and	#0,	r14	;r3 As==00
    5c14:	3f f0 00 40 	and	#16384,	r15	;#0x4000
    5c18:	0e 4f       	mov	r15,	r14	
    5c1a:	0f 43       	clr	r15		
    5c1c:	84 4e 9c ff 	mov	r14,	-100(r4);0xff9c(r4)
    5c20:	84 4f 9e ff 	mov	r15,	-98(r4)	;0xff9e(r4)
    5c24:	1c e4 9c ff 	xor	-100(r4),r12	;0xff9c(r4)
    5c28:	1d e4 9e ff 	xor	-98(r4),r13	;0xff9e(r4)
    5c2c:	1e 44 36 ff 	mov	-202(r4),r14	;0xff36(r4)
    5c30:	1f 44 38 ff 	mov	-200(r4),r15	;0xff38(r4)
    5c34:	0e f3       	and	#0,	r14	;r3 As==00
    5c36:	3f f0 00 80 	and	#-32768,r15	;#0x8000
    5c3a:	8e 10       	swpb	r14		
    5c3c:	8f 10       	swpb	r15		
    5c3e:	4e ef       	xor.b	r15,	r14	
    5c40:	0e ef       	xor	r15,	r14	
    5c42:	4f 4f       	mov.b	r15,	r15	
    5c44:	12 c3       	clrc			
    5c46:	0f 10       	rrc	r15		
    5c48:	0e 10       	rrc	r14		
    5c4a:	12 c3       	clrc			
    5c4c:	0f 10       	rrc	r15		
    5c4e:	0e 10       	rrc	r14		
    5c50:	12 c3       	clrc			
    5c52:	0f 10       	rrc	r15		
    5c54:	0e 10       	rrc	r14		
    5c56:	0a 4c       	mov	r12,	r10	
    5c58:	0b 4d       	mov	r13,	r11	
    5c5a:	0a ee       	xor	r14,	r10	
    5c5c:	0b ef       	xor	r15,	r11	
    5c5e:	84 4a 36 ff 	mov	r10,	-202(r4);0xff36(r4)
    5c62:	84 4b 38 ff 	mov	r11,	-200(r4);0xff38(r4)
    5c66:	94 e4 36 ff 	xor	-202(r4),-210(r4);0xff36(r4), 0xff2e(r4)
    5c6a:	2e ff 
    5c6c:	94 e4 38 ff 	xor	-200(r4),-208(r4);0xff38(r4), 0xff30(r4)
    5c70:	30 ff 
        DES_ROUND( X, Y );
    5c72:	1f 44 2e ff 	mov	-210(r4),r15	;0xff2e(r4)
    5c76:	0f 5f       	rla	r15		
    5c78:	0f 43       	clr	r15		
    5c7a:	0f 6f       	rlc	r15		
    5c7c:	0e 4f       	mov	r15,	r14	
    5c7e:	1f 44 30 ff 	mov	-208(r4),r15	;0xff30(r4)
    5c82:	0f 5f       	rla	r15		
    5c84:	0b 4e       	mov	r14,	r11	
    5c86:	0b df       	bis	r15,	r11	
    5c88:	84 4b a2 ff 	mov	r11,	-94(r4)	;0xffa2(r4)
    5c8c:	1f 44 30 ff 	mov	-208(r4),r15	;0xff30(r4)
    5c90:	0f 5f       	rla	r15		
    5c92:	0f 43       	clr	r15		
    5c94:	0f 6f       	rlc	r15		
    5c96:	0e 4f       	mov	r15,	r14	
    5c98:	1f 44 2e ff 	mov	-210(r4),r15	;0xff2e(r4)
    5c9c:	0f 5f       	rla	r15		
    5c9e:	0c 4e       	mov	r14,	r12	
    5ca0:	0c df       	bis	r15,	r12	
    5ca2:	84 4c a0 ff 	mov	r12,	-96(r4)	;0xffa0(r4)
    5ca6:	1f 44 3a ff 	mov	-198(r4),r15	;0xff3a(r4)
    5caa:	2e 4f       	mov	@r15,	r14	
    5cac:	1f 4f 02 00 	mov	2(r15),	r15	;0x0002(r15)
    5cb0:	1e e4 a0 ff 	xor	-96(r4),r14	;0xffa0(r4)
    5cb4:	1f e4 a2 ff 	xor	-94(r4),r15	;0xffa2(r4)
    5cb8:	3e f0 3f 00 	and	#63,	r14	;#0x003f
    5cbc:	0f f3       	and	#0,	r15	;r3 As==00
    5cbe:	0f 4e       	mov	r14,	r15	
    5cc0:	3f 50 d0 80 	add	#-32560,r15	;#0x80d0
    5cc4:	6f 4f       	mov.b	@r15,	r15	
    5cc6:	4b 4f       	mov.b	r15,	r11	
    5cc8:	1c 44 2e ff 	mov	-210(r4),r12	;0xff2e(r4)
    5ccc:	1d 44 30 ff 	mov	-208(r4),r13	;0xff30(r4)
    5cd0:	12 c3       	clrc			
    5cd2:	0d 10       	rrc	r13		
    5cd4:	0c 10       	rrc	r12		
    5cd6:	12 c3       	clrc			
    5cd8:	0d 10       	rrc	r13		
    5cda:	0c 10       	rrc	r12		
    5cdc:	12 c3       	clrc			
    5cde:	0d 10       	rrc	r13		
    5ce0:	0c 10       	rrc	r12		
    5ce2:	1f 44 3a ff 	mov	-198(r4),r15	;0xff3a(r4)
    5ce6:	2e 4f       	mov	@r15,	r14	
    5ce8:	1f 4f 02 00 	mov	2(r15),	r15	;0x0002(r15)
    5cec:	12 c3       	clrc			
    5cee:	0f 10       	rrc	r15		
    5cf0:	0e 10       	rrc	r14		
    5cf2:	12 c3       	clrc			
    5cf4:	0f 10       	rrc	r15		
    5cf6:	0e 10       	rrc	r14		
    5cf8:	12 c3       	clrc			
    5cfa:	0f 10       	rrc	r15		
    5cfc:	0e 10       	rrc	r14		
    5cfe:	12 c3       	clrc			
    5d00:	0f 10       	rrc	r15		
    5d02:	0e 10       	rrc	r14		
    5d04:	12 c3       	clrc			
    5d06:	0f 10       	rrc	r15		
    5d08:	0e 10       	rrc	r14		
    5d0a:	12 c3       	clrc			
    5d0c:	0f 10       	rrc	r15		
    5d0e:	0e 10       	rrc	r14		
    5d10:	0e ec       	xor	r12,	r14	
    5d12:	0f ed       	xor	r13,	r15	
    5d14:	3e f0 3f 00 	and	#63,	r14	;#0x003f
    5d18:	0f f3       	and	#0,	r15	;r3 As==00
    5d1a:	0f 4e       	mov	r14,	r15	
    5d1c:	3f 50 d0 80 	add	#-32560,r15	;#0x80d0
    5d20:	6f 4f       	mov.b	@r15,	r15	
    5d22:	4f 4f       	mov.b	r15,	r15	
    5d24:	0f 5f       	rla	r15		
    5d26:	0f 5f       	rla	r15		
    5d28:	0f 5f       	rla	r15		
    5d2a:	0f 5f       	rla	r15		
    5d2c:	0b ef       	xor	r15,	r11	
    5d2e:	1c 44 2e ff 	mov	-210(r4),r12	;0xff2e(r4)
    5d32:	1d 44 30 ff 	mov	-208(r4),r13	;0xff30(r4)
    5d36:	12 c3       	clrc			
    5d38:	0d 10       	rrc	r13		
    5d3a:	0c 10       	rrc	r12		
    5d3c:	12 c3       	clrc			
    5d3e:	0d 10       	rrc	r13		
    5d40:	0c 10       	rrc	r12		
    5d42:	12 c3       	clrc			
    5d44:	0d 10       	rrc	r13		
    5d46:	0c 10       	rrc	r12		
    5d48:	12 c3       	clrc			
    5d4a:	0d 10       	rrc	r13		
    5d4c:	0c 10       	rrc	r12		
    5d4e:	12 c3       	clrc			
    5d50:	0d 10       	rrc	r13		
    5d52:	0c 10       	rrc	r12		
    5d54:	12 c3       	clrc			
    5d56:	0d 10       	rrc	r13		
    5d58:	0c 10       	rrc	r12		
    5d5a:	12 c3       	clrc			
    5d5c:	0d 10       	rrc	r13		
    5d5e:	0c 10       	rrc	r12		
    5d60:	1f 44 3a ff 	mov	-198(r4),r15	;0xff3a(r4)
    5d64:	2e 4f       	mov	@r15,	r14	
    5d66:	1f 4f 02 00 	mov	2(r15),	r15	;0x0002(r15)
    5d6a:	8e 10       	swpb	r14		
    5d6c:	8f 10       	swpb	r15		
    5d6e:	4e ef       	xor.b	r15,	r14	
    5d70:	0e ef       	xor	r15,	r14	
    5d72:	4f 4f       	mov.b	r15,	r15	
    5d74:	12 c3       	clrc			
    5d76:	0f 10       	rrc	r15		
    5d78:	0e 10       	rrc	r14		
    5d7a:	12 c3       	clrc			
    5d7c:	0f 10       	rrc	r15		
    5d7e:	0e 10       	rrc	r14		
    5d80:	12 c3       	clrc			
    5d82:	0f 10       	rrc	r15		
    5d84:	0e 10       	rrc	r14		
    5d86:	12 c3       	clrc			
    5d88:	0f 10       	rrc	r15		
    5d8a:	0e 10       	rrc	r14		
    5d8c:	0e ec       	xor	r12,	r14	
    5d8e:	0f ed       	xor	r13,	r15	
    5d90:	3e f0 3f 00 	and	#63,	r14	;#0x003f
    5d94:	0f f3       	and	#0,	r15	;r3 As==00
    5d96:	0f 4e       	mov	r14,	r15	
    5d98:	3f 50 d0 80 	add	#-32560,r15	;#0x80d0
    5d9c:	6f 4f       	mov.b	@r15,	r15	
    5d9e:	4f 4f       	mov.b	r15,	r15	
    5da0:	4f 4f       	mov.b	r15,	r15	
    5da2:	8f 10       	swpb	r15		
    5da4:	0b ef       	xor	r15,	r11	
    5da6:	1c 44 2e ff 	mov	-210(r4),r12	;0xff2e(r4)
    5daa:	1d 44 30 ff 	mov	-208(r4),r13	;0xff30(r4)
    5dae:	8c 10       	swpb	r12		
    5db0:	8d 10       	swpb	r13		
    5db2:	4c ed       	xor.b	r13,	r12	
    5db4:	0c ed       	xor	r13,	r12	
    5db6:	4d 4d       	mov.b	r13,	r13	
    5db8:	12 c3       	clrc			
    5dba:	0d 10       	rrc	r13		
    5dbc:	0c 10       	rrc	r12		
    5dbe:	12 c3       	clrc			
    5dc0:	0d 10       	rrc	r13		
    5dc2:	0c 10       	rrc	r12		
    5dc4:	12 c3       	clrc			
    5dc6:	0d 10       	rrc	r13		
    5dc8:	0c 10       	rrc	r12		
    5dca:	1f 44 3a ff 	mov	-198(r4),r15	;0xff3a(r4)
    5dce:	2e 4f       	mov	@r15,	r14	
    5dd0:	1f 4f 02 00 	mov	2(r15),	r15	;0x0002(r15)
    5dd4:	0e 4f       	mov	r15,	r14	
    5dd6:	0f 43       	clr	r15		
    5dd8:	84 4e a4 ff 	mov	r14,	-92(r4)	;0xffa4(r4)
    5ddc:	84 4f a6 ff 	mov	r15,	-90(r4)	;0xffa6(r4)
    5de0:	12 c3       	clrc			
    5de2:	14 10 a6 ff 	rrc	-90(r4)	;0xffa6(r4)
    5de6:	14 10 a4 ff 	rrc	-92(r4)	;0xffa4(r4)
    5dea:	12 c3       	clrc			
    5dec:	14 10 a6 ff 	rrc	-90(r4)	;0xffa6(r4)
    5df0:	14 10 a4 ff 	rrc	-92(r4)	;0xffa4(r4)
    5df4:	1e 44 a4 ff 	mov	-92(r4),r14	;0xffa4(r4)
    5df8:	1f 44 a6 ff 	mov	-90(r4),r15	;0xffa6(r4)
    5dfc:	0e ec       	xor	r12,	r14	
    5dfe:	0f ed       	xor	r13,	r15	
    5e00:	3e f0 3f 00 	and	#63,	r14	;#0x003f
    5e04:	0f f3       	and	#0,	r15	;r3 As==00
    5e06:	0f 4e       	mov	r14,	r15	
    5e08:	3f 50 d0 80 	add	#-32560,r15	;#0x80d0
    5e0c:	6f 4f       	mov.b	@r15,	r15	
    5e0e:	4f 4f       	mov.b	r15,	r15	
    5e10:	4f 4f       	mov.b	r15,	r15	
    5e12:	8f 10       	swpb	r15		
    5e14:	0f 5f       	rla	r15		
    5e16:	0f 5f       	rla	r15		
    5e18:	0f 5f       	rla	r15		
    5e1a:	0f 5f       	rla	r15		
    5e1c:	0b ef       	xor	r15,	r11	
    5e1e:	1c 44 2e ff 	mov	-210(r4),r12	;0xff2e(r4)
    5e22:	1d 44 30 ff 	mov	-208(r4),r13	;0xff30(r4)
    5e26:	8c 10       	swpb	r12		
    5e28:	8d 10       	swpb	r13		
    5e2a:	4c ed       	xor.b	r13,	r12	
    5e2c:	0c ed       	xor	r13,	r12	
    5e2e:	4d 4d       	mov.b	r13,	r13	
    5e30:	12 c3       	clrc			
    5e32:	0d 10       	rrc	r13		
    5e34:	0c 10       	rrc	r12		
    5e36:	12 c3       	clrc			
    5e38:	0d 10       	rrc	r13		
    5e3a:	0c 10       	rrc	r12		
    5e3c:	12 c3       	clrc			
    5e3e:	0d 10       	rrc	r13		
    5e40:	0c 10       	rrc	r12		
    5e42:	12 c3       	clrc			
    5e44:	0d 10       	rrc	r13		
    5e46:	0c 10       	rrc	r12		
    5e48:	12 c3       	clrc			
    5e4a:	0d 10       	rrc	r13		
    5e4c:	0c 10       	rrc	r12		
    5e4e:	12 c3       	clrc			
    5e50:	0d 10       	rrc	r13		
    5e52:	0c 10       	rrc	r12		
    5e54:	12 c3       	clrc			
    5e56:	0d 10       	rrc	r13		
    5e58:	0c 10       	rrc	r12		
    5e5a:	1f 44 3a ff 	mov	-198(r4),r15	;0xff3a(r4)
    5e5e:	2e 4f       	mov	@r15,	r14	
    5e60:	1f 4f 02 00 	mov	2(r15),	r15	;0x0002(r15)
    5e64:	0e 43       	clr	r14		
    5e66:	8f 10       	swpb	r15		
    5e68:	4f 4f       	mov.b	r15,	r15	
    5e6a:	84 4f a8 ff 	mov	r15,	-88(r4)	;0xffa8(r4)
    5e6e:	84 4e aa ff 	mov	r14,	-86(r4)	;0xffaa(r4)
    5e72:	1e 44 a8 ff 	mov	-88(r4),r14	;0xffa8(r4)
    5e76:	1f 44 aa ff 	mov	-86(r4),r15	;0xffaa(r4)
    5e7a:	0e ec       	xor	r12,	r14	
    5e7c:	0f ed       	xor	r13,	r15	
    5e7e:	3e f0 3f 00 	and	#63,	r14	;#0x003f
    5e82:	0f f3       	and	#0,	r15	;r3 As==00
    5e84:	0f 4e       	mov	r14,	r15	
    5e86:	3f 50 d0 80 	add	#-32560,r15	;#0x80d0
    5e8a:	6f 4f       	mov.b	@r15,	r15	
    5e8c:	4f 4f       	mov.b	r15,	r15	
    5e8e:	0b ef       	xor	r15,	r11	
    5e90:	1e 44 30 ff 	mov	-208(r4),r14	;0xff30(r4)
    5e94:	0f 43       	clr	r15		
    5e96:	84 4e ac ff 	mov	r14,	-84(r4)	;0xffac(r4)
    5e9a:	84 4f ae ff 	mov	r15,	-82(r4)	;0xffae(r4)
    5e9e:	12 c3       	clrc			
    5ea0:	14 10 ae ff 	rrc	-82(r4)	;0xffae(r4)
    5ea4:	14 10 ac ff 	rrc	-84(r4)	;0xffac(r4)
    5ea8:	12 c3       	clrc			
    5eaa:	14 10 ae ff 	rrc	-82(r4)	;0xffae(r4)
    5eae:	14 10 ac ff 	rrc	-84(r4)	;0xffac(r4)
    5eb2:	12 c3       	clrc			
    5eb4:	14 10 ae ff 	rrc	-82(r4)	;0xffae(r4)
    5eb8:	14 10 ac ff 	rrc	-84(r4)	;0xffac(r4)
    5ebc:	1f 44 3a ff 	mov	-198(r4),r15	;0xff3a(r4)
    5ec0:	2e 4f       	mov	@r15,	r14	
    5ec2:	1f 4f 02 00 	mov	2(r15),	r15	;0x0002(r15)
    5ec6:	0e 43       	clr	r14		
    5ec8:	8f 10       	swpb	r15		
    5eca:	4f 4f       	mov.b	r15,	r15	
    5ecc:	84 4f b0 ff 	mov	r15,	-80(r4)	;0xffb0(r4)
    5ed0:	84 4e b2 ff 	mov	r14,	-78(r4)	;0xffb2(r4)
    5ed4:	12 c3       	clrc			
    5ed6:	14 10 b2 ff 	rrc	-78(r4)	;0xffb2(r4)
    5eda:	14 10 b0 ff 	rrc	-80(r4)	;0xffb0(r4)
    5ede:	12 c3       	clrc			
    5ee0:	14 10 b2 ff 	rrc	-78(r4)	;0xffb2(r4)
    5ee4:	14 10 b0 ff 	rrc	-80(r4)	;0xffb0(r4)
    5ee8:	12 c3       	clrc			
    5eea:	14 10 b2 ff 	rrc	-78(r4)	;0xffb2(r4)
    5eee:	14 10 b0 ff 	rrc	-80(r4)	;0xffb0(r4)
    5ef2:	12 c3       	clrc			
    5ef4:	14 10 b2 ff 	rrc	-78(r4)	;0xffb2(r4)
    5ef8:	14 10 b0 ff 	rrc	-80(r4)	;0xffb0(r4)
    5efc:	12 c3       	clrc			
    5efe:	14 10 b2 ff 	rrc	-78(r4)	;0xffb2(r4)
    5f02:	14 10 b0 ff 	rrc	-80(r4)	;0xffb0(r4)
    5f06:	12 c3       	clrc			
    5f08:	14 10 b2 ff 	rrc	-78(r4)	;0xffb2(r4)
    5f0c:	14 10 b0 ff 	rrc	-80(r4)	;0xffb0(r4)
    5f10:	1c 44 ac ff 	mov	-84(r4),r12	;0xffac(r4)
    5f14:	1d 44 ae ff 	mov	-82(r4),r13	;0xffae(r4)
    5f18:	1c e4 b0 ff 	xor	-80(r4),r12	;0xffb0(r4)
    5f1c:	1d e4 b2 ff 	xor	-78(r4),r13	;0xffb2(r4)
    5f20:	1f 44 3a ff 	mov	-198(r4),r15	;0xff3a(r4)
    5f24:	2e 4f       	mov	@r15,	r14	
    5f26:	1f 4f 02 00 	mov	2(r15),	r15	;0x0002(r15)
    5f2a:	0e 5e       	rla	r14		
    5f2c:	0f 6f       	rlc	r15		
    5f2e:	0e 5e       	rla	r14		
    5f30:	0f 6f       	rlc	r15		
    5f32:	0e ec       	xor	r12,	r14	
    5f34:	0f ed       	xor	r13,	r15	
    5f36:	3e f0 3f 00 	and	#63,	r14	;#0x003f
    5f3a:	0f f3       	and	#0,	r15	;r3 As==00
    5f3c:	0f 4e       	mov	r14,	r15	
    5f3e:	3f 50 d0 80 	add	#-32560,r15	;#0x80d0
    5f42:	6f 4f       	mov.b	@r15,	r15	
    5f44:	4f 4f       	mov.b	r15,	r15	
    5f46:	0f 5f       	rla	r15		
    5f48:	0f 5f       	rla	r15		
    5f4a:	0f 5f       	rla	r15		
    5f4c:	0f 5f       	rla	r15		
    5f4e:	0d 4b       	mov	r11,	r13	
    5f50:	0d ef       	xor	r15,	r13	
    5f52:	1e 44 30 ff 	mov	-208(r4),r14	;0xff30(r4)
    5f56:	0f 43       	clr	r15		
    5f58:	84 4e b4 ff 	mov	r14,	-76(r4)	;0xffb4(r4)
    5f5c:	84 4f b6 ff 	mov	r15,	-74(r4)	;0xffb6(r4)
    5f60:	12 c3       	clrc			
    5f62:	14 10 b6 ff 	rrc	-74(r4)	;0xffb6(r4)
    5f66:	14 10 b4 ff 	rrc	-76(r4)	;0xffb4(r4)
    5f6a:	12 c3       	clrc			
    5f6c:	14 10 b6 ff 	rrc	-74(r4)	;0xffb6(r4)
    5f70:	14 10 b4 ff 	rrc	-76(r4)	;0xffb4(r4)
    5f74:	12 c3       	clrc			
    5f76:	14 10 b6 ff 	rrc	-74(r4)	;0xffb6(r4)
    5f7a:	14 10 b4 ff 	rrc	-76(r4)	;0xffb4(r4)
    5f7e:	12 c3       	clrc			
    5f80:	14 10 b6 ff 	rrc	-74(r4)	;0xffb6(r4)
    5f84:	14 10 b4 ff 	rrc	-76(r4)	;0xffb4(r4)
    5f88:	12 c3       	clrc			
    5f8a:	14 10 b6 ff 	rrc	-74(r4)	;0xffb6(r4)
    5f8e:	14 10 b4 ff 	rrc	-76(r4)	;0xffb4(r4)
    5f92:	12 c3       	clrc			
    5f94:	14 10 b6 ff 	rrc	-74(r4)	;0xffb6(r4)
    5f98:	14 10 b4 ff 	rrc	-76(r4)	;0xffb4(r4)
    5f9c:	12 c3       	clrc			
    5f9e:	14 10 b6 ff 	rrc	-74(r4)	;0xffb6(r4)
    5fa2:	14 10 b4 ff 	rrc	-76(r4)	;0xffb4(r4)
    5fa6:	1f 44 3a ff 	mov	-198(r4),r15	;0xff3a(r4)
    5faa:	2e 4f       	mov	@r15,	r14	
    5fac:	1f 4f 02 00 	mov	2(r15),	r15	;0x0002(r15)
    5fb0:	12 c3       	clrc			
    5fb2:	0f 10       	rrc	r15		
    5fb4:	0e 10       	rrc	r14		
    5fb6:	12 c3       	clrc			
    5fb8:	0f 10       	rrc	r15		
    5fba:	0e 10       	rrc	r14		
    5fbc:	12 c3       	clrc			
    5fbe:	0f 10       	rrc	r15		
    5fc0:	0e 10       	rrc	r14		
    5fc2:	12 c3       	clrc			
    5fc4:	0f 10       	rrc	r15		
    5fc6:	0e 10       	rrc	r14		
    5fc8:	1e e4 b4 ff 	xor	-76(r4),r14	;0xffb4(r4)
    5fcc:	1f e4 b6 ff 	xor	-74(r4),r15	;0xffb6(r4)
    5fd0:	3e f0 3f 00 	and	#63,	r14	;#0x003f
    5fd4:	0f f3       	and	#0,	r15	;r3 As==00
    5fd6:	0f 4e       	mov	r14,	r15	
    5fd8:	3f 50 d0 80 	add	#-32560,r15	;#0x80d0
    5fdc:	6f 4f       	mov.b	@r15,	r15	
    5fde:	4f 4f       	mov.b	r15,	r15	
    5fe0:	4f 4f       	mov.b	r15,	r15	
    5fe2:	8f 10       	swpb	r15		
    5fe4:	0d ef       	xor	r15,	r13	
    5fe6:	1f 44 30 ff 	mov	-208(r4),r15	;0xff30(r4)
    5fea:	0e 43       	clr	r14		
    5fec:	8f 10       	swpb	r15		
    5fee:	4f 4f       	mov.b	r15,	r15	
    5ff0:	84 4f b8 ff 	mov	r15,	-72(r4)	;0xffb8(r4)
    5ff4:	84 4e ba ff 	mov	r14,	-70(r4)	;0xffba(r4)
    5ff8:	12 c3       	clrc			
    5ffa:	14 10 ba ff 	rrc	-70(r4)	;0xffba(r4)
    5ffe:	14 10 b8 ff 	rrc	-72(r4)	;0xffb8(r4)
    6002:	12 c3       	clrc			
    6004:	14 10 ba ff 	rrc	-70(r4)	;0xffba(r4)
    6008:	14 10 b8 ff 	rrc	-72(r4)	;0xffb8(r4)
    600c:	12 c3       	clrc			
    600e:	14 10 ba ff 	rrc	-70(r4)	;0xffba(r4)
    6012:	14 10 b8 ff 	rrc	-72(r4)	;0xffb8(r4)
    6016:	1f 44 3a ff 	mov	-198(r4),r15	;0xff3a(r4)
    601a:	2e 4f       	mov	@r15,	r14	
    601c:	1f 4f 02 00 	mov	2(r15),	r15	;0x0002(r15)
    6020:	8e 10       	swpb	r14		
    6022:	8f 10       	swpb	r15		
    6024:	4e ef       	xor.b	r15,	r14	
    6026:	0e ef       	xor	r15,	r14	
    6028:	4f 4f       	mov.b	r15,	r15	
    602a:	12 c3       	clrc			
    602c:	0f 10       	rrc	r15		
    602e:	0e 10       	rrc	r14		
    6030:	12 c3       	clrc			
    6032:	0f 10       	rrc	r15		
    6034:	0e 10       	rrc	r14		
    6036:	1e e4 b8 ff 	xor	-72(r4),r14	;0xffb8(r4)
    603a:	1f e4 ba ff 	xor	-70(r4),r15	;0xffba(r4)
    603e:	3e f0 3f 00 	and	#63,	r14	;#0x003f
    6042:	0f f3       	and	#0,	r15	;r3 As==00
    6044:	0f 4e       	mov	r14,	r15	
    6046:	3f 50 d0 80 	add	#-32560,r15	;#0x80d0
    604a:	6f 4f       	mov.b	@r15,	r15	
    604c:	4f 4f       	mov.b	r15,	r15	
    604e:	4f 4f       	mov.b	r15,	r15	
    6050:	8f 10       	swpb	r15		
    6052:	0f 5f       	rla	r15		
    6054:	0f 5f       	rla	r15		
    6056:	0f 5f       	rla	r15		
    6058:	0f 5f       	rla	r15		
    605a:	0f ed       	xor	r13,	r15	
    605c:	84 4f 36 ff 	mov	r15,	-202(r4);0xff36(r4)
    6060:	1f 44 36 ff 	mov	-202(r4),r15	;0xff36(r4)
    6064:	8f 10       	swpb	r15		
    6066:	8f 11       	sxt	r15		
    6068:	8f 10       	swpb	r15		
    606a:	8f 11       	sxt	r15		
    606c:	84 4f 38 ff 	mov	r15,	-200(r4);0xff38(r4)
    6070:	a4 52 3a ff 	add	#4,	-198(r4);r2 As==10, 0xff3a(r4)
    6074:	a4 52 3a ff 	add	#4,	-198(r4);r2 As==10, 0xff3a(r4)
    6078:	1e 44 36 ff 	mov	-202(r4),r14	;0xff36(r4)
    607c:	1f 44 38 ff 	mov	-200(r4),r15	;0xff38(r4)
    6080:	1e f3       	and	#1,	r14	;r3 As==01
    6082:	0f f3       	and	#0,	r15	;r3 As==00
    6084:	0c 4e       	mov	r14,	r12	
    6086:	0d 4f       	mov	r15,	r13	
    6088:	4d ec       	xor.b	r12,	r13	
    608a:	0d ec       	xor	r12,	r13	
    608c:	8d 10       	swpb	r13		
    608e:	4c 4c       	mov.b	r12,	r12	
    6090:	8c 10       	swpb	r12		
    6092:	1e 44 36 ff 	mov	-202(r4),r14	;0xff36(r4)
    6096:	1f 44 38 ff 	mov	-200(r4),r15	;0xff38(r4)
    609a:	2e f3       	and	#2,	r14	;r3 As==10
    609c:	0f f3       	and	#0,	r15	;r3 As==00
    609e:	4f ee       	xor.b	r14,	r15	
    60a0:	0f ee       	xor	r14,	r15	
    60a2:	8f 10       	swpb	r15		
    60a4:	4e 4e       	mov.b	r14,	r14	
    60a6:	8e 10       	swpb	r14		
    60a8:	0e 5e       	rla	r14		
    60aa:	0f 6f       	rlc	r15		
    60ac:	0e 5e       	rla	r14		
    60ae:	0f 6f       	rlc	r15		
    60b0:	0e 5e       	rla	r14		
    60b2:	0f 6f       	rlc	r15		
    60b4:	0e 5e       	rla	r14		
    60b6:	0f 6f       	rlc	r15		
    60b8:	0e 5e       	rla	r14		
    60ba:	0f 6f       	rlc	r15		
    60bc:	0e 5e       	rla	r14		
    60be:	0f 6f       	rlc	r15		
    60c0:	0e 5e       	rla	r14		
    60c2:	0f 6f       	rlc	r15		
    60c4:	0c ee       	xor	r14,	r12	
    60c6:	0d ef       	xor	r15,	r13	
    60c8:	1e 44 36 ff 	mov	-202(r4),r14	;0xff36(r4)
    60cc:	1f 44 38 ff 	mov	-200(r4),r15	;0xff38(r4)
    60d0:	2e f2       	and	#4,	r14	;r2 As==10
    60d2:	0f f3       	and	#0,	r15	;r3 As==00
    60d4:	0f 43       	clr	r15		
    60d6:	84 4f bc ff 	mov	r15,	-68(r4)	;0xffbc(r4)
    60da:	84 4e be ff 	mov	r14,	-66(r4)	;0xffbe(r4)
    60de:	94 54 bc ff 	rla	-68(r4)	;0xffbc(r4)
    60e2:	bc ff 
    60e4:	94 64 be ff 	rlc	-66(r4)	;0xffbe(r4)
    60e8:	be ff 
    60ea:	94 54 bc ff 	rla	-68(r4)	;0xffbc(r4)
    60ee:	bc ff 
    60f0:	94 64 be ff 	rlc	-66(r4)	;0xffbe(r4)
    60f4:	be ff 
    60f6:	94 54 bc ff 	rla	-68(r4)	;0xffbc(r4)
    60fa:	bc ff 
    60fc:	94 64 be ff 	rlc	-66(r4)	;0xffbe(r4)
    6100:	be ff 
    6102:	94 54 bc ff 	rla	-68(r4)	;0xffbc(r4)
    6106:	bc ff 
    6108:	94 64 be ff 	rlc	-66(r4)	;0xffbe(r4)
    610c:	be ff 
    610e:	1c e4 bc ff 	xor	-68(r4),r12	;0xffbc(r4)
    6112:	1d e4 be ff 	xor	-66(r4),r13	;0xffbe(r4)
    6116:	1e 44 36 ff 	mov	-202(r4),r14	;0xff36(r4)
    611a:	1f 44 38 ff 	mov	-200(r4),r15	;0xff38(r4)
    611e:	3e f2       	and	#8,	r14	;r2 As==11
    6120:	0f f3       	and	#0,	r15	;r3 As==00
    6122:	0f 4e       	mov	r14,	r15	
    6124:	0e 43       	clr	r14		
    6126:	4f 4f       	mov.b	r15,	r15	
    6128:	8f 10       	swpb	r15		
    612a:	84 4e c0 ff 	mov	r14,	-64(r4)	;0xffc0(r4)
    612e:	84 4f c2 ff 	mov	r15,	-62(r4)	;0xffc2(r4)
    6132:	94 54 c0 ff 	rla	-64(r4)	;0xffc0(r4)
    6136:	c0 ff 
    6138:	94 64 c2 ff 	rlc	-62(r4)	;0xffc2(r4)
    613c:	c2 ff 
    613e:	94 54 c0 ff 	rla	-64(r4)	;0xffc0(r4)
    6142:	c0 ff 
    6144:	94 64 c2 ff 	rlc	-62(r4)	;0xffc2(r4)
    6148:	c2 ff 
    614a:	94 54 c0 ff 	rla	-64(r4)	;0xffc0(r4)
    614e:	c0 ff 
    6150:	94 64 c2 ff 	rlc	-62(r4)	;0xffc2(r4)
    6154:	c2 ff 
    6156:	1c e4 c0 ff 	xor	-64(r4),r12	;0xffc0(r4)
    615a:	1d e4 c2 ff 	xor	-62(r4),r13	;0xffc2(r4)
    615e:	1e 44 36 ff 	mov	-202(r4),r14	;0xff36(r4)
    6162:	1f 44 38 ff 	mov	-200(r4),r15	;0xff38(r4)
    6166:	3e f0 10 00 	and	#16,	r14	;#0x0010
    616a:	0f f3       	and	#0,	r15	;r3 As==00
    616c:	4f ee       	xor.b	r14,	r15	
    616e:	0f ee       	xor	r14,	r15	
    6170:	8f 10       	swpb	r15		
    6172:	4e 4e       	mov.b	r14,	r14	
    6174:	8e 10       	swpb	r14		
    6176:	0c ee       	xor	r14,	r12	
    6178:	0d ef       	xor	r15,	r13	
    617a:	1e 44 36 ff 	mov	-202(r4),r14	;0xff36(r4)
    617e:	1f 44 38 ff 	mov	-200(r4),r15	;0xff38(r4)
    6182:	3e f0 20 00 	and	#32,	r14	;#0x0020
    6186:	0f f3       	and	#0,	r15	;r3 As==00
    6188:	0f 43       	clr	r15		
    618a:	84 4f c4 ff 	mov	r15,	-60(r4)	;0xffc4(r4)
    618e:	84 4e c6 ff 	mov	r14,	-58(r4)	;0xffc6(r4)
    6192:	94 54 c4 ff 	rla	-60(r4)	;0xffc4(r4)
    6196:	c4 ff 
    6198:	94 64 c6 ff 	rlc	-58(r4)	;0xffc6(r4)
    619c:	c6 ff 
    619e:	94 54 c4 ff 	rla	-60(r4)	;0xffc4(r4)
    61a2:	c4 ff 
    61a4:	94 64 c6 ff 	rlc	-58(r4)	;0xffc6(r4)
    61a8:	c6 ff 
    61aa:	94 54 c4 ff 	rla	-60(r4)	;0xffc4(r4)
    61ae:	c4 ff 
    61b0:	94 64 c6 ff 	rlc	-58(r4)	;0xffc6(r4)
    61b4:	c6 ff 
    61b6:	94 54 c4 ff 	rla	-60(r4)	;0xffc4(r4)
    61ba:	c4 ff 
    61bc:	94 64 c6 ff 	rlc	-58(r4)	;0xffc6(r4)
    61c0:	c6 ff 
    61c2:	94 54 c4 ff 	rla	-60(r4)	;0xffc4(r4)
    61c6:	c4 ff 
    61c8:	94 64 c6 ff 	rlc	-58(r4)	;0xffc6(r4)
    61cc:	c6 ff 
    61ce:	94 54 c4 ff 	rla	-60(r4)	;0xffc4(r4)
    61d2:	c4 ff 
    61d4:	94 64 c6 ff 	rlc	-58(r4)	;0xffc6(r4)
    61d8:	c6 ff 
    61da:	1c e4 c4 ff 	xor	-60(r4),r12	;0xffc4(r4)
    61de:	1d e4 c6 ff 	xor	-58(r4),r13	;0xffc6(r4)
    61e2:	1e 44 36 ff 	mov	-202(r4),r14	;0xff36(r4)
    61e6:	1f 44 38 ff 	mov	-200(r4),r15	;0xff38(r4)
    61ea:	3e f0 40 00 	and	#64,	r14	;#0x0040
    61ee:	0f f3       	and	#0,	r15	;r3 As==00
    61f0:	12 c3       	clrc			
    61f2:	0f 10       	rrc	r15		
    61f4:	0e 10       	rrc	r14		
    61f6:	12 c3       	clrc			
    61f8:	0f 10       	rrc	r15		
    61fa:	0e 10       	rrc	r14		
    61fc:	12 c3       	clrc			
    61fe:	0f 10       	rrc	r15		
    6200:	0e 10       	rrc	r14		
    6202:	12 c3       	clrc			
    6204:	0f 10       	rrc	r15		
    6206:	0e 10       	rrc	r14		
    6208:	12 c3       	clrc			
    620a:	0f 10       	rrc	r15		
    620c:	0e 10       	rrc	r14		
    620e:	0c ee       	xor	r14,	r12	
    6210:	0d ef       	xor	r15,	r13	
    6212:	1e 44 36 ff 	mov	-202(r4),r14	;0xff36(r4)
    6216:	1f 44 38 ff 	mov	-200(r4),r15	;0xff38(r4)
    621a:	3e f0 80 00 	and	#128,	r14	;#0x0080
    621e:	0f f3       	and	#0,	r15	;r3 As==00
    6220:	4f ee       	xor.b	r14,	r15	
    6222:	0f ee       	xor	r14,	r15	
    6224:	8f 10       	swpb	r15		
    6226:	4e 4e       	mov.b	r14,	r14	
    6228:	8e 10       	swpb	r14		
    622a:	0e 5e       	rla	r14		
    622c:	0f 6f       	rlc	r15		
    622e:	0e 5e       	rla	r14		
    6230:	0f 6f       	rlc	r15		
    6232:	0c ee       	xor	r14,	r12	
    6234:	0d ef       	xor	r15,	r13	
    6236:	1e 44 36 ff 	mov	-202(r4),r14	;0xff36(r4)
    623a:	1f 44 38 ff 	mov	-200(r4),r15	;0xff38(r4)
    623e:	3e f0 00 01 	and	#256,	r14	;#0x0100
    6242:	0f f3       	and	#0,	r15	;r3 As==00
    6244:	4f ee       	xor.b	r14,	r15	
    6246:	0f ee       	xor	r14,	r15	
    6248:	8f 10       	swpb	r15		
    624a:	4e 4e       	mov.b	r14,	r14	
    624c:	8e 10       	swpb	r14		
    624e:	0e 5e       	rla	r14		
    6250:	0f 6f       	rlc	r15		
    6252:	0e 5e       	rla	r14		
    6254:	0f 6f       	rlc	r15		
    6256:	0e 5e       	rla	r14		
    6258:	0f 6f       	rlc	r15		
    625a:	0e 5e       	rla	r14		
    625c:	0f 6f       	rlc	r15		
    625e:	0e 5e       	rla	r14		
    6260:	0f 6f       	rlc	r15		
    6262:	0e 5e       	rla	r14		
    6264:	0f 6f       	rlc	r15		
    6266:	0e 5e       	rla	r14		
    6268:	0f 6f       	rlc	r15		
    626a:	0c ee       	xor	r14,	r12	
    626c:	0d ef       	xor	r15,	r13	
    626e:	1e 44 36 ff 	mov	-202(r4),r14	;0xff36(r4)
    6272:	1f 44 38 ff 	mov	-200(r4),r15	;0xff38(r4)
    6276:	3e f0 00 02 	and	#512,	r14	;#0x0200
    627a:	0f f3       	and	#0,	r15	;r3 As==00
    627c:	0e 5e       	rla	r14		
    627e:	0f 6f       	rlc	r15		
    6280:	0e 5e       	rla	r14		
    6282:	0f 6f       	rlc	r15		
    6284:	0e 5e       	rla	r14		
    6286:	0f 6f       	rlc	r15		
    6288:	0e 5e       	rla	r14		
    628a:	0f 6f       	rlc	r15		
    628c:	0e 5e       	rla	r14		
    628e:	0f 6f       	rlc	r15		
    6290:	0e 5e       	rla	r14		
    6292:	0f 6f       	rlc	r15		
    6294:	0c ee       	xor	r14,	r12	
    6296:	0d ef       	xor	r15,	r13	
    6298:	1e 44 36 ff 	mov	-202(r4),r14	;0xff36(r4)
    629c:	1f 44 38 ff 	mov	-200(r4),r15	;0xff38(r4)
    62a0:	3e f0 00 04 	and	#1024,	r14	;#0x0400
    62a4:	0f f3       	and	#0,	r15	;r3 As==00
    62a6:	0f 43       	clr	r15		
    62a8:	84 4f c8 ff 	mov	r15,	-56(r4)	;0xffc8(r4)
    62ac:	84 4e ca ff 	mov	r14,	-54(r4)	;0xffca(r4)
    62b0:	94 54 c8 ff 	rla	-56(r4)	;0xffc8(r4)
    62b4:	c8 ff 
    62b6:	94 64 ca ff 	rlc	-54(r4)	;0xffca(r4)
    62ba:	ca ff 
    62bc:	94 54 c8 ff 	rla	-56(r4)	;0xffc8(r4)
    62c0:	c8 ff 
    62c2:	94 64 ca ff 	rlc	-54(r4)	;0xffca(r4)
    62c6:	ca ff 
    62c8:	94 54 c8 ff 	rla	-56(r4)	;0xffc8(r4)
    62cc:	c8 ff 
    62ce:	94 64 ca ff 	rlc	-54(r4)	;0xffca(r4)
    62d2:	ca ff 
    62d4:	1c e4 c8 ff 	xor	-56(r4),r12	;0xffc8(r4)
    62d8:	1d e4 ca ff 	xor	-54(r4),r13	;0xffca(r4)
    62dc:	1e 44 36 ff 	mov	-202(r4),r14	;0xff36(r4)
    62e0:	1f 44 38 ff 	mov	-200(r4),r15	;0xff38(r4)
    62e4:	3e f0 00 08 	and	#2048,	r14	;#0x0800
    62e8:	0f f3       	and	#0,	r15	;r3 As==00
    62ea:	12 c3       	clrc			
    62ec:	0f 10       	rrc	r15		
    62ee:	0e 10       	rrc	r14		
    62f0:	12 c3       	clrc			
    62f2:	0f 10       	rrc	r15		
    62f4:	0e 10       	rrc	r14		
    62f6:	12 c3       	clrc			
    62f8:	0f 10       	rrc	r15		
    62fa:	0e 10       	rrc	r14		
    62fc:	12 c3       	clrc			
    62fe:	0f 10       	rrc	r15		
    6300:	0e 10       	rrc	r14		
    6302:	12 c3       	clrc			
    6304:	0f 10       	rrc	r15		
    6306:	0e 10       	rrc	r14		
    6308:	12 c3       	clrc			
    630a:	0f 10       	rrc	r15		
    630c:	0e 10       	rrc	r14		
    630e:	0c ee       	xor	r14,	r12	
    6310:	0d ef       	xor	r15,	r13	
    6312:	1e 44 36 ff 	mov	-202(r4),r14	;0xff36(r4)
    6316:	1f 44 38 ff 	mov	-200(r4),r15	;0xff38(r4)
    631a:	3e f0 00 10 	and	#4096,	r14	;#0x1000
    631e:	0f f3       	and	#0,	r15	;r3 As==00
    6320:	4f ee       	xor.b	r14,	r15	
    6322:	0f ee       	xor	r14,	r15	
    6324:	8f 10       	swpb	r15		
    6326:	4e 4e       	mov.b	r14,	r14	
    6328:	8e 10       	swpb	r14		
    632a:	0e 5e       	rla	r14		
    632c:	0f 6f       	rlc	r15		
    632e:	0e 5e       	rla	r14		
    6330:	0f 6f       	rlc	r15		
    6332:	0e 5e       	rla	r14		
    6334:	0f 6f       	rlc	r15		
    6336:	0e 5e       	rla	r14		
    6338:	0f 6f       	rlc	r15		
    633a:	0e 5e       	rla	r14		
    633c:	0f 6f       	rlc	r15		
    633e:	0c ee       	xor	r14,	r12	
    6340:	0d ef       	xor	r15,	r13	
    6342:	1e 44 36 ff 	mov	-202(r4),r14	;0xff36(r4)
    6346:	1f 44 38 ff 	mov	-200(r4),r15	;0xff38(r4)
    634a:	3e f0 00 20 	and	#8192,	r14	;#0x2000
    634e:	0f f3       	and	#0,	r15	;r3 As==00
    6350:	0e 5e       	rla	r14		
    6352:	0f 6f       	rlc	r15		
    6354:	0e 5e       	rla	r14		
    6356:	0f 6f       	rlc	r15		
    6358:	0e 5e       	rla	r14		
    635a:	0f 6f       	rlc	r15		
    635c:	0e 5e       	rla	r14		
    635e:	0f 6f       	rlc	r15		
    6360:	0e 5e       	rla	r14		
    6362:	0f 6f       	rlc	r15		
    6364:	0e 5e       	rla	r14		
    6366:	0f 6f       	rlc	r15		
    6368:	0c ee       	xor	r14,	r12	
    636a:	0d ef       	xor	r15,	r13	
    636c:	1e 44 36 ff 	mov	-202(r4),r14	;0xff36(r4)
    6370:	1f 44 38 ff 	mov	-200(r4),r15	;0xff38(r4)
    6374:	3e f0 00 40 	and	#16384,	r14	;#0x4000
    6378:	0f f3       	and	#0,	r15	;r3 As==00
    637a:	12 c3       	clrc			
    637c:	0f 10       	rrc	r15		
    637e:	0e 10       	rrc	r14		
    6380:	12 c3       	clrc			
    6382:	0f 10       	rrc	r15		
    6384:	0e 10       	rrc	r14		
    6386:	12 c3       	clrc			
    6388:	0f 10       	rrc	r15		
    638a:	0e 10       	rrc	r14		
    638c:	12 c3       	clrc			
    638e:	0f 10       	rrc	r15		
    6390:	0e 10       	rrc	r14		
    6392:	12 c3       	clrc			
    6394:	0f 10       	rrc	r15		
    6396:	0e 10       	rrc	r14		
    6398:	0c ee       	xor	r14,	r12	
    639a:	0d ef       	xor	r15,	r13	
    639c:	1e 44 36 ff 	mov	-202(r4),r14	;0xff36(r4)
    63a0:	1f 44 38 ff 	mov	-200(r4),r15	;0xff38(r4)
    63a4:	3e f0 00 80 	and	#-32768,r14	;#0x8000
    63a8:	0f f3       	and	#0,	r15	;r3 As==00
    63aa:	8e 10       	swpb	r14		
    63ac:	8f 10       	swpb	r15		
    63ae:	4e ef       	xor.b	r15,	r14	
    63b0:	0e ef       	xor	r15,	r14	
    63b2:	4f 4f       	mov.b	r15,	r15	
    63b4:	12 c3       	clrc			
    63b6:	0f 10       	rrc	r15		
    63b8:	0e 10       	rrc	r14		
    63ba:	12 c3       	clrc			
    63bc:	0f 10       	rrc	r15		
    63be:	0e 10       	rrc	r14		
    63c0:	12 c3       	clrc			
    63c2:	0f 10       	rrc	r15		
    63c4:	0e 10       	rrc	r14		
    63c6:	12 c3       	clrc			
    63c8:	0f 10       	rrc	r15		
    63ca:	0e 10       	rrc	r14		
    63cc:	12 c3       	clrc			
    63ce:	0f 10       	rrc	r15		
    63d0:	0e 10       	rrc	r14		
    63d2:	12 c3       	clrc			
    63d4:	0f 10       	rrc	r15		
    63d6:	0e 10       	rrc	r14		
    63d8:	12 c3       	clrc			
    63da:	0f 10       	rrc	r15		
    63dc:	0e 10       	rrc	r14		
    63de:	0c ee       	xor	r14,	r12	
    63e0:	0d ef       	xor	r15,	r13	
    63e2:	1e 44 36 ff 	mov	-202(r4),r14	;0xff36(r4)
    63e6:	1f 44 38 ff 	mov	-200(r4),r15	;0xff38(r4)
    63ea:	0e f3       	and	#0,	r14	;r3 As==00
    63ec:	1f f3       	and	#1,	r15	;r3 As==01
    63ee:	8e 10       	swpb	r14		
    63f0:	8f 10       	swpb	r15		
    63f2:	4e ef       	xor.b	r15,	r14	
    63f4:	0e ef       	xor	r15,	r14	
    63f6:	4f 4f       	mov.b	r15,	r15	
    63f8:	12 c3       	clrc			
    63fa:	0f 10       	rrc	r15		
    63fc:	0e 10       	rrc	r14		
    63fe:	0c ee       	xor	r14,	r12	
    6400:	0d ef       	xor	r15,	r13	
    6402:	1e 44 36 ff 	mov	-202(r4),r14	;0xff36(r4)
    6406:	1f 44 38 ff 	mov	-200(r4),r15	;0xff38(r4)
    640a:	0e f3       	and	#0,	r14	;r3 As==00
    640c:	2f f3       	and	#2,	r15	;r3 As==10
    640e:	12 c3       	clrc			
    6410:	0f 10       	rrc	r15		
    6412:	0e 10       	rrc	r14		
    6414:	12 c3       	clrc			
    6416:	0f 10       	rrc	r15		
    6418:	0e 10       	rrc	r14		
    641a:	12 c3       	clrc			
    641c:	0f 10       	rrc	r15		
    641e:	0e 10       	rrc	r14		
    6420:	12 c3       	clrc			
    6422:	0f 10       	rrc	r15		
    6424:	0e 10       	rrc	r14		
    6426:	0c ee       	xor	r14,	r12	
    6428:	0d ef       	xor	r15,	r13	
    642a:	1e 44 36 ff 	mov	-202(r4),r14	;0xff36(r4)
    642e:	1f 44 38 ff 	mov	-200(r4),r15	;0xff38(r4)
    6432:	0e f3       	and	#0,	r14	;r3 As==00
    6434:	2f f2       	and	#4,	r15	;r2 As==10
    6436:	0e 5e       	rla	r14		
    6438:	0f 6f       	rlc	r15		
    643a:	0e 5e       	rla	r14		
    643c:	0f 6f       	rlc	r15		
    643e:	0e 5e       	rla	r14		
    6440:	0f 6f       	rlc	r15		
    6442:	0e 5e       	rla	r14		
    6444:	0f 6f       	rlc	r15		
    6446:	0e 5e       	rla	r14		
    6448:	0f 6f       	rlc	r15		
    644a:	0e 5e       	rla	r14		
    644c:	0f 6f       	rlc	r15		
    644e:	0c ee       	xor	r14,	r12	
    6450:	0d ef       	xor	r15,	r13	
    6452:	1e 44 36 ff 	mov	-202(r4),r14	;0xff36(r4)
    6456:	1f 44 38 ff 	mov	-200(r4),r15	;0xff38(r4)
    645a:	0e f3       	and	#0,	r14	;r3 As==00
    645c:	3f f2       	and	#8,	r15	;r2 As==11
    645e:	0e 4f       	mov	r15,	r14	
    6460:	0f 43       	clr	r15		
    6462:	84 4e cc ff 	mov	r14,	-52(r4)	;0xffcc(r4)
    6466:	84 4f ce ff 	mov	r15,	-50(r4)	;0xffce(r4)
    646a:	12 c3       	clrc			
    646c:	14 10 ce ff 	rrc	-50(r4)	;0xffce(r4)
    6470:	14 10 cc ff 	rrc	-52(r4)	;0xffcc(r4)
    6474:	1c e4 cc ff 	xor	-52(r4),r12	;0xffcc(r4)
    6478:	1d e4 ce ff 	xor	-50(r4),r13	;0xffce(r4)
    647c:	1e 44 36 ff 	mov	-202(r4),r14	;0xff36(r4)
    6480:	1f 44 38 ff 	mov	-200(r4),r15	;0xff38(r4)
    6484:	0e f3       	and	#0,	r14	;r3 As==00
    6486:	3f f0 10 00 	and	#16,	r15	;#0x0010
    648a:	0e 4f       	mov	r15,	r14	
    648c:	0f 43       	clr	r15		
    648e:	84 4e d0 ff 	mov	r14,	-48(r4)	;0xffd0(r4)
    6492:	84 4f d2 ff 	mov	r15,	-46(r4)	;0xffd2(r4)
    6496:	12 c3       	clrc			
    6498:	14 10 d2 ff 	rrc	-46(r4)	;0xffd2(r4)
    649c:	14 10 d0 ff 	rrc	-48(r4)	;0xffd0(r4)
    64a0:	1c e4 d0 ff 	xor	-48(r4),r12	;0xffd0(r4)
    64a4:	1d e4 d2 ff 	xor	-46(r4),r13	;0xffd2(r4)
    64a8:	1e 44 36 ff 	mov	-202(r4),r14	;0xff36(r4)
    64ac:	1f 44 38 ff 	mov	-200(r4),r15	;0xff38(r4)
    64b0:	0e f3       	and	#0,	r14	;r3 As==00
    64b2:	3f f0 20 00 	and	#32,	r15	;#0x0020
    64b6:	0e 5e       	rla	r14		
    64b8:	0f 6f       	rlc	r15		
    64ba:	0e 5e       	rla	r14		
    64bc:	0f 6f       	rlc	r15		
    64be:	0e 5e       	rla	r14		
    64c0:	0f 6f       	rlc	r15		
    64c2:	0e 5e       	rla	r14		
    64c4:	0f 6f       	rlc	r15		
    64c6:	0e 5e       	rla	r14		
    64c8:	0f 6f       	rlc	r15		
    64ca:	0e 5e       	rla	r14		
    64cc:	0f 6f       	rlc	r15		
    64ce:	0e 5e       	rla	r14		
    64d0:	0f 6f       	rlc	r15		
    64d2:	0c ee       	xor	r14,	r12	
    64d4:	0d ef       	xor	r15,	r13	
    64d6:	1e 44 36 ff 	mov	-202(r4),r14	;0xff36(r4)
    64da:	1f 44 38 ff 	mov	-200(r4),r15	;0xff38(r4)
    64de:	0e f3       	and	#0,	r14	;r3 As==00
    64e0:	3f f0 40 00 	and	#64,	r15	;#0x0040
    64e4:	8e 10       	swpb	r14		
    64e6:	8f 10       	swpb	r15		
    64e8:	4e ef       	xor.b	r15,	r14	
    64ea:	0e ef       	xor	r15,	r14	
    64ec:	4f 4f       	mov.b	r15,	r15	
    64ee:	12 c3       	clrc			
    64f0:	0f 10       	rrc	r15		
    64f2:	0e 10       	rrc	r14		
    64f4:	12 c3       	clrc			
    64f6:	0f 10       	rrc	r15		
    64f8:	0e 10       	rrc	r14		
    64fa:	12 c3       	clrc			
    64fc:	0f 10       	rrc	r15		
    64fe:	0e 10       	rrc	r14		
    6500:	12 c3       	clrc			
    6502:	0f 10       	rrc	r15		
    6504:	0e 10       	rrc	r14		
    6506:	0c ee       	xor	r14,	r12	
    6508:	0d ef       	xor	r15,	r13	
    650a:	1e 44 36 ff 	mov	-202(r4),r14	;0xff36(r4)
    650e:	1f 44 38 ff 	mov	-200(r4),r15	;0xff38(r4)
    6512:	0e f3       	and	#0,	r14	;r3 As==00
    6514:	3f f0 80 00 	and	#128,	r15	;#0x0080
    6518:	12 c3       	clrc			
    651a:	0f 10       	rrc	r15		
    651c:	0e 10       	rrc	r14		
    651e:	12 c3       	clrc			
    6520:	0f 10       	rrc	r15		
    6522:	0e 10       	rrc	r14		
    6524:	12 c3       	clrc			
    6526:	0f 10       	rrc	r15		
    6528:	0e 10       	rrc	r14		
    652a:	12 c3       	clrc			
    652c:	0f 10       	rrc	r15		
    652e:	0e 10       	rrc	r14		
    6530:	12 c3       	clrc			
    6532:	0f 10       	rrc	r15		
    6534:	0e 10       	rrc	r14		
    6536:	0c ee       	xor	r14,	r12	
    6538:	0d ef       	xor	r15,	r13	
    653a:	1e 44 36 ff 	mov	-202(r4),r14	;0xff36(r4)
    653e:	1f 44 38 ff 	mov	-200(r4),r15	;0xff38(r4)
    6542:	0e f3       	and	#0,	r14	;r3 As==00
    6544:	3f f0 00 01 	and	#256,	r15	;#0x0100
    6548:	0e 5e       	rla	r14		
    654a:	0f 6f       	rlc	r15		
    654c:	0e 5e       	rla	r14		
    654e:	0f 6f       	rlc	r15		
    6550:	0e 5e       	rla	r14		
    6552:	0f 6f       	rlc	r15		
    6554:	0e 5e       	rla	r14		
    6556:	0f 6f       	rlc	r15		
    6558:	0e 5e       	rla	r14		
    655a:	0f 6f       	rlc	r15		
    655c:	0e 5e       	rla	r14		
    655e:	0f 6f       	rlc	r15		
    6560:	0e 5e       	rla	r14		
    6562:	0f 6f       	rlc	r15		
    6564:	0c ee       	xor	r14,	r12	
    6566:	0d ef       	xor	r15,	r13	
    6568:	1e 44 36 ff 	mov	-202(r4),r14	;0xff36(r4)
    656c:	1f 44 38 ff 	mov	-200(r4),r15	;0xff38(r4)
    6570:	0e f3       	and	#0,	r14	;r3 As==00
    6572:	3f f0 00 02 	and	#512,	r15	;#0x0200
    6576:	8e 10       	swpb	r14		
    6578:	8f 10       	swpb	r15		
    657a:	4e ef       	xor.b	r15,	r14	
    657c:	0e ef       	xor	r15,	r14	
    657e:	4f 4f       	mov.b	r15,	r15	
    6580:	12 c3       	clrc			
    6582:	0f 10       	rrc	r15		
    6584:	0e 10       	rrc	r14		
    6586:	12 c3       	clrc			
    6588:	0f 10       	rrc	r15		
    658a:	0e 10       	rrc	r14		
    658c:	12 c3       	clrc			
    658e:	0f 10       	rrc	r15		
    6590:	0e 10       	rrc	r14		
    6592:	12 c3       	clrc			
    6594:	0f 10       	rrc	r15		
    6596:	0e 10       	rrc	r14		
    6598:	12 c3       	clrc			
    659a:	0f 10       	rrc	r15		
    659c:	0e 10       	rrc	r14		
    659e:	12 c3       	clrc			
    65a0:	0f 10       	rrc	r15		
    65a2:	0e 10       	rrc	r14		
    65a4:	0c ee       	xor	r14,	r12	
    65a6:	0d ef       	xor	r15,	r13	
    65a8:	1e 44 36 ff 	mov	-202(r4),r14	;0xff36(r4)
    65ac:	1f 44 38 ff 	mov	-200(r4),r15	;0xff38(r4)
    65b0:	0e f3       	and	#0,	r14	;r3 As==00
    65b2:	3f f0 00 04 	and	#1024,	r15	;#0x0400
    65b6:	12 c3       	clrc			
    65b8:	0f 10       	rrc	r15		
    65ba:	0e 10       	rrc	r14		
    65bc:	12 c3       	clrc			
    65be:	0f 10       	rrc	r15		
    65c0:	0e 10       	rrc	r14		
    65c2:	12 c3       	clrc			
    65c4:	0f 10       	rrc	r15		
    65c6:	0e 10       	rrc	r14		
    65c8:	12 c3       	clrc			
    65ca:	0f 10       	rrc	r15		
    65cc:	0e 10       	rrc	r14		
    65ce:	12 c3       	clrc			
    65d0:	0f 10       	rrc	r15		
    65d2:	0e 10       	rrc	r14		
    65d4:	0c ee       	xor	r14,	r12	
    65d6:	0d ef       	xor	r15,	r13	
    65d8:	1e 44 36 ff 	mov	-202(r4),r14	;0xff36(r4)
    65dc:	1f 44 38 ff 	mov	-200(r4),r15	;0xff38(r4)
    65e0:	0e f3       	and	#0,	r14	;r3 As==00
    65e2:	3f f0 00 08 	and	#2048,	r15	;#0x0800
    65e6:	0e 4f       	mov	r15,	r14	
    65e8:	0f 43       	clr	r15		
    65ea:	84 4e d4 ff 	mov	r14,	-44(r4)	;0xffd4(r4)
    65ee:	84 4f d6 ff 	mov	r15,	-42(r4)	;0xffd6(r4)
    65f2:	12 c3       	clrc			
    65f4:	14 10 d6 ff 	rrc	-42(r4)	;0xffd6(r4)
    65f8:	14 10 d4 ff 	rrc	-44(r4)	;0xffd4(r4)
    65fc:	12 c3       	clrc			
    65fe:	14 10 d6 ff 	rrc	-42(r4)	;0xffd6(r4)
    6602:	14 10 d4 ff 	rrc	-44(r4)	;0xffd4(r4)
    6606:	12 c3       	clrc			
    6608:	14 10 d6 ff 	rrc	-42(r4)	;0xffd6(r4)
    660c:	14 10 d4 ff 	rrc	-44(r4)	;0xffd4(r4)
    6610:	12 c3       	clrc			
    6612:	14 10 d6 ff 	rrc	-42(r4)	;0xffd6(r4)
    6616:	14 10 d4 ff 	rrc	-44(r4)	;0xffd4(r4)
    661a:	12 c3       	clrc			
    661c:	14 10 d6 ff 	rrc	-42(r4)	;0xffd6(r4)
    6620:	14 10 d4 ff 	rrc	-44(r4)	;0xffd4(r4)
    6624:	1c e4 d4 ff 	xor	-44(r4),r12	;0xffd4(r4)
    6628:	1d e4 d6 ff 	xor	-42(r4),r13	;0xffd6(r4)
    662c:	1e 44 36 ff 	mov	-202(r4),r14	;0xff36(r4)
    6630:	1f 44 38 ff 	mov	-200(r4),r15	;0xff38(r4)
    6634:	0e f3       	and	#0,	r14	;r3 As==00
    6636:	3f f0 00 10 	and	#4096,	r15	;#0x1000
    663a:	0e 43       	clr	r14		
    663c:	8f 10       	swpb	r15		
    663e:	4f 4f       	mov.b	r15,	r15	
    6640:	84 4f d8 ff 	mov	r15,	-40(r4)	;0xffd8(r4)
    6644:	84 4e da ff 	mov	r14,	-38(r4)	;0xffda(r4)
    6648:	1c e4 d8 ff 	xor	-40(r4),r12	;0xffd8(r4)
    664c:	1d e4 da ff 	xor	-38(r4),r13	;0xffda(r4)
    6650:	1e 44 36 ff 	mov	-202(r4),r14	;0xff36(r4)
    6654:	1f 44 38 ff 	mov	-200(r4),r15	;0xff38(r4)
    6658:	0e f3       	and	#0,	r14	;r3 As==00
    665a:	3f f0 00 20 	and	#8192,	r15	;#0x2000
    665e:	12 c3       	clrc			
    6660:	0f 10       	rrc	r15		
    6662:	0e 10       	rrc	r14		
    6664:	12 c3       	clrc			
    6666:	0f 10       	rrc	r15		
    6668:	0e 10       	rrc	r14		
    666a:	12 c3       	clrc			
    666c:	0f 10       	rrc	r15		
    666e:	0e 10       	rrc	r14		
    6670:	0c ee       	xor	r14,	r12	
    6672:	0d ef       	xor	r15,	r13	
    6674:	1e 44 36 ff 	mov	-202(r4),r14	;0xff36(r4)
    6678:	1f 44 38 ff 	mov	-200(r4),r15	;0xff38(r4)
    667c:	0e f3       	and	#0,	r14	;r3 As==00
    667e:	3f f0 00 40 	and	#16384,	r15	;#0x4000
    6682:	0e 4f       	mov	r15,	r14	
    6684:	0f 43       	clr	r15		
    6686:	84 4e dc ff 	mov	r14,	-36(r4)	;0xffdc(r4)
    668a:	84 4f de ff 	mov	r15,	-34(r4)	;0xffde(r4)
    668e:	1c e4 dc ff 	xor	-36(r4),r12	;0xffdc(r4)
    6692:	1d e4 de ff 	xor	-34(r4),r13	;0xffde(r4)
    6696:	1e 44 36 ff 	mov	-202(r4),r14	;0xff36(r4)
    669a:	1f 44 38 ff 	mov	-200(r4),r15	;0xff38(r4)
    669e:	0e f3       	and	#0,	r14	;r3 As==00
    66a0:	3f f0 00 80 	and	#-32768,r15	;#0x8000
    66a4:	8e 10       	swpb	r14		
    66a6:	8f 10       	swpb	r15		
    66a8:	4e ef       	xor.b	r15,	r14	
    66aa:	0e ef       	xor	r15,	r14	
    66ac:	4f 4f       	mov.b	r15,	r15	
    66ae:	12 c3       	clrc			
    66b0:	0f 10       	rrc	r15		
    66b2:	0e 10       	rrc	r14		
    66b4:	12 c3       	clrc			
    66b6:	0f 10       	rrc	r15		
    66b8:	0e 10       	rrc	r14		
    66ba:	12 c3       	clrc			
    66bc:	0f 10       	rrc	r15		
    66be:	0e 10       	rrc	r14		
    66c0:	0a 4c       	mov	r12,	r10	
    66c2:	0b 4d       	mov	r13,	r11	
    66c4:	0a ee       	xor	r14,	r10	
    66c6:	0b ef       	xor	r15,	r11	
    66c8:	84 4a 36 ff 	mov	r10,	-202(r4);0xff36(r4)
    66cc:	84 4b 38 ff 	mov	r11,	-200(r4);0xff38(r4)
    66d0:	94 e4 36 ff 	xor	-202(r4),-206(r4);0xff36(r4), 0xff32(r4)
    66d4:	32 ff 
    66d6:	94 e4 38 ff 	xor	-200(r4),-204(r4);0xff38(r4), 0xff34(r4)
    66da:	34 ff 


    GET_UINT32_BE( X, input, 0 );
    GET_UINT32_BE( Y, input, 4 );

    for( i = 0; i < 8; i++ )
    66dc:	94 53 2c ff 	inc	-212(r4)	;0xff2c(r4)
    66e0:	b4 92 2c ff 	cmp	#8,	-212(r4);r2 As==11, 0xff2c(r4)
    66e4:	02 34       	jge	$+6      	;abs 0x66ea
    66e6:	30 40 08 52 	br	#0x5208	
    {
        DES_ROUND( Y, X );
        DES_ROUND( X, Y );
    }

    PUT_UINT32_BE( Y, output, 0 );
    66ea:	1f 44 34 ff 	mov	-204(r4),r15	;0xff34(r4)
    66ee:	0e 43       	clr	r14		
    66f0:	8f 10       	swpb	r15		
    66f2:	4f 4f       	mov.b	r15,	r15	
    66f4:	84 4f e0 ff 	mov	r15,	-32(r4)	;0xffe0(r4)
    66f8:	84 4e e2 ff 	mov	r14,	-30(r4)	;0xffe2(r4)
    66fc:	5e 44 e0 ff 	mov.b	-32(r4),r14	;0xffe0(r4)
    6700:	1f 44 3e ff 	mov	-194(r4),r15	;0xff3e(r4)
    6704:	cf 4e 00 00 	mov.b	r14,	0(r15)	;0x0000(r15)
    6708:	1d 44 3e ff 	mov	-194(r4),r13	;0xff3e(r4)
    670c:	1d 53       	inc	r13		
    670e:	1e 44 34 ff 	mov	-204(r4),r14	;0xff34(r4)
    6712:	0f 43       	clr	r15		
    6714:	84 4e e4 ff 	mov	r14,	-28(r4)	;0xffe4(r4)
    6718:	84 4f e6 ff 	mov	r15,	-26(r4)	;0xffe6(r4)
    671c:	5f 44 e4 ff 	mov.b	-28(r4),r15	;0xffe4(r4)
    6720:	cd 4f 00 00 	mov.b	r15,	0(r13)	;0x0000(r13)
    6724:	1d 44 3e ff 	mov	-194(r4),r13	;0xff3e(r4)
    6728:	2d 53       	incd	r13		
    672a:	1e 44 32 ff 	mov	-206(r4),r14	;0xff32(r4)
    672e:	1f 44 34 ff 	mov	-204(r4),r15	;0xff34(r4)
    6732:	8e 10       	swpb	r14		
    6734:	8f 10       	swpb	r15		
    6736:	4e ef       	xor.b	r15,	r14	
    6738:	0e ef       	xor	r15,	r14	
    673a:	4f 4f       	mov.b	r15,	r15	
    673c:	4f 4e       	mov.b	r14,	r15	
    673e:	cd 4f 00 00 	mov.b	r15,	0(r13)	;0x0000(r13)
    6742:	1e 44 3e ff 	mov	-194(r4),r14	;0xff3e(r4)
    6746:	3e 50 03 00 	add	#3,	r14	;#0x0003
    674a:	1f 44 32 ff 	mov	-206(r4),r15	;0xff32(r4)
    674e:	4f 4f       	mov.b	r15,	r15	
    6750:	ce 4f 00 00 	mov.b	r15,	0(r14)	;0x0000(r14)
    PUT_UINT32_BE( X, output, 4 );
    6754:	1d 44 3e ff 	mov	-194(r4),r13	;0xff3e(r4)
    6758:	2d 52       	add	#4,	r13	;r2 As==10
    675a:	1f 44 30 ff 	mov	-208(r4),r15	;0xff30(r4)
    675e:	0e 43       	clr	r14		
    6760:	8f 10       	swpb	r15		
    6762:	4f 4f       	mov.b	r15,	r15	
    6764:	84 4f e8 ff 	mov	r15,	-24(r4)	;0xffe8(r4)
    6768:	84 4e ea ff 	mov	r14,	-22(r4)	;0xffea(r4)
    676c:	5f 44 e8 ff 	mov.b	-24(r4),r15	;0xffe8(r4)
    6770:	cd 4f 00 00 	mov.b	r15,	0(r13)	;0x0000(r13)
    6774:	1e 44 3e ff 	mov	-194(r4),r14	;0xff3e(r4)
    6778:	3e 50 05 00 	add	#5,	r14	;#0x0005
    677c:	1d 44 30 ff 	mov	-208(r4),r13	;0xff30(r4)
    6780:	0f 43       	clr	r15		
    6782:	84 4d ec ff 	mov	r13,	-20(r4)	;0xffec(r4)
    6786:	84 4f ee ff 	mov	r15,	-18(r4)	;0xffee(r4)
    678a:	5f 44 ec ff 	mov.b	-20(r4),r15	;0xffec(r4)
    678e:	ce 4f 00 00 	mov.b	r15,	0(r14)	;0x0000(r14)
    6792:	1d 44 3e ff 	mov	-194(r4),r13	;0xff3e(r4)
    6796:	3d 50 06 00 	add	#6,	r13	;#0x0006
    679a:	1e 44 2e ff 	mov	-210(r4),r14	;0xff2e(r4)
    679e:	1f 44 30 ff 	mov	-208(r4),r15	;0xff30(r4)
    67a2:	8e 10       	swpb	r14		
    67a4:	8f 10       	swpb	r15		
    67a6:	4e ef       	xor.b	r15,	r14	
    67a8:	0e ef       	xor	r15,	r14	
    67aa:	4f 4f       	mov.b	r15,	r15	
    67ac:	4f 4e       	mov.b	r14,	r15	
    67ae:	cd 4f 00 00 	mov.b	r15,	0(r13)	;0x0000(r13)
    67b2:	1f 44 3e ff 	mov	-194(r4),r15	;0xff3e(r4)
    67b6:	3f 50 07 00 	add	#7,	r15	;#0x0007
    67ba:	1e 44 2e ff 	mov	-210(r4),r14	;0xff2e(r4)
    67be:	4e 4e       	mov.b	r14,	r14	
    67c0:	cf 4e 00 00 	mov.b	r14,	0(r15)	;0x0000(r15)



}
    67c4:	31 50 c4 00 	add	#196,	r1	;#0x00c4
    67c8:	34 41       	pop	r4		
    67ca:	35 41       	pop	r5		
    67cc:	36 41       	pop	r6		
    67ce:	37 41       	pop	r7		
    67d0:	38 41       	pop	r8		
    67d2:	39 41       	pop	r9		
    67d4:	3a 41       	pop	r10		
    67d6:	3b 41       	pop	r11		
    67d8:	30 41       	ret			

000067da <Decrypt>:


void Decrypt( u32 SK[32],
                    const unsigned char input[8],
                    unsigned char output[8] )
{                    
    67da:	0b 12       	push	r11		
    67dc:	0a 12       	push	r10		
    67de:	09 12       	push	r9		
    67e0:	08 12       	push	r8		
    67e2:	07 12       	push	r7		
    67e4:	06 12       	push	r6		
    67e6:	04 12       	push	r4		
    67e8:	04 41       	mov	r1,	r4	
    67ea:	34 50 0e 00 	add	#14,	r4	;#0x000e
    67ee:	31 50 30 ff 	add	#-208,	r1	;#0xff30
    67f2:	84 4f 38 ff 	mov	r15,	-200(r4);0xff38(r4)
    67f6:	84 4e 3a ff 	mov	r14,	-198(r4);0xff3a(r4)
    67fa:	84 4d 3c ff 	mov	r13,	-196(r4);0xff3c(r4)
     int i;
     u32 X, Y, T;                    

for( i = 0; i < 16; i += 2 )
    67fe:	84 43 22 ff 	mov	#0,	-222(r4);r3 As==00, 0xff22(r4)
    6802:	6a 3c       	jmp	$+214    	;abs 0x68d8
    {
        SWAP( SK[i    ], SK[30 - i] );
    6804:	1f 44 22 ff 	mov	-222(r4),r15	;0xff22(r4)
    6808:	0f 5f       	rla	r15		
    680a:	0f 5f       	rla	r15		
    680c:	1f 54 38 ff 	add	-200(r4),r15	;0xff38(r4)
    6810:	a4 4f 2c ff 	mov	@r15,	-212(r4);0xff2c(r4)
    6814:	94 4f 02 00 	mov	2(r15),	-210(r4);0x0002(r15), 0xff2e(r4)
    6818:	2e ff 
    681a:	1f 44 22 ff 	mov	-222(r4),r15	;0xff22(r4)
    681e:	0f 5f       	rla	r15		
    6820:	0f 5f       	rla	r15		
    6822:	1d 44 38 ff 	mov	-200(r4),r13	;0xff38(r4)
    6826:	0d 5f       	add	r15,	r13	
    6828:	3f 40 1e 00 	mov	#30,	r15	;#0x001e
    682c:	1f 84 22 ff 	sub	-222(r4),r15	;0xff22(r4)
    6830:	0f 5f       	rla	r15		
    6832:	0f 5f       	rla	r15		
    6834:	1f 54 38 ff 	add	-200(r4),r15	;0xff38(r4)
    6838:	2e 4f       	mov	@r15,	r14	
    683a:	1f 4f 02 00 	mov	2(r15),	r15	;0x0002(r15)
    683e:	8d 4e 00 00 	mov	r14,	0(r13)	;0x0000(r13)
    6842:	8d 4f 02 00 	mov	r15,	2(r13)	;0x0002(r13)
    6846:	3f 40 1e 00 	mov	#30,	r15	;#0x001e
    684a:	1f 84 22 ff 	sub	-222(r4),r15	;0xff22(r4)
    684e:	0f 5f       	rla	r15		
    6850:	0f 5f       	rla	r15		
    6852:	1f 54 38 ff 	add	-200(r4),r15	;0xff38(r4)
    6856:	9f 44 2c ff 	mov	-212(r4),0(r15)	;0xff2c(r4), 0x0000(r15)
    685a:	00 00 
    685c:	9f 44 2e ff 	mov	-210(r4),2(r15)	;0xff2e(r4), 0x0002(r15)
    6860:	02 00 
    6862:	84 43 2c ff 	mov	#0,	-212(r4);r3 As==00, 0xff2c(r4)
    6866:	84 43 2e ff 	mov	#0,	-210(r4);r3 As==00, 0xff2e(r4)
        SWAP( SK[i + 1], SK[31 - i] );
    686a:	1f 44 22 ff 	mov	-222(r4),r15	;0xff22(r4)
    686e:	1f 53       	inc	r15		
    6870:	0f 5f       	rla	r15		
    6872:	0f 5f       	rla	r15		
    6874:	1f 54 38 ff 	add	-200(r4),r15	;0xff38(r4)
    6878:	a4 4f 30 ff 	mov	@r15,	-208(r4);0xff30(r4)
    687c:	94 4f 02 00 	mov	2(r15),	-206(r4);0x0002(r15), 0xff32(r4)
    6880:	32 ff 
    6882:	1f 44 22 ff 	mov	-222(r4),r15	;0xff22(r4)
    6886:	1f 53       	inc	r15		
    6888:	0f 5f       	rla	r15		
    688a:	0f 5f       	rla	r15		
    688c:	1d 44 38 ff 	mov	-200(r4),r13	;0xff38(r4)
    6890:	0d 5f       	add	r15,	r13	
    6892:	3f 40 1f 00 	mov	#31,	r15	;#0x001f
    6896:	1f 84 22 ff 	sub	-222(r4),r15	;0xff22(r4)
    689a:	0f 5f       	rla	r15		
    689c:	0f 5f       	rla	r15		
    689e:	1f 54 38 ff 	add	-200(r4),r15	;0xff38(r4)
    68a2:	2e 4f       	mov	@r15,	r14	
    68a4:	1f 4f 02 00 	mov	2(r15),	r15	;0x0002(r15)
    68a8:	8d 4e 00 00 	mov	r14,	0(r13)	;0x0000(r13)
    68ac:	8d 4f 02 00 	mov	r15,	2(r13)	;0x0002(r13)
    68b0:	3f 40 1f 00 	mov	#31,	r15	;#0x001f
    68b4:	1f 84 22 ff 	sub	-222(r4),r15	;0xff22(r4)
    68b8:	0f 5f       	rla	r15		
    68ba:	0f 5f       	rla	r15		
    68bc:	1f 54 38 ff 	add	-200(r4),r15	;0xff38(r4)
    68c0:	9f 44 30 ff 	mov	-208(r4),0(r15)	;0xff30(r4), 0x0000(r15)
    68c4:	00 00 
    68c6:	9f 44 32 ff 	mov	-206(r4),2(r15)	;0xff32(r4), 0x0002(r15)
    68ca:	02 00 
    68cc:	84 43 30 ff 	mov	#0,	-208(r4);r3 As==00, 0xff30(r4)
    68d0:	84 43 32 ff 	mov	#0,	-206(r4);r3 As==00, 0xff32(r4)
                    unsigned char output[8] )
{                    
     int i;
     u32 X, Y, T;                    

for( i = 0; i < 16; i += 2 )
    68d4:	a4 53 22 ff 	incd	-222(r4)	;0xff22(r4)
    68d8:	b4 90 10 00 	cmp	#16,	-222(r4);#0x0010, 0xff22(r4)
    68dc:	22 ff 
    68de:	92 3b       	jl	$-218    	;abs 0x6804
    {
        SWAP( SK[i    ], SK[30 - i] );
        SWAP( SK[i + 1], SK[31 - i] );
    }

    GET_UINT32_BE( X, input, 0 );
    68e0:	1f 44 3a ff 	mov	-198(r4),r15	;0xff3a(r4)
    68e4:	6f 4f       	mov.b	@r15,	r15	
    68e6:	4f 4f       	mov.b	r15,	r15	
    68e8:	84 4f 3e ff 	mov	r15,	-194(r4);0xff3e(r4)
    68ec:	84 43 40 ff 	mov	#0,	-192(r4);r3 As==00, 0xff40(r4)
    68f0:	1f 44 3e ff 	mov	-194(r4),r15	;0xff3e(r4)
    68f4:	0e 43       	clr	r14		
    68f6:	4f 4f       	mov.b	r15,	r15	
    68f8:	8f 10       	swpb	r15		
    68fa:	84 4e 42 ff 	mov	r14,	-190(r4);0xff42(r4)
    68fe:	84 4f 44 ff 	mov	r15,	-188(r4);0xff44(r4)
    6902:	1f 44 3a ff 	mov	-198(r4),r15	;0xff3a(r4)
    6906:	1f 53       	inc	r15		
    6908:	6f 4f       	mov.b	@r15,	r15	
    690a:	4f 4f       	mov.b	r15,	r15	
    690c:	84 4f 46 ff 	mov	r15,	-186(r4);0xff46(r4)
    6910:	84 43 48 ff 	mov	#0,	-184(r4);r3 As==00, 0xff48(r4)
    6914:	1e 44 46 ff 	mov	-186(r4),r14	;0xff46(r4)
    6918:	0f 43       	clr	r15		
    691a:	84 4f 4a ff 	mov	r15,	-182(r4);0xff4a(r4)
    691e:	84 4e 4c ff 	mov	r14,	-180(r4);0xff4c(r4)
    6922:	1c 44 42 ff 	mov	-190(r4),r12	;0xff42(r4)
    6926:	1d 44 44 ff 	mov	-188(r4),r13	;0xff44(r4)
    692a:	1c d4 4a ff 	bis	-182(r4),r12	;0xff4a(r4)
    692e:	1d d4 4c ff 	bis	-180(r4),r13	;0xff4c(r4)
    6932:	1f 44 3a ff 	mov	-198(r4),r15	;0xff3a(r4)
    6936:	2f 53       	incd	r15		
    6938:	6f 4f       	mov.b	@r15,	r15	
    693a:	46 4f       	mov.b	r15,	r6	
    693c:	07 43       	clr	r7		
    693e:	0e 46       	mov	r6,	r14	
    6940:	0f 47       	mov	r7,	r15	
    6942:	4f ee       	xor.b	r14,	r15	
    6944:	0f ee       	xor	r14,	r15	
    6946:	8f 10       	swpb	r15		
    6948:	4e 4e       	mov.b	r14,	r14	
    694a:	8e 10       	swpb	r14		
    694c:	06 4c       	mov	r12,	r6	
    694e:	07 4d       	mov	r13,	r7	
    6950:	06 de       	bis	r14,	r6	
    6952:	07 df       	bis	r15,	r7	
    6954:	0d 46       	mov	r6,	r13	
    6956:	0e 47       	mov	r7,	r14	
    6958:	1f 44 3a ff 	mov	-198(r4),r15	;0xff3a(r4)
    695c:	3f 50 03 00 	add	#3,	r15	;#0x0003
    6960:	6f 4f       	mov.b	@r15,	r15	
    6962:	4f 4f       	mov.b	r15,	r15	
    6964:	84 4f 4e ff 	mov	r15,	-178(r4);0xff4e(r4)
    6968:	84 43 50 ff 	mov	#0,	-176(r4);r3 As==00, 0xff50(r4)
    696c:	16 44 4e ff 	mov	-178(r4),r6	;0xff4e(r4)
    6970:	17 44 50 ff 	mov	-176(r4),r7	;0xff50(r4)
    6974:	06 dd       	bis	r13,	r6	
    6976:	07 de       	bis	r14,	r7	
    6978:	84 46 24 ff 	mov	r6,	-220(r4);0xff24(r4)
    697c:	84 47 26 ff 	mov	r7,	-218(r4);0xff26(r4)
    GET_UINT32_BE( Y, input, 4 );
    6980:	1f 44 3a ff 	mov	-198(r4),r15	;0xff3a(r4)
    6984:	2f 52       	add	#4,	r15	;r2 As==10
    6986:	6f 4f       	mov.b	@r15,	r15	
    6988:	4f 4f       	mov.b	r15,	r15	
    698a:	84 4f 52 ff 	mov	r15,	-174(r4);0xff52(r4)
    698e:	84 43 54 ff 	mov	#0,	-172(r4);r3 As==00, 0xff54(r4)
    6992:	1f 44 52 ff 	mov	-174(r4),r15	;0xff52(r4)
    6996:	0e 43       	clr	r14		
    6998:	4f 4f       	mov.b	r15,	r15	
    699a:	8f 10       	swpb	r15		
    699c:	84 4e 56 ff 	mov	r14,	-170(r4);0xff56(r4)
    69a0:	84 4f 58 ff 	mov	r15,	-168(r4);0xff58(r4)
    69a4:	1f 44 3a ff 	mov	-198(r4),r15	;0xff3a(r4)
    69a8:	3f 50 05 00 	add	#5,	r15	;#0x0005
    69ac:	6f 4f       	mov.b	@r15,	r15	
    69ae:	4f 4f       	mov.b	r15,	r15	
    69b0:	84 4f 5a ff 	mov	r15,	-166(r4);0xff5a(r4)
    69b4:	84 43 5c ff 	mov	#0,	-164(r4);r3 As==00, 0xff5c(r4)
    69b8:	1e 44 5a ff 	mov	-166(r4),r14	;0xff5a(r4)
    69bc:	0f 43       	clr	r15		
    69be:	84 4f 5e ff 	mov	r15,	-162(r4);0xff5e(r4)
    69c2:	84 4e 60 ff 	mov	r14,	-160(r4);0xff60(r4)
    69c6:	1c 44 56 ff 	mov	-170(r4),r12	;0xff56(r4)
    69ca:	1d 44 58 ff 	mov	-168(r4),r13	;0xff58(r4)
    69ce:	1c d4 5e ff 	bis	-162(r4),r12	;0xff5e(r4)
    69d2:	1d d4 60 ff 	bis	-160(r4),r13	;0xff60(r4)
    69d6:	1f 44 3a ff 	mov	-198(r4),r15	;0xff3a(r4)
    69da:	3f 50 06 00 	add	#6,	r15	;#0x0006
    69de:	6f 4f       	mov.b	@r15,	r15	
    69e0:	4f 4f       	mov.b	r15,	r15	
    69e2:	84 4f 62 ff 	mov	r15,	-158(r4);0xff62(r4)
    69e6:	84 43 64 ff 	mov	#0,	-156(r4);r3 As==00, 0xff64(r4)
    69ea:	1e 44 62 ff 	mov	-158(r4),r14	;0xff62(r4)
    69ee:	1f 44 64 ff 	mov	-156(r4),r15	;0xff64(r4)
    69f2:	4f ee       	xor.b	r14,	r15	
    69f4:	0f ee       	xor	r14,	r15	
    69f6:	8f 10       	swpb	r15		
    69f8:	4e 4e       	mov.b	r14,	r14	
    69fa:	8e 10       	swpb	r14		
    69fc:	06 4c       	mov	r12,	r6	
    69fe:	07 4d       	mov	r13,	r7	
    6a00:	06 de       	bis	r14,	r6	
    6a02:	07 df       	bis	r15,	r7	
    6a04:	0d 46       	mov	r6,	r13	
    6a06:	0e 47       	mov	r7,	r14	
    6a08:	1f 44 3a ff 	mov	-198(r4),r15	;0xff3a(r4)
    6a0c:	3f 50 07 00 	add	#7,	r15	;#0x0007
    6a10:	6f 4f       	mov.b	@r15,	r15	
    6a12:	4f 4f       	mov.b	r15,	r15	
    6a14:	84 4f 66 ff 	mov	r15,	-154(r4);0xff66(r4)
    6a18:	84 43 68 ff 	mov	#0,	-152(r4);r3 As==00, 0xff68(r4)
    6a1c:	16 44 66 ff 	mov	-154(r4),r6	;0xff66(r4)
    6a20:	17 44 68 ff 	mov	-152(r4),r7	;0xff68(r4)
    6a24:	06 dd       	bis	r13,	r6	
    6a26:	07 de       	bis	r14,	r7	
    6a28:	84 46 28 ff 	mov	r6,	-216(r4);0xff28(r4)
    6a2c:	84 47 2a ff 	mov	r7,	-214(r4);0xff2a(r4)



    for( i = 0; i < 8; i++ )
    6a30:	84 43 22 ff 	mov	#0,	-222(r4);r3 As==00, 0xff22(r4)
    6a34:	30 40 d0 7e 	br	#0x7ed0	
    {
        DES_ROUND( Y, X );
    6a38:	1f 44 28 ff 	mov	-216(r4),r15	;0xff28(r4)
    6a3c:	0f 5f       	rla	r15		
    6a3e:	0f 43       	clr	r15		
    6a40:	0f 6f       	rlc	r15		
    6a42:	0e 4f       	mov	r15,	r14	
    6a44:	1f 44 2a ff 	mov	-214(r4),r15	;0xff2a(r4)
    6a48:	0f 5f       	rla	r15		
    6a4a:	07 4e       	mov	r14,	r7	
    6a4c:	07 df       	bis	r15,	r7	
    6a4e:	84 47 6c ff 	mov	r7,	-148(r4);0xff6c(r4)
    6a52:	1f 44 2a ff 	mov	-214(r4),r15	;0xff2a(r4)
    6a56:	0f 5f       	rla	r15		
    6a58:	0f 43       	clr	r15		
    6a5a:	0f 6f       	rlc	r15		
    6a5c:	0e 4f       	mov	r15,	r14	
    6a5e:	1f 44 28 ff 	mov	-216(r4),r15	;0xff28(r4)
    6a62:	0f 5f       	rla	r15		
    6a64:	0a 4e       	mov	r14,	r10	
    6a66:	0a df       	bis	r15,	r10	
    6a68:	84 4a 6a ff 	mov	r10,	-150(r4);0xff6a(r4)
    6a6c:	1f 44 38 ff 	mov	-200(r4),r15	;0xff38(r4)
    6a70:	2e 4f       	mov	@r15,	r14	
    6a72:	1f 4f 02 00 	mov	2(r15),	r15	;0x0002(r15)
    6a76:	1e e4 6a ff 	xor	-150(r4),r14	;0xff6a(r4)
    6a7a:	1f e4 6c ff 	xor	-148(r4),r15	;0xff6c(r4)
    6a7e:	3e f0 3f 00 	and	#63,	r14	;#0x003f
    6a82:	0f f3       	and	#0,	r15	;r3 As==00
    6a84:	0f 4e       	mov	r14,	r15	
    6a86:	3f 50 d0 80 	add	#-32560,r15	;#0x80d0
    6a8a:	6f 4f       	mov.b	@r15,	r15	
    6a8c:	47 4f       	mov.b	r15,	r7	
    6a8e:	1c 44 28 ff 	mov	-216(r4),r12	;0xff28(r4)
    6a92:	1d 44 2a ff 	mov	-214(r4),r13	;0xff2a(r4)
    6a96:	12 c3       	clrc			
    6a98:	0d 10       	rrc	r13		
    6a9a:	0c 10       	rrc	r12		
    6a9c:	12 c3       	clrc			
    6a9e:	0d 10       	rrc	r13		
    6aa0:	0c 10       	rrc	r12		
    6aa2:	12 c3       	clrc			
    6aa4:	0d 10       	rrc	r13		
    6aa6:	0c 10       	rrc	r12		
    6aa8:	1f 44 38 ff 	mov	-200(r4),r15	;0xff38(r4)
    6aac:	2e 4f       	mov	@r15,	r14	
    6aae:	1f 4f 02 00 	mov	2(r15),	r15	;0x0002(r15)
    6ab2:	12 c3       	clrc			
    6ab4:	0f 10       	rrc	r15		
    6ab6:	0e 10       	rrc	r14		
    6ab8:	12 c3       	clrc			
    6aba:	0f 10       	rrc	r15		
    6abc:	0e 10       	rrc	r14		
    6abe:	12 c3       	clrc			
    6ac0:	0f 10       	rrc	r15		
    6ac2:	0e 10       	rrc	r14		
    6ac4:	12 c3       	clrc			
    6ac6:	0f 10       	rrc	r15		
    6ac8:	0e 10       	rrc	r14		
    6aca:	12 c3       	clrc			
    6acc:	0f 10       	rrc	r15		
    6ace:	0e 10       	rrc	r14		
    6ad0:	12 c3       	clrc			
    6ad2:	0f 10       	rrc	r15		
    6ad4:	0e 10       	rrc	r14		
    6ad6:	0e ec       	xor	r12,	r14	
    6ad8:	0f ed       	xor	r13,	r15	
    6ada:	3e f0 3f 00 	and	#63,	r14	;#0x003f
    6ade:	0f f3       	and	#0,	r15	;r3 As==00
    6ae0:	0f 4e       	mov	r14,	r15	
    6ae2:	3f 50 d0 80 	add	#-32560,r15	;#0x80d0
    6ae6:	6f 4f       	mov.b	@r15,	r15	
    6ae8:	4f 4f       	mov.b	r15,	r15	
    6aea:	0f 5f       	rla	r15		
    6aec:	0f 5f       	rla	r15		
    6aee:	0f 5f       	rla	r15		
    6af0:	0f 5f       	rla	r15		
    6af2:	07 ef       	xor	r15,	r7	
    6af4:	1c 44 28 ff 	mov	-216(r4),r12	;0xff28(r4)
    6af8:	1d 44 2a ff 	mov	-214(r4),r13	;0xff2a(r4)
    6afc:	12 c3       	clrc			
    6afe:	0d 10       	rrc	r13		
    6b00:	0c 10       	rrc	r12		
    6b02:	12 c3       	clrc			
    6b04:	0d 10       	rrc	r13		
    6b06:	0c 10       	rrc	r12		
    6b08:	12 c3       	clrc			
    6b0a:	0d 10       	rrc	r13		
    6b0c:	0c 10       	rrc	r12		
    6b0e:	12 c3       	clrc			
    6b10:	0d 10       	rrc	r13		
    6b12:	0c 10       	rrc	r12		
    6b14:	12 c3       	clrc			
    6b16:	0d 10       	rrc	r13		
    6b18:	0c 10       	rrc	r12		
    6b1a:	12 c3       	clrc			
    6b1c:	0d 10       	rrc	r13		
    6b1e:	0c 10       	rrc	r12		
    6b20:	12 c3       	clrc			
    6b22:	0d 10       	rrc	r13		
    6b24:	0c 10       	rrc	r12		
    6b26:	1f 44 38 ff 	mov	-200(r4),r15	;0xff38(r4)
    6b2a:	2e 4f       	mov	@r15,	r14	
    6b2c:	1f 4f 02 00 	mov	2(r15),	r15	;0x0002(r15)
    6b30:	8e 10       	swpb	r14		
    6b32:	8f 10       	swpb	r15		
    6b34:	4e ef       	xor.b	r15,	r14	
    6b36:	0e ef       	xor	r15,	r14	
    6b38:	4f 4f       	mov.b	r15,	r15	
    6b3a:	12 c3       	clrc			
    6b3c:	0f 10       	rrc	r15		
    6b3e:	0e 10       	rrc	r14		
    6b40:	12 c3       	clrc			
    6b42:	0f 10       	rrc	r15		
    6b44:	0e 10       	rrc	r14		
    6b46:	12 c3       	clrc			
    6b48:	0f 10       	rrc	r15		
    6b4a:	0e 10       	rrc	r14		
    6b4c:	12 c3       	clrc			
    6b4e:	0f 10       	rrc	r15		
    6b50:	0e 10       	rrc	r14		
    6b52:	0e ec       	xor	r12,	r14	
    6b54:	0f ed       	xor	r13,	r15	
    6b56:	3e f0 3f 00 	and	#63,	r14	;#0x003f
    6b5a:	0f f3       	and	#0,	r15	;r3 As==00
    6b5c:	0f 4e       	mov	r14,	r15	
    6b5e:	3f 50 d0 80 	add	#-32560,r15	;#0x80d0
    6b62:	6f 4f       	mov.b	@r15,	r15	
    6b64:	4f 4f       	mov.b	r15,	r15	
    6b66:	4f 4f       	mov.b	r15,	r15	
    6b68:	8f 10       	swpb	r15		
    6b6a:	07 ef       	xor	r15,	r7	
    6b6c:	1c 44 28 ff 	mov	-216(r4),r12	;0xff28(r4)
    6b70:	1d 44 2a ff 	mov	-214(r4),r13	;0xff2a(r4)
    6b74:	8c 10       	swpb	r12		
    6b76:	8d 10       	swpb	r13		
    6b78:	4c ed       	xor.b	r13,	r12	
    6b7a:	0c ed       	xor	r13,	r12	
    6b7c:	4d 4d       	mov.b	r13,	r13	
    6b7e:	12 c3       	clrc			
    6b80:	0d 10       	rrc	r13		
    6b82:	0c 10       	rrc	r12		
    6b84:	12 c3       	clrc			
    6b86:	0d 10       	rrc	r13		
    6b88:	0c 10       	rrc	r12		
    6b8a:	12 c3       	clrc			
    6b8c:	0d 10       	rrc	r13		
    6b8e:	0c 10       	rrc	r12		
    6b90:	1f 44 38 ff 	mov	-200(r4),r15	;0xff38(r4)
    6b94:	2e 4f       	mov	@r15,	r14	
    6b96:	1f 4f 02 00 	mov	2(r15),	r15	;0x0002(r15)
    6b9a:	0e 4f       	mov	r15,	r14	
    6b9c:	0f 43       	clr	r15		
    6b9e:	84 4e 6e ff 	mov	r14,	-146(r4);0xff6e(r4)
    6ba2:	84 4f 70 ff 	mov	r15,	-144(r4);0xff70(r4)
    6ba6:	12 c3       	clrc			
    6ba8:	14 10 70 ff 	rrc	-144(r4)	;0xff70(r4)
    6bac:	14 10 6e ff 	rrc	-146(r4)	;0xff6e(r4)
    6bb0:	12 c3       	clrc			
    6bb2:	14 10 70 ff 	rrc	-144(r4)	;0xff70(r4)
    6bb6:	14 10 6e ff 	rrc	-146(r4)	;0xff6e(r4)
    6bba:	1e 44 6e ff 	mov	-146(r4),r14	;0xff6e(r4)
    6bbe:	1f 44 70 ff 	mov	-144(r4),r15	;0xff70(r4)
    6bc2:	0e ec       	xor	r12,	r14	
    6bc4:	0f ed       	xor	r13,	r15	
    6bc6:	3e f0 3f 00 	and	#63,	r14	;#0x003f
    6bca:	0f f3       	and	#0,	r15	;r3 As==00
    6bcc:	0f 4e       	mov	r14,	r15	
    6bce:	3f 50 d0 80 	add	#-32560,r15	;#0x80d0
    6bd2:	6f 4f       	mov.b	@r15,	r15	
    6bd4:	4f 4f       	mov.b	r15,	r15	
    6bd6:	4f 4f       	mov.b	r15,	r15	
    6bd8:	8f 10       	swpb	r15		
    6bda:	0f 5f       	rla	r15		
    6bdc:	0f 5f       	rla	r15		
    6bde:	0f 5f       	rla	r15		
    6be0:	0f 5f       	rla	r15		
    6be2:	07 ef       	xor	r15,	r7	
    6be4:	1c 44 28 ff 	mov	-216(r4),r12	;0xff28(r4)
    6be8:	1d 44 2a ff 	mov	-214(r4),r13	;0xff2a(r4)
    6bec:	8c 10       	swpb	r12		
    6bee:	8d 10       	swpb	r13		
    6bf0:	4c ed       	xor.b	r13,	r12	
    6bf2:	0c ed       	xor	r13,	r12	
    6bf4:	4d 4d       	mov.b	r13,	r13	
    6bf6:	12 c3       	clrc			
    6bf8:	0d 10       	rrc	r13		
    6bfa:	0c 10       	rrc	r12		
    6bfc:	12 c3       	clrc			
    6bfe:	0d 10       	rrc	r13		
    6c00:	0c 10       	rrc	r12		
    6c02:	12 c3       	clrc			
    6c04:	0d 10       	rrc	r13		
    6c06:	0c 10       	rrc	r12		
    6c08:	12 c3       	clrc			
    6c0a:	0d 10       	rrc	r13		
    6c0c:	0c 10       	rrc	r12		
    6c0e:	12 c3       	clrc			
    6c10:	0d 10       	rrc	r13		
    6c12:	0c 10       	rrc	r12		
    6c14:	12 c3       	clrc			
    6c16:	0d 10       	rrc	r13		
    6c18:	0c 10       	rrc	r12		
    6c1a:	12 c3       	clrc			
    6c1c:	0d 10       	rrc	r13		
    6c1e:	0c 10       	rrc	r12		
    6c20:	1f 44 38 ff 	mov	-200(r4),r15	;0xff38(r4)
    6c24:	2e 4f       	mov	@r15,	r14	
    6c26:	1f 4f 02 00 	mov	2(r15),	r15	;0x0002(r15)
    6c2a:	0e 43       	clr	r14		
    6c2c:	8f 10       	swpb	r15		
    6c2e:	4f 4f       	mov.b	r15,	r15	
    6c30:	84 4f 72 ff 	mov	r15,	-142(r4);0xff72(r4)
    6c34:	84 4e 74 ff 	mov	r14,	-140(r4);0xff74(r4)
    6c38:	1e 44 72 ff 	mov	-142(r4),r14	;0xff72(r4)
    6c3c:	1f 44 74 ff 	mov	-140(r4),r15	;0xff74(r4)
    6c40:	0e ec       	xor	r12,	r14	
    6c42:	0f ed       	xor	r13,	r15	
    6c44:	3e f0 3f 00 	and	#63,	r14	;#0x003f
    6c48:	0f f3       	and	#0,	r15	;r3 As==00
    6c4a:	0f 4e       	mov	r14,	r15	
    6c4c:	3f 50 d0 80 	add	#-32560,r15	;#0x80d0
    6c50:	6f 4f       	mov.b	@r15,	r15	
    6c52:	4f 4f       	mov.b	r15,	r15	
    6c54:	07 ef       	xor	r15,	r7	
    6c56:	1e 44 2a ff 	mov	-214(r4),r14	;0xff2a(r4)
    6c5a:	0f 43       	clr	r15		
    6c5c:	84 4e 76 ff 	mov	r14,	-138(r4);0xff76(r4)
    6c60:	84 4f 78 ff 	mov	r15,	-136(r4);0xff78(r4)
    6c64:	12 c3       	clrc			
    6c66:	14 10 78 ff 	rrc	-136(r4)	;0xff78(r4)
    6c6a:	14 10 76 ff 	rrc	-138(r4)	;0xff76(r4)
    6c6e:	12 c3       	clrc			
    6c70:	14 10 78 ff 	rrc	-136(r4)	;0xff78(r4)
    6c74:	14 10 76 ff 	rrc	-138(r4)	;0xff76(r4)
    6c78:	12 c3       	clrc			
    6c7a:	14 10 78 ff 	rrc	-136(r4)	;0xff78(r4)
    6c7e:	14 10 76 ff 	rrc	-138(r4)	;0xff76(r4)
    6c82:	1f 44 38 ff 	mov	-200(r4),r15	;0xff38(r4)
    6c86:	2e 4f       	mov	@r15,	r14	
    6c88:	1f 4f 02 00 	mov	2(r15),	r15	;0x0002(r15)
    6c8c:	0e 43       	clr	r14		
    6c8e:	8f 10       	swpb	r15		
    6c90:	4f 4f       	mov.b	r15,	r15	
    6c92:	84 4f 7a ff 	mov	r15,	-134(r4);0xff7a(r4)
    6c96:	84 4e 7c ff 	mov	r14,	-132(r4);0xff7c(r4)
    6c9a:	12 c3       	clrc			
    6c9c:	14 10 7c ff 	rrc	-132(r4)	;0xff7c(r4)
    6ca0:	14 10 7a ff 	rrc	-134(r4)	;0xff7a(r4)
    6ca4:	12 c3       	clrc			
    6ca6:	14 10 7c ff 	rrc	-132(r4)	;0xff7c(r4)
    6caa:	14 10 7a ff 	rrc	-134(r4)	;0xff7a(r4)
    6cae:	12 c3       	clrc			
    6cb0:	14 10 7c ff 	rrc	-132(r4)	;0xff7c(r4)
    6cb4:	14 10 7a ff 	rrc	-134(r4)	;0xff7a(r4)
    6cb8:	12 c3       	clrc			
    6cba:	14 10 7c ff 	rrc	-132(r4)	;0xff7c(r4)
    6cbe:	14 10 7a ff 	rrc	-134(r4)	;0xff7a(r4)
    6cc2:	12 c3       	clrc			
    6cc4:	14 10 7c ff 	rrc	-132(r4)	;0xff7c(r4)
    6cc8:	14 10 7a ff 	rrc	-134(r4)	;0xff7a(r4)
    6ccc:	12 c3       	clrc			
    6cce:	14 10 7c ff 	rrc	-132(r4)	;0xff7c(r4)
    6cd2:	14 10 7a ff 	rrc	-134(r4)	;0xff7a(r4)
    6cd6:	1c 44 76 ff 	mov	-138(r4),r12	;0xff76(r4)
    6cda:	1d 44 78 ff 	mov	-136(r4),r13	;0xff78(r4)
    6cde:	1c e4 7a ff 	xor	-134(r4),r12	;0xff7a(r4)
    6ce2:	1d e4 7c ff 	xor	-132(r4),r13	;0xff7c(r4)
    6ce6:	1f 44 38 ff 	mov	-200(r4),r15	;0xff38(r4)
    6cea:	2e 4f       	mov	@r15,	r14	
    6cec:	1f 4f 02 00 	mov	2(r15),	r15	;0x0002(r15)
    6cf0:	0e 5e       	rla	r14		
    6cf2:	0f 6f       	rlc	r15		
    6cf4:	0e 5e       	rla	r14		
    6cf6:	0f 6f       	rlc	r15		
    6cf8:	0e ec       	xor	r12,	r14	
    6cfa:	0f ed       	xor	r13,	r15	
    6cfc:	3e f0 3f 00 	and	#63,	r14	;#0x003f
    6d00:	0f f3       	and	#0,	r15	;r3 As==00
    6d02:	0f 4e       	mov	r14,	r15	
    6d04:	3f 50 d0 80 	add	#-32560,r15	;#0x80d0
    6d08:	6f 4f       	mov.b	@r15,	r15	
    6d0a:	4f 4f       	mov.b	r15,	r15	
    6d0c:	0f 5f       	rla	r15		
    6d0e:	0f 5f       	rla	r15		
    6d10:	0f 5f       	rla	r15		
    6d12:	0f 5f       	rla	r15		
    6d14:	0d 47       	mov	r7,	r13	
    6d16:	0d ef       	xor	r15,	r13	
    6d18:	1e 44 2a ff 	mov	-214(r4),r14	;0xff2a(r4)
    6d1c:	0f 43       	clr	r15		
    6d1e:	84 4e 7e ff 	mov	r14,	-130(r4);0xff7e(r4)
    6d22:	84 4f 80 ff 	mov	r15,	-128(r4);0xff80(r4)
    6d26:	12 c3       	clrc			
    6d28:	14 10 80 ff 	rrc	-128(r4)	;0xff80(r4)
    6d2c:	14 10 7e ff 	rrc	-130(r4)	;0xff7e(r4)
    6d30:	12 c3       	clrc			
    6d32:	14 10 80 ff 	rrc	-128(r4)	;0xff80(r4)
    6d36:	14 10 7e ff 	rrc	-130(r4)	;0xff7e(r4)
    6d3a:	12 c3       	clrc			
    6d3c:	14 10 80 ff 	rrc	-128(r4)	;0xff80(r4)
    6d40:	14 10 7e ff 	rrc	-130(r4)	;0xff7e(r4)
    6d44:	12 c3       	clrc			
    6d46:	14 10 80 ff 	rrc	-128(r4)	;0xff80(r4)
    6d4a:	14 10 7e ff 	rrc	-130(r4)	;0xff7e(r4)
    6d4e:	12 c3       	clrc			
    6d50:	14 10 80 ff 	rrc	-128(r4)	;0xff80(r4)
    6d54:	14 10 7e ff 	rrc	-130(r4)	;0xff7e(r4)
    6d58:	12 c3       	clrc			
    6d5a:	14 10 80 ff 	rrc	-128(r4)	;0xff80(r4)
    6d5e:	14 10 7e ff 	rrc	-130(r4)	;0xff7e(r4)
    6d62:	12 c3       	clrc			
    6d64:	14 10 80 ff 	rrc	-128(r4)	;0xff80(r4)
    6d68:	14 10 7e ff 	rrc	-130(r4)	;0xff7e(r4)
    6d6c:	1f 44 38 ff 	mov	-200(r4),r15	;0xff38(r4)
    6d70:	2e 4f       	mov	@r15,	r14	
    6d72:	1f 4f 02 00 	mov	2(r15),	r15	;0x0002(r15)
    6d76:	12 c3       	clrc			
    6d78:	0f 10       	rrc	r15		
    6d7a:	0e 10       	rrc	r14		
    6d7c:	12 c3       	clrc			
    6d7e:	0f 10       	rrc	r15		
    6d80:	0e 10       	rrc	r14		
    6d82:	12 c3       	clrc			
    6d84:	0f 10       	rrc	r15		
    6d86:	0e 10       	rrc	r14		
    6d88:	12 c3       	clrc			
    6d8a:	0f 10       	rrc	r15		
    6d8c:	0e 10       	rrc	r14		
    6d8e:	1e e4 7e ff 	xor	-130(r4),r14	;0xff7e(r4)
    6d92:	1f e4 80 ff 	xor	-128(r4),r15	;0xff80(r4)
    6d96:	3e f0 3f 00 	and	#63,	r14	;#0x003f
    6d9a:	0f f3       	and	#0,	r15	;r3 As==00
    6d9c:	0f 4e       	mov	r14,	r15	
    6d9e:	3f 50 d0 80 	add	#-32560,r15	;#0x80d0
    6da2:	6f 4f       	mov.b	@r15,	r15	
    6da4:	4f 4f       	mov.b	r15,	r15	
    6da6:	4f 4f       	mov.b	r15,	r15	
    6da8:	8f 10       	swpb	r15		
    6daa:	0d ef       	xor	r15,	r13	
    6dac:	1f 44 2a ff 	mov	-214(r4),r15	;0xff2a(r4)
    6db0:	0e 43       	clr	r14		
    6db2:	8f 10       	swpb	r15		
    6db4:	4f 4f       	mov.b	r15,	r15	
    6db6:	84 4f 82 ff 	mov	r15,	-126(r4);0xff82(r4)
    6dba:	84 4e 84 ff 	mov	r14,	-124(r4);0xff84(r4)
    6dbe:	12 c3       	clrc			
    6dc0:	14 10 84 ff 	rrc	-124(r4)	;0xff84(r4)
    6dc4:	14 10 82 ff 	rrc	-126(r4)	;0xff82(r4)
    6dc8:	12 c3       	clrc			
    6dca:	14 10 84 ff 	rrc	-124(r4)	;0xff84(r4)
    6dce:	14 10 82 ff 	rrc	-126(r4)	;0xff82(r4)
    6dd2:	12 c3       	clrc			
    6dd4:	14 10 84 ff 	rrc	-124(r4)	;0xff84(r4)
    6dd8:	14 10 82 ff 	rrc	-126(r4)	;0xff82(r4)
    6ddc:	1f 44 38 ff 	mov	-200(r4),r15	;0xff38(r4)
    6de0:	2e 4f       	mov	@r15,	r14	
    6de2:	1f 4f 02 00 	mov	2(r15),	r15	;0x0002(r15)
    6de6:	8e 10       	swpb	r14		
    6de8:	8f 10       	swpb	r15		
    6dea:	4e ef       	xor.b	r15,	r14	
    6dec:	0e ef       	xor	r15,	r14	
    6dee:	4f 4f       	mov.b	r15,	r15	
    6df0:	12 c3       	clrc			
    6df2:	0f 10       	rrc	r15		
    6df4:	0e 10       	rrc	r14		
    6df6:	12 c3       	clrc			
    6df8:	0f 10       	rrc	r15		
    6dfa:	0e 10       	rrc	r14		
    6dfc:	1e e4 82 ff 	xor	-126(r4),r14	;0xff82(r4)
    6e00:	1f e4 84 ff 	xor	-124(r4),r15	;0xff84(r4)
    6e04:	3e f0 3f 00 	and	#63,	r14	;#0x003f
    6e08:	0f f3       	and	#0,	r15	;r3 As==00
    6e0a:	0f 4e       	mov	r14,	r15	
    6e0c:	3f 50 d0 80 	add	#-32560,r15	;#0x80d0
    6e10:	6f 4f       	mov.b	@r15,	r15	
    6e12:	4f 4f       	mov.b	r15,	r15	
    6e14:	4f 4f       	mov.b	r15,	r15	
    6e16:	8f 10       	swpb	r15		
    6e18:	0f 5f       	rla	r15		
    6e1a:	0f 5f       	rla	r15		
    6e1c:	0f 5f       	rla	r15		
    6e1e:	0f 5f       	rla	r15		
    6e20:	0f ed       	xor	r13,	r15	
    6e22:	84 4f 34 ff 	mov	r15,	-204(r4);0xff34(r4)
    6e26:	1f 44 34 ff 	mov	-204(r4),r15	;0xff34(r4)
    6e2a:	8f 10       	swpb	r15		
    6e2c:	8f 11       	sxt	r15		
    6e2e:	8f 10       	swpb	r15		
    6e30:	8f 11       	sxt	r15		
    6e32:	84 4f 36 ff 	mov	r15,	-202(r4);0xff36(r4)
    6e36:	a4 52 38 ff 	add	#4,	-200(r4);r2 As==10, 0xff38(r4)
    6e3a:	a4 52 38 ff 	add	#4,	-200(r4);r2 As==10, 0xff38(r4)
    6e3e:	1e 44 34 ff 	mov	-204(r4),r14	;0xff34(r4)
    6e42:	1f 44 36 ff 	mov	-202(r4),r15	;0xff36(r4)
    6e46:	1e f3       	and	#1,	r14	;r3 As==01
    6e48:	0f f3       	and	#0,	r15	;r3 As==00
    6e4a:	0c 4e       	mov	r14,	r12	
    6e4c:	0d 4f       	mov	r15,	r13	
    6e4e:	4d ec       	xor.b	r12,	r13	
    6e50:	0d ec       	xor	r12,	r13	
    6e52:	8d 10       	swpb	r13		
    6e54:	4c 4c       	mov.b	r12,	r12	
    6e56:	8c 10       	swpb	r12		
    6e58:	1e 44 34 ff 	mov	-204(r4),r14	;0xff34(r4)
    6e5c:	1f 44 36 ff 	mov	-202(r4),r15	;0xff36(r4)
    6e60:	2e f3       	and	#2,	r14	;r3 As==10
    6e62:	0f f3       	and	#0,	r15	;r3 As==00
    6e64:	4f ee       	xor.b	r14,	r15	
    6e66:	0f ee       	xor	r14,	r15	
    6e68:	8f 10       	swpb	r15		
    6e6a:	4e 4e       	mov.b	r14,	r14	
    6e6c:	8e 10       	swpb	r14		
    6e6e:	0e 5e       	rla	r14		
    6e70:	0f 6f       	rlc	r15		
    6e72:	0e 5e       	rla	r14		
    6e74:	0f 6f       	rlc	r15		
    6e76:	0e 5e       	rla	r14		
    6e78:	0f 6f       	rlc	r15		
    6e7a:	0e 5e       	rla	r14		
    6e7c:	0f 6f       	rlc	r15		
    6e7e:	0e 5e       	rla	r14		
    6e80:	0f 6f       	rlc	r15		
    6e82:	0e 5e       	rla	r14		
    6e84:	0f 6f       	rlc	r15		
    6e86:	0e 5e       	rla	r14		
    6e88:	0f 6f       	rlc	r15		
    6e8a:	0c ee       	xor	r14,	r12	
    6e8c:	0d ef       	xor	r15,	r13	
    6e8e:	1e 44 34 ff 	mov	-204(r4),r14	;0xff34(r4)
    6e92:	1f 44 36 ff 	mov	-202(r4),r15	;0xff36(r4)
    6e96:	2e f2       	and	#4,	r14	;r2 As==10
    6e98:	0f f3       	and	#0,	r15	;r3 As==00
    6e9a:	0f 43       	clr	r15		
    6e9c:	84 4f 86 ff 	mov	r15,	-122(r4);0xff86(r4)
    6ea0:	84 4e 88 ff 	mov	r14,	-120(r4);0xff88(r4)
    6ea4:	94 54 86 ff 	rla	-122(r4)	;0xff86(r4)
    6ea8:	86 ff 
    6eaa:	94 64 88 ff 	rlc	-120(r4)	;0xff88(r4)
    6eae:	88 ff 
    6eb0:	94 54 86 ff 	rla	-122(r4)	;0xff86(r4)
    6eb4:	86 ff 
    6eb6:	94 64 88 ff 	rlc	-120(r4)	;0xff88(r4)
    6eba:	88 ff 
    6ebc:	94 54 86 ff 	rla	-122(r4)	;0xff86(r4)
    6ec0:	86 ff 
    6ec2:	94 64 88 ff 	rlc	-120(r4)	;0xff88(r4)
    6ec6:	88 ff 
    6ec8:	94 54 86 ff 	rla	-122(r4)	;0xff86(r4)
    6ecc:	86 ff 
    6ece:	94 64 88 ff 	rlc	-120(r4)	;0xff88(r4)
    6ed2:	88 ff 
    6ed4:	1c e4 86 ff 	xor	-122(r4),r12	;0xff86(r4)
    6ed8:	1d e4 88 ff 	xor	-120(r4),r13	;0xff88(r4)
    6edc:	1e 44 34 ff 	mov	-204(r4),r14	;0xff34(r4)
    6ee0:	1f 44 36 ff 	mov	-202(r4),r15	;0xff36(r4)
    6ee4:	3e f2       	and	#8,	r14	;r2 As==11
    6ee6:	0f f3       	and	#0,	r15	;r3 As==00
    6ee8:	0f 4e       	mov	r14,	r15	
    6eea:	0e 43       	clr	r14		
    6eec:	4f 4f       	mov.b	r15,	r15	
    6eee:	8f 10       	swpb	r15		
    6ef0:	84 4e 8a ff 	mov	r14,	-118(r4);0xff8a(r4)
    6ef4:	84 4f 8c ff 	mov	r15,	-116(r4);0xff8c(r4)
    6ef8:	94 54 8a ff 	rla	-118(r4)	;0xff8a(r4)
    6efc:	8a ff 
    6efe:	94 64 8c ff 	rlc	-116(r4)	;0xff8c(r4)
    6f02:	8c ff 
    6f04:	94 54 8a ff 	rla	-118(r4)	;0xff8a(r4)
    6f08:	8a ff 
    6f0a:	94 64 8c ff 	rlc	-116(r4)	;0xff8c(r4)
    6f0e:	8c ff 
    6f10:	94 54 8a ff 	rla	-118(r4)	;0xff8a(r4)
    6f14:	8a ff 
    6f16:	94 64 8c ff 	rlc	-116(r4)	;0xff8c(r4)
    6f1a:	8c ff 
    6f1c:	1c e4 8a ff 	xor	-118(r4),r12	;0xff8a(r4)
    6f20:	1d e4 8c ff 	xor	-116(r4),r13	;0xff8c(r4)
    6f24:	1e 44 34 ff 	mov	-204(r4),r14	;0xff34(r4)
    6f28:	1f 44 36 ff 	mov	-202(r4),r15	;0xff36(r4)
    6f2c:	3e f0 10 00 	and	#16,	r14	;#0x0010
    6f30:	0f f3       	and	#0,	r15	;r3 As==00
    6f32:	4f ee       	xor.b	r14,	r15	
    6f34:	0f ee       	xor	r14,	r15	
    6f36:	8f 10       	swpb	r15		
    6f38:	4e 4e       	mov.b	r14,	r14	
    6f3a:	8e 10       	swpb	r14		
    6f3c:	0c ee       	xor	r14,	r12	
    6f3e:	0d ef       	xor	r15,	r13	
    6f40:	1e 44 34 ff 	mov	-204(r4),r14	;0xff34(r4)
    6f44:	1f 44 36 ff 	mov	-202(r4),r15	;0xff36(r4)
    6f48:	3e f0 20 00 	and	#32,	r14	;#0x0020
    6f4c:	0f f3       	and	#0,	r15	;r3 As==00
    6f4e:	0f 43       	clr	r15		
    6f50:	84 4f 8e ff 	mov	r15,	-114(r4);0xff8e(r4)
    6f54:	84 4e 90 ff 	mov	r14,	-112(r4);0xff90(r4)
    6f58:	94 54 8e ff 	rla	-114(r4)	;0xff8e(r4)
    6f5c:	8e ff 
    6f5e:	94 64 90 ff 	rlc	-112(r4)	;0xff90(r4)
    6f62:	90 ff 
    6f64:	94 54 8e ff 	rla	-114(r4)	;0xff8e(r4)
    6f68:	8e ff 
    6f6a:	94 64 90 ff 	rlc	-112(r4)	;0xff90(r4)
    6f6e:	90 ff 
    6f70:	94 54 8e ff 	rla	-114(r4)	;0xff8e(r4)
    6f74:	8e ff 
    6f76:	94 64 90 ff 	rlc	-112(r4)	;0xff90(r4)
    6f7a:	90 ff 
    6f7c:	94 54 8e ff 	rla	-114(r4)	;0xff8e(r4)
    6f80:	8e ff 
    6f82:	94 64 90 ff 	rlc	-112(r4)	;0xff90(r4)
    6f86:	90 ff 
    6f88:	94 54 8e ff 	rla	-114(r4)	;0xff8e(r4)
    6f8c:	8e ff 
    6f8e:	94 64 90 ff 	rlc	-112(r4)	;0xff90(r4)
    6f92:	90 ff 
    6f94:	94 54 8e ff 	rla	-114(r4)	;0xff8e(r4)
    6f98:	8e ff 
    6f9a:	94 64 90 ff 	rlc	-112(r4)	;0xff90(r4)
    6f9e:	90 ff 
    6fa0:	1c e4 8e ff 	xor	-114(r4),r12	;0xff8e(r4)
    6fa4:	1d e4 90 ff 	xor	-112(r4),r13	;0xff90(r4)
    6fa8:	1e 44 34 ff 	mov	-204(r4),r14	;0xff34(r4)
    6fac:	1f 44 36 ff 	mov	-202(r4),r15	;0xff36(r4)
    6fb0:	3e f0 40 00 	and	#64,	r14	;#0x0040
    6fb4:	0f f3       	and	#0,	r15	;r3 As==00
    6fb6:	12 c3       	clrc			
    6fb8:	0f 10       	rrc	r15		
    6fba:	0e 10       	rrc	r14		
    6fbc:	12 c3       	clrc			
    6fbe:	0f 10       	rrc	r15		
    6fc0:	0e 10       	rrc	r14		
    6fc2:	12 c3       	clrc			
    6fc4:	0f 10       	rrc	r15		
    6fc6:	0e 10       	rrc	r14		
    6fc8:	12 c3       	clrc			
    6fca:	0f 10       	rrc	r15		
    6fcc:	0e 10       	rrc	r14		
    6fce:	12 c3       	clrc			
    6fd0:	0f 10       	rrc	r15		
    6fd2:	0e 10       	rrc	r14		
    6fd4:	0c ee       	xor	r14,	r12	
    6fd6:	0d ef       	xor	r15,	r13	
    6fd8:	1e 44 34 ff 	mov	-204(r4),r14	;0xff34(r4)
    6fdc:	1f 44 36 ff 	mov	-202(r4),r15	;0xff36(r4)
    6fe0:	3e f0 80 00 	and	#128,	r14	;#0x0080
    6fe4:	0f f3       	and	#0,	r15	;r3 As==00
    6fe6:	4f ee       	xor.b	r14,	r15	
    6fe8:	0f ee       	xor	r14,	r15	
    6fea:	8f 10       	swpb	r15		
    6fec:	4e 4e       	mov.b	r14,	r14	
    6fee:	8e 10       	swpb	r14		
    6ff0:	0e 5e       	rla	r14		
    6ff2:	0f 6f       	rlc	r15		
    6ff4:	0e 5e       	rla	r14		
    6ff6:	0f 6f       	rlc	r15		
    6ff8:	0c ee       	xor	r14,	r12	
    6ffa:	0d ef       	xor	r15,	r13	
    6ffc:	1e 44 34 ff 	mov	-204(r4),r14	;0xff34(r4)
    7000:	1f 44 36 ff 	mov	-202(r4),r15	;0xff36(r4)
    7004:	3e f0 00 01 	and	#256,	r14	;#0x0100
    7008:	0f f3       	and	#0,	r15	;r3 As==00
    700a:	4f ee       	xor.b	r14,	r15	
    700c:	0f ee       	xor	r14,	r15	
    700e:	8f 10       	swpb	r15		
    7010:	4e 4e       	mov.b	r14,	r14	
    7012:	8e 10       	swpb	r14		
    7014:	0e 5e       	rla	r14		
    7016:	0f 6f       	rlc	r15		
    7018:	0e 5e       	rla	r14		
    701a:	0f 6f       	rlc	r15		
    701c:	0e 5e       	rla	r14		
    701e:	0f 6f       	rlc	r15		
    7020:	0e 5e       	rla	r14		
    7022:	0f 6f       	rlc	r15		
    7024:	0e 5e       	rla	r14		
    7026:	0f 6f       	rlc	r15		
    7028:	0e 5e       	rla	r14		
    702a:	0f 6f       	rlc	r15		
    702c:	0e 5e       	rla	r14		
    702e:	0f 6f       	rlc	r15		
    7030:	0c ee       	xor	r14,	r12	
    7032:	0d ef       	xor	r15,	r13	
    7034:	1e 44 34 ff 	mov	-204(r4),r14	;0xff34(r4)
    7038:	1f 44 36 ff 	mov	-202(r4),r15	;0xff36(r4)
    703c:	3e f0 00 02 	and	#512,	r14	;#0x0200
    7040:	0f f3       	and	#0,	r15	;r3 As==00
    7042:	0e 5e       	rla	r14		
    7044:	0f 6f       	rlc	r15		
    7046:	0e 5e       	rla	r14		
    7048:	0f 6f       	rlc	r15		
    704a:	0e 5e       	rla	r14		
    704c:	0f 6f       	rlc	r15		
    704e:	0e 5e       	rla	r14		
    7050:	0f 6f       	rlc	r15		
    7052:	0e 5e       	rla	r14		
    7054:	0f 6f       	rlc	r15		
    7056:	0e 5e       	rla	r14		
    7058:	0f 6f       	rlc	r15		
    705a:	0c ee       	xor	r14,	r12	
    705c:	0d ef       	xor	r15,	r13	
    705e:	1e 44 34 ff 	mov	-204(r4),r14	;0xff34(r4)
    7062:	1f 44 36 ff 	mov	-202(r4),r15	;0xff36(r4)
    7066:	3e f0 00 04 	and	#1024,	r14	;#0x0400
    706a:	0f f3       	and	#0,	r15	;r3 As==00
    706c:	0f 43       	clr	r15		
    706e:	84 4f 92 ff 	mov	r15,	-110(r4);0xff92(r4)
    7072:	84 4e 94 ff 	mov	r14,	-108(r4);0xff94(r4)
    7076:	94 54 92 ff 	rla	-110(r4)	;0xff92(r4)
    707a:	92 ff 
    707c:	94 64 94 ff 	rlc	-108(r4)	;0xff94(r4)
    7080:	94 ff 
    7082:	94 54 92 ff 	rla	-110(r4)	;0xff92(r4)
    7086:	92 ff 
    7088:	94 64 94 ff 	rlc	-108(r4)	;0xff94(r4)
    708c:	94 ff 
    708e:	94 54 92 ff 	rla	-110(r4)	;0xff92(r4)
    7092:	92 ff 
    7094:	94 64 94 ff 	rlc	-108(r4)	;0xff94(r4)
    7098:	94 ff 
    709a:	1c e4 92 ff 	xor	-110(r4),r12	;0xff92(r4)
    709e:	1d e4 94 ff 	xor	-108(r4),r13	;0xff94(r4)
    70a2:	1e 44 34 ff 	mov	-204(r4),r14	;0xff34(r4)
    70a6:	1f 44 36 ff 	mov	-202(r4),r15	;0xff36(r4)
    70aa:	3e f0 00 08 	and	#2048,	r14	;#0x0800
    70ae:	0f f3       	and	#0,	r15	;r3 As==00
    70b0:	12 c3       	clrc			
    70b2:	0f 10       	rrc	r15		
    70b4:	0e 10       	rrc	r14		
    70b6:	12 c3       	clrc			
    70b8:	0f 10       	rrc	r15		
    70ba:	0e 10       	rrc	r14		
    70bc:	12 c3       	clrc			
    70be:	0f 10       	rrc	r15		
    70c0:	0e 10       	rrc	r14		
    70c2:	12 c3       	clrc			
    70c4:	0f 10       	rrc	r15		
    70c6:	0e 10       	rrc	r14		
    70c8:	12 c3       	clrc			
    70ca:	0f 10       	rrc	r15		
    70cc:	0e 10       	rrc	r14		
    70ce:	12 c3       	clrc			
    70d0:	0f 10       	rrc	r15		
    70d2:	0e 10       	rrc	r14		
    70d4:	0c ee       	xor	r14,	r12	
    70d6:	0d ef       	xor	r15,	r13	
    70d8:	1e 44 34 ff 	mov	-204(r4),r14	;0xff34(r4)
    70dc:	1f 44 36 ff 	mov	-202(r4),r15	;0xff36(r4)
    70e0:	3e f0 00 10 	and	#4096,	r14	;#0x1000
    70e4:	0f f3       	and	#0,	r15	;r3 As==00
    70e6:	4f ee       	xor.b	r14,	r15	
    70e8:	0f ee       	xor	r14,	r15	
    70ea:	8f 10       	swpb	r15		
    70ec:	4e 4e       	mov.b	r14,	r14	
    70ee:	8e 10       	swpb	r14		
    70f0:	0e 5e       	rla	r14		
    70f2:	0f 6f       	rlc	r15		
    70f4:	0e 5e       	rla	r14		
    70f6:	0f 6f       	rlc	r15		
    70f8:	0e 5e       	rla	r14		
    70fa:	0f 6f       	rlc	r15		
    70fc:	0e 5e       	rla	r14		
    70fe:	0f 6f       	rlc	r15		
    7100:	0e 5e       	rla	r14		
    7102:	0f 6f       	rlc	r15		
    7104:	0c ee       	xor	r14,	r12	
    7106:	0d ef       	xor	r15,	r13	
    7108:	1e 44 34 ff 	mov	-204(r4),r14	;0xff34(r4)
    710c:	1f 44 36 ff 	mov	-202(r4),r15	;0xff36(r4)
    7110:	3e f0 00 20 	and	#8192,	r14	;#0x2000
    7114:	0f f3       	and	#0,	r15	;r3 As==00
    7116:	0e 5e       	rla	r14		
    7118:	0f 6f       	rlc	r15		
    711a:	0e 5e       	rla	r14		
    711c:	0f 6f       	rlc	r15		
    711e:	0e 5e       	rla	r14		
    7120:	0f 6f       	rlc	r15		
    7122:	0e 5e       	rla	r14		
    7124:	0f 6f       	rlc	r15		
    7126:	0e 5e       	rla	r14		
    7128:	0f 6f       	rlc	r15		
    712a:	0e 5e       	rla	r14		
    712c:	0f 6f       	rlc	r15		
    712e:	0c ee       	xor	r14,	r12	
    7130:	0d ef       	xor	r15,	r13	
    7132:	1e 44 34 ff 	mov	-204(r4),r14	;0xff34(r4)
    7136:	1f 44 36 ff 	mov	-202(r4),r15	;0xff36(r4)
    713a:	3e f0 00 40 	and	#16384,	r14	;#0x4000
    713e:	0f f3       	and	#0,	r15	;r3 As==00
    7140:	12 c3       	clrc			
    7142:	0f 10       	rrc	r15		
    7144:	0e 10       	rrc	r14		
    7146:	12 c3       	clrc			
    7148:	0f 10       	rrc	r15		
    714a:	0e 10       	rrc	r14		
    714c:	12 c3       	clrc			
    714e:	0f 10       	rrc	r15		
    7150:	0e 10       	rrc	r14		
    7152:	12 c3       	clrc			
    7154:	0f 10       	rrc	r15		
    7156:	0e 10       	rrc	r14		
    7158:	12 c3       	clrc			
    715a:	0f 10       	rrc	r15		
    715c:	0e 10       	rrc	r14		
    715e:	0c ee       	xor	r14,	r12	
    7160:	0d ef       	xor	r15,	r13	
    7162:	1e 44 34 ff 	mov	-204(r4),r14	;0xff34(r4)
    7166:	1f 44 36 ff 	mov	-202(r4),r15	;0xff36(r4)
    716a:	3e f0 00 80 	and	#-32768,r14	;#0x8000
    716e:	0f f3       	and	#0,	r15	;r3 As==00
    7170:	8e 10       	swpb	r14		
    7172:	8f 10       	swpb	r15		
    7174:	4e ef       	xor.b	r15,	r14	
    7176:	0e ef       	xor	r15,	r14	
    7178:	4f 4f       	mov.b	r15,	r15	
    717a:	12 c3       	clrc			
    717c:	0f 10       	rrc	r15		
    717e:	0e 10       	rrc	r14		
    7180:	12 c3       	clrc			
    7182:	0f 10       	rrc	r15		
    7184:	0e 10       	rrc	r14		
    7186:	12 c3       	clrc			
    7188:	0f 10       	rrc	r15		
    718a:	0e 10       	rrc	r14		
    718c:	12 c3       	clrc			
    718e:	0f 10       	rrc	r15		
    7190:	0e 10       	rrc	r14		
    7192:	12 c3       	clrc			
    7194:	0f 10       	rrc	r15		
    7196:	0e 10       	rrc	r14		
    7198:	12 c3       	clrc			
    719a:	0f 10       	rrc	r15		
    719c:	0e 10       	rrc	r14		
    719e:	12 c3       	clrc			
    71a0:	0f 10       	rrc	r15		
    71a2:	0e 10       	rrc	r14		
    71a4:	0c ee       	xor	r14,	r12	
    71a6:	0d ef       	xor	r15,	r13	
    71a8:	1e 44 34 ff 	mov	-204(r4),r14	;0xff34(r4)
    71ac:	1f 44 36 ff 	mov	-202(r4),r15	;0xff36(r4)
    71b0:	0e f3       	and	#0,	r14	;r3 As==00
    71b2:	1f f3       	and	#1,	r15	;r3 As==01
    71b4:	8e 10       	swpb	r14		
    71b6:	8f 10       	swpb	r15		
    71b8:	4e ef       	xor.b	r15,	r14	
    71ba:	0e ef       	xor	r15,	r14	
    71bc:	4f 4f       	mov.b	r15,	r15	
    71be:	12 c3       	clrc			
    71c0:	0f 10       	rrc	r15		
    71c2:	0e 10       	rrc	r14		
    71c4:	0c ee       	xor	r14,	r12	
    71c6:	0d ef       	xor	r15,	r13	
    71c8:	1e 44 34 ff 	mov	-204(r4),r14	;0xff34(r4)
    71cc:	1f 44 36 ff 	mov	-202(r4),r15	;0xff36(r4)
    71d0:	0e f3       	and	#0,	r14	;r3 As==00
    71d2:	2f f3       	and	#2,	r15	;r3 As==10
    71d4:	12 c3       	clrc			
    71d6:	0f 10       	rrc	r15		
    71d8:	0e 10       	rrc	r14		
    71da:	12 c3       	clrc			
    71dc:	0f 10       	rrc	r15		
    71de:	0e 10       	rrc	r14		
    71e0:	12 c3       	clrc			
    71e2:	0f 10       	rrc	r15		
    71e4:	0e 10       	rrc	r14		
    71e6:	12 c3       	clrc			
    71e8:	0f 10       	rrc	r15		
    71ea:	0e 10       	rrc	r14		
    71ec:	0c ee       	xor	r14,	r12	
    71ee:	0d ef       	xor	r15,	r13	
    71f0:	1e 44 34 ff 	mov	-204(r4),r14	;0xff34(r4)
    71f4:	1f 44 36 ff 	mov	-202(r4),r15	;0xff36(r4)
    71f8:	0e f3       	and	#0,	r14	;r3 As==00
    71fa:	2f f2       	and	#4,	r15	;r2 As==10
    71fc:	0e 5e       	rla	r14		
    71fe:	0f 6f       	rlc	r15		
    7200:	0e 5e       	rla	r14		
    7202:	0f 6f       	rlc	r15		
    7204:	0e 5e       	rla	r14		
    7206:	0f 6f       	rlc	r15		
    7208:	0e 5e       	rla	r14		
    720a:	0f 6f       	rlc	r15		
    720c:	0e 5e       	rla	r14		
    720e:	0f 6f       	rlc	r15		
    7210:	0e 5e       	rla	r14		
    7212:	0f 6f       	rlc	r15		
    7214:	0c ee       	xor	r14,	r12	
    7216:	0d ef       	xor	r15,	r13	
    7218:	1e 44 34 ff 	mov	-204(r4),r14	;0xff34(r4)
    721c:	1f 44 36 ff 	mov	-202(r4),r15	;0xff36(r4)
    7220:	0e f3       	and	#0,	r14	;r3 As==00
    7222:	3f f2       	and	#8,	r15	;r2 As==11
    7224:	0e 4f       	mov	r15,	r14	
    7226:	0f 43       	clr	r15		
    7228:	84 4e 96 ff 	mov	r14,	-106(r4);0xff96(r4)
    722c:	84 4f 98 ff 	mov	r15,	-104(r4);0xff98(r4)
    7230:	12 c3       	clrc			
    7232:	14 10 98 ff 	rrc	-104(r4)	;0xff98(r4)
    7236:	14 10 96 ff 	rrc	-106(r4)	;0xff96(r4)
    723a:	1c e4 96 ff 	xor	-106(r4),r12	;0xff96(r4)
    723e:	1d e4 98 ff 	xor	-104(r4),r13	;0xff98(r4)
    7242:	1e 44 34 ff 	mov	-204(r4),r14	;0xff34(r4)
    7246:	1f 44 36 ff 	mov	-202(r4),r15	;0xff36(r4)
    724a:	0e f3       	and	#0,	r14	;r3 As==00
    724c:	3f f0 10 00 	and	#16,	r15	;#0x0010
    7250:	0e 4f       	mov	r15,	r14	
    7252:	0f 43       	clr	r15		
    7254:	84 4e 9a ff 	mov	r14,	-102(r4);0xff9a(r4)
    7258:	84 4f 9c ff 	mov	r15,	-100(r4);0xff9c(r4)
    725c:	12 c3       	clrc			
    725e:	14 10 9c ff 	rrc	-100(r4)	;0xff9c(r4)
    7262:	14 10 9a ff 	rrc	-102(r4)	;0xff9a(r4)
    7266:	1c e4 9a ff 	xor	-102(r4),r12	;0xff9a(r4)
    726a:	1d e4 9c ff 	xor	-100(r4),r13	;0xff9c(r4)
    726e:	1e 44 34 ff 	mov	-204(r4),r14	;0xff34(r4)
    7272:	1f 44 36 ff 	mov	-202(r4),r15	;0xff36(r4)
    7276:	0e f3       	and	#0,	r14	;r3 As==00
    7278:	3f f0 20 00 	and	#32,	r15	;#0x0020
    727c:	0e 5e       	rla	r14		
    727e:	0f 6f       	rlc	r15		
    7280:	0e 5e       	rla	r14		
    7282:	0f 6f       	rlc	r15		
    7284:	0e 5e       	rla	r14		
    7286:	0f 6f       	rlc	r15		
    7288:	0e 5e       	rla	r14		
    728a:	0f 6f       	rlc	r15		
    728c:	0e 5e       	rla	r14		
    728e:	0f 6f       	rlc	r15		
    7290:	0e 5e       	rla	r14		
    7292:	0f 6f       	rlc	r15		
    7294:	0e 5e       	rla	r14		
    7296:	0f 6f       	rlc	r15		
    7298:	0c ee       	xor	r14,	r12	
    729a:	0d ef       	xor	r15,	r13	
    729c:	1e 44 34 ff 	mov	-204(r4),r14	;0xff34(r4)
    72a0:	1f 44 36 ff 	mov	-202(r4),r15	;0xff36(r4)
    72a4:	0e f3       	and	#0,	r14	;r3 As==00
    72a6:	3f f0 40 00 	and	#64,	r15	;#0x0040
    72aa:	8e 10       	swpb	r14		
    72ac:	8f 10       	swpb	r15		
    72ae:	4e ef       	xor.b	r15,	r14	
    72b0:	0e ef       	xor	r15,	r14	
    72b2:	4f 4f       	mov.b	r15,	r15	
    72b4:	12 c3       	clrc			
    72b6:	0f 10       	rrc	r15		
    72b8:	0e 10       	rrc	r14		
    72ba:	12 c3       	clrc			
    72bc:	0f 10       	rrc	r15		
    72be:	0e 10       	rrc	r14		
    72c0:	12 c3       	clrc			
    72c2:	0f 10       	rrc	r15		
    72c4:	0e 10       	rrc	r14		
    72c6:	12 c3       	clrc			
    72c8:	0f 10       	rrc	r15		
    72ca:	0e 10       	rrc	r14		
    72cc:	0c ee       	xor	r14,	r12	
    72ce:	0d ef       	xor	r15,	r13	
    72d0:	1e 44 34 ff 	mov	-204(r4),r14	;0xff34(r4)
    72d4:	1f 44 36 ff 	mov	-202(r4),r15	;0xff36(r4)
    72d8:	0e f3       	and	#0,	r14	;r3 As==00
    72da:	3f f0 80 00 	and	#128,	r15	;#0x0080
    72de:	12 c3       	clrc			
    72e0:	0f 10       	rrc	r15		
    72e2:	0e 10       	rrc	r14		
    72e4:	12 c3       	clrc			
    72e6:	0f 10       	rrc	r15		
    72e8:	0e 10       	rrc	r14		
    72ea:	12 c3       	clrc			
    72ec:	0f 10       	rrc	r15		
    72ee:	0e 10       	rrc	r14		
    72f0:	12 c3       	clrc			
    72f2:	0f 10       	rrc	r15		
    72f4:	0e 10       	rrc	r14		
    72f6:	12 c3       	clrc			
    72f8:	0f 10       	rrc	r15		
    72fa:	0e 10       	rrc	r14		
    72fc:	0c ee       	xor	r14,	r12	
    72fe:	0d ef       	xor	r15,	r13	
    7300:	1e 44 34 ff 	mov	-204(r4),r14	;0xff34(r4)
    7304:	1f 44 36 ff 	mov	-202(r4),r15	;0xff36(r4)
    7308:	0e f3       	and	#0,	r14	;r3 As==00
    730a:	3f f0 00 01 	and	#256,	r15	;#0x0100
    730e:	0e 5e       	rla	r14		
    7310:	0f 6f       	rlc	r15		
    7312:	0e 5e       	rla	r14		
    7314:	0f 6f       	rlc	r15		
    7316:	0e 5e       	rla	r14		
    7318:	0f 6f       	rlc	r15		
    731a:	0e 5e       	rla	r14		
    731c:	0f 6f       	rlc	r15		
    731e:	0e 5e       	rla	r14		
    7320:	0f 6f       	rlc	r15		
    7322:	0e 5e       	rla	r14		
    7324:	0f 6f       	rlc	r15		
    7326:	0e 5e       	rla	r14		
    7328:	0f 6f       	rlc	r15		
    732a:	0c ee       	xor	r14,	r12	
    732c:	0d ef       	xor	r15,	r13	
    732e:	1e 44 34 ff 	mov	-204(r4),r14	;0xff34(r4)
    7332:	1f 44 36 ff 	mov	-202(r4),r15	;0xff36(r4)
    7336:	0e f3       	and	#0,	r14	;r3 As==00
    7338:	3f f0 00 02 	and	#512,	r15	;#0x0200
    733c:	8e 10       	swpb	r14		
    733e:	8f 10       	swpb	r15		
    7340:	4e ef       	xor.b	r15,	r14	
    7342:	0e ef       	xor	r15,	r14	
    7344:	4f 4f       	mov.b	r15,	r15	
    7346:	12 c3       	clrc			
    7348:	0f 10       	rrc	r15		
    734a:	0e 10       	rrc	r14		
    734c:	12 c3       	clrc			
    734e:	0f 10       	rrc	r15		
    7350:	0e 10       	rrc	r14		
    7352:	12 c3       	clrc			
    7354:	0f 10       	rrc	r15		
    7356:	0e 10       	rrc	r14		
    7358:	12 c3       	clrc			
    735a:	0f 10       	rrc	r15		
    735c:	0e 10       	rrc	r14		
    735e:	12 c3       	clrc			
    7360:	0f 10       	rrc	r15		
    7362:	0e 10       	rrc	r14		
    7364:	12 c3       	clrc			
    7366:	0f 10       	rrc	r15		
    7368:	0e 10       	rrc	r14		
    736a:	0c ee       	xor	r14,	r12	
    736c:	0d ef       	xor	r15,	r13	
    736e:	1e 44 34 ff 	mov	-204(r4),r14	;0xff34(r4)
    7372:	1f 44 36 ff 	mov	-202(r4),r15	;0xff36(r4)
    7376:	0e f3       	and	#0,	r14	;r3 As==00
    7378:	3f f0 00 04 	and	#1024,	r15	;#0x0400
    737c:	12 c3       	clrc			
    737e:	0f 10       	rrc	r15		
    7380:	0e 10       	rrc	r14		
    7382:	12 c3       	clrc			
    7384:	0f 10       	rrc	r15		
    7386:	0e 10       	rrc	r14		
    7388:	12 c3       	clrc			
    738a:	0f 10       	rrc	r15		
    738c:	0e 10       	rrc	r14		
    738e:	12 c3       	clrc			
    7390:	0f 10       	rrc	r15		
    7392:	0e 10       	rrc	r14		
    7394:	12 c3       	clrc			
    7396:	0f 10       	rrc	r15		
    7398:	0e 10       	rrc	r14		
    739a:	0c ee       	xor	r14,	r12	
    739c:	0d ef       	xor	r15,	r13	
    739e:	1e 44 34 ff 	mov	-204(r4),r14	;0xff34(r4)
    73a2:	1f 44 36 ff 	mov	-202(r4),r15	;0xff36(r4)
    73a6:	0e f3       	and	#0,	r14	;r3 As==00
    73a8:	3f f0 00 08 	and	#2048,	r15	;#0x0800
    73ac:	0e 4f       	mov	r15,	r14	
    73ae:	0f 43       	clr	r15		
    73b0:	84 4e 9e ff 	mov	r14,	-98(r4)	;0xff9e(r4)
    73b4:	84 4f a0 ff 	mov	r15,	-96(r4)	;0xffa0(r4)
    73b8:	12 c3       	clrc			
    73ba:	14 10 a0 ff 	rrc	-96(r4)	;0xffa0(r4)
    73be:	14 10 9e ff 	rrc	-98(r4)	;0xff9e(r4)
    73c2:	12 c3       	clrc			
    73c4:	14 10 a0 ff 	rrc	-96(r4)	;0xffa0(r4)
    73c8:	14 10 9e ff 	rrc	-98(r4)	;0xff9e(r4)
    73cc:	12 c3       	clrc			
    73ce:	14 10 a0 ff 	rrc	-96(r4)	;0xffa0(r4)
    73d2:	14 10 9e ff 	rrc	-98(r4)	;0xff9e(r4)
    73d6:	12 c3       	clrc			
    73d8:	14 10 a0 ff 	rrc	-96(r4)	;0xffa0(r4)
    73dc:	14 10 9e ff 	rrc	-98(r4)	;0xff9e(r4)
    73e0:	12 c3       	clrc			
    73e2:	14 10 a0 ff 	rrc	-96(r4)	;0xffa0(r4)
    73e6:	14 10 9e ff 	rrc	-98(r4)	;0xff9e(r4)
    73ea:	1c e4 9e ff 	xor	-98(r4),r12	;0xff9e(r4)
    73ee:	1d e4 a0 ff 	xor	-96(r4),r13	;0xffa0(r4)
    73f2:	1e 44 34 ff 	mov	-204(r4),r14	;0xff34(r4)
    73f6:	1f 44 36 ff 	mov	-202(r4),r15	;0xff36(r4)
    73fa:	0e f3       	and	#0,	r14	;r3 As==00
    73fc:	3f f0 00 10 	and	#4096,	r15	;#0x1000
    7400:	0e 43       	clr	r14		
    7402:	8f 10       	swpb	r15		
    7404:	4f 4f       	mov.b	r15,	r15	
    7406:	84 4f a2 ff 	mov	r15,	-94(r4)	;0xffa2(r4)
    740a:	84 4e a4 ff 	mov	r14,	-92(r4)	;0xffa4(r4)
    740e:	1c e4 a2 ff 	xor	-94(r4),r12	;0xffa2(r4)
    7412:	1d e4 a4 ff 	xor	-92(r4),r13	;0xffa4(r4)
    7416:	1e 44 34 ff 	mov	-204(r4),r14	;0xff34(r4)
    741a:	1f 44 36 ff 	mov	-202(r4),r15	;0xff36(r4)
    741e:	0e f3       	and	#0,	r14	;r3 As==00
    7420:	3f f0 00 20 	and	#8192,	r15	;#0x2000
    7424:	12 c3       	clrc			
    7426:	0f 10       	rrc	r15		
    7428:	0e 10       	rrc	r14		
    742a:	12 c3       	clrc			
    742c:	0f 10       	rrc	r15		
    742e:	0e 10       	rrc	r14		
    7430:	12 c3       	clrc			
    7432:	0f 10       	rrc	r15		
    7434:	0e 10       	rrc	r14		
    7436:	0c ee       	xor	r14,	r12	
    7438:	0d ef       	xor	r15,	r13	
    743a:	1e 44 34 ff 	mov	-204(r4),r14	;0xff34(r4)
    743e:	1f 44 36 ff 	mov	-202(r4),r15	;0xff36(r4)
    7442:	0e f3       	and	#0,	r14	;r3 As==00
    7444:	3f f0 00 40 	and	#16384,	r15	;#0x4000
    7448:	0e 4f       	mov	r15,	r14	
    744a:	0f 43       	clr	r15		
    744c:	84 4e a6 ff 	mov	r14,	-90(r4)	;0xffa6(r4)
    7450:	84 4f a8 ff 	mov	r15,	-88(r4)	;0xffa8(r4)
    7454:	1c e4 a6 ff 	xor	-90(r4),r12	;0xffa6(r4)
    7458:	1d e4 a8 ff 	xor	-88(r4),r13	;0xffa8(r4)
    745c:	1e 44 34 ff 	mov	-204(r4),r14	;0xff34(r4)
    7460:	1f 44 36 ff 	mov	-202(r4),r15	;0xff36(r4)
    7464:	0e f3       	and	#0,	r14	;r3 As==00
    7466:	3f f0 00 80 	and	#-32768,r15	;#0x8000
    746a:	8e 10       	swpb	r14		
    746c:	8f 10       	swpb	r15		
    746e:	4e ef       	xor.b	r15,	r14	
    7470:	0e ef       	xor	r15,	r14	
    7472:	4f 4f       	mov.b	r15,	r15	
    7474:	12 c3       	clrc			
    7476:	0f 10       	rrc	r15		
    7478:	0e 10       	rrc	r14		
    747a:	12 c3       	clrc			
    747c:	0f 10       	rrc	r15		
    747e:	0e 10       	rrc	r14		
    7480:	12 c3       	clrc			
    7482:	0f 10       	rrc	r15		
    7484:	0e 10       	rrc	r14		
    7486:	06 4c       	mov	r12,	r6	
    7488:	07 4d       	mov	r13,	r7	
    748a:	06 ee       	xor	r14,	r6	
    748c:	07 ef       	xor	r15,	r7	
    748e:	84 46 34 ff 	mov	r6,	-204(r4);0xff34(r4)
    7492:	84 47 36 ff 	mov	r7,	-202(r4);0xff36(r4)
    7496:	94 e4 34 ff 	xor	-204(r4),-220(r4);0xff34(r4), 0xff24(r4)
    749a:	24 ff 
    749c:	94 e4 36 ff 	xor	-202(r4),-218(r4);0xff36(r4), 0xff26(r4)
    74a0:	26 ff 
        DES_ROUND( X, Y );
    74a2:	1f 44 24 ff 	mov	-220(r4),r15	;0xff24(r4)
    74a6:	0f 5f       	rla	r15		
    74a8:	0f 43       	clr	r15		
    74aa:	0f 6f       	rlc	r15		
    74ac:	0e 4f       	mov	r15,	r14	
    74ae:	1f 44 26 ff 	mov	-218(r4),r15	;0xff26(r4)
    74b2:	0f 5f       	rla	r15		
    74b4:	07 4e       	mov	r14,	r7	
    74b6:	07 df       	bis	r15,	r7	
    74b8:	84 47 ac ff 	mov	r7,	-84(r4)	;0xffac(r4)
    74bc:	1f 44 26 ff 	mov	-218(r4),r15	;0xff26(r4)
    74c0:	0f 5f       	rla	r15		
    74c2:	0f 43       	clr	r15		
    74c4:	0f 6f       	rlc	r15		
    74c6:	0e 4f       	mov	r15,	r14	
    74c8:	1f 44 24 ff 	mov	-220(r4),r15	;0xff24(r4)
    74cc:	0f 5f       	rla	r15		
    74ce:	0a 4e       	mov	r14,	r10	
    74d0:	0a df       	bis	r15,	r10	
    74d2:	84 4a aa ff 	mov	r10,	-86(r4)	;0xffaa(r4)
    74d6:	1f 44 38 ff 	mov	-200(r4),r15	;0xff38(r4)
    74da:	2e 4f       	mov	@r15,	r14	
    74dc:	1f 4f 02 00 	mov	2(r15),	r15	;0x0002(r15)
    74e0:	1e e4 aa ff 	xor	-86(r4),r14	;0xffaa(r4)
    74e4:	1f e4 ac ff 	xor	-84(r4),r15	;0xffac(r4)
    74e8:	3e f0 3f 00 	and	#63,	r14	;#0x003f
    74ec:	0f f3       	and	#0,	r15	;r3 As==00
    74ee:	0f 4e       	mov	r14,	r15	
    74f0:	3f 50 d0 80 	add	#-32560,r15	;#0x80d0
    74f4:	6f 4f       	mov.b	@r15,	r15	
    74f6:	47 4f       	mov.b	r15,	r7	
    74f8:	1c 44 24 ff 	mov	-220(r4),r12	;0xff24(r4)
    74fc:	1d 44 26 ff 	mov	-218(r4),r13	;0xff26(r4)
    7500:	12 c3       	clrc			
    7502:	0d 10       	rrc	r13		
    7504:	0c 10       	rrc	r12		
    7506:	12 c3       	clrc			
    7508:	0d 10       	rrc	r13		
    750a:	0c 10       	rrc	r12		
    750c:	12 c3       	clrc			
    750e:	0d 10       	rrc	r13		
    7510:	0c 10       	rrc	r12		
    7512:	1f 44 38 ff 	mov	-200(r4),r15	;0xff38(r4)
    7516:	2e 4f       	mov	@r15,	r14	
    7518:	1f 4f 02 00 	mov	2(r15),	r15	;0x0002(r15)
    751c:	12 c3       	clrc			
    751e:	0f 10       	rrc	r15		
    7520:	0e 10       	rrc	r14		
    7522:	12 c3       	clrc			
    7524:	0f 10       	rrc	r15		
    7526:	0e 10       	rrc	r14		
    7528:	12 c3       	clrc			
    752a:	0f 10       	rrc	r15		
    752c:	0e 10       	rrc	r14		
    752e:	12 c3       	clrc			
    7530:	0f 10       	rrc	r15		
    7532:	0e 10       	rrc	r14		
    7534:	12 c3       	clrc			
    7536:	0f 10       	rrc	r15		
    7538:	0e 10       	rrc	r14		
    753a:	12 c3       	clrc			
    753c:	0f 10       	rrc	r15		
    753e:	0e 10       	rrc	r14		
    7540:	0e ec       	xor	r12,	r14	
    7542:	0f ed       	xor	r13,	r15	
    7544:	3e f0 3f 00 	and	#63,	r14	;#0x003f
    7548:	0f f3       	and	#0,	r15	;r3 As==00
    754a:	0f 4e       	mov	r14,	r15	
    754c:	3f 50 d0 80 	add	#-32560,r15	;#0x80d0
    7550:	6f 4f       	mov.b	@r15,	r15	
    7552:	4f 4f       	mov.b	r15,	r15	
    7554:	0f 5f       	rla	r15		
    7556:	0f 5f       	rla	r15		
    7558:	0f 5f       	rla	r15		
    755a:	0f 5f       	rla	r15		
    755c:	07 ef       	xor	r15,	r7	
    755e:	1c 44 24 ff 	mov	-220(r4),r12	;0xff24(r4)
    7562:	1d 44 26 ff 	mov	-218(r4),r13	;0xff26(r4)
    7566:	12 c3       	clrc			
    7568:	0d 10       	rrc	r13		
    756a:	0c 10       	rrc	r12		
    756c:	12 c3       	clrc			
    756e:	0d 10       	rrc	r13		
    7570:	0c 10       	rrc	r12		
    7572:	12 c3       	clrc			
    7574:	0d 10       	rrc	r13		
    7576:	0c 10       	rrc	r12		
    7578:	12 c3       	clrc			
    757a:	0d 10       	rrc	r13		
    757c:	0c 10       	rrc	r12		
    757e:	12 c3       	clrc			
    7580:	0d 10       	rrc	r13		
    7582:	0c 10       	rrc	r12		
    7584:	12 c3       	clrc			
    7586:	0d 10       	rrc	r13		
    7588:	0c 10       	rrc	r12		
    758a:	12 c3       	clrc			
    758c:	0d 10       	rrc	r13		
    758e:	0c 10       	rrc	r12		
    7590:	1f 44 38 ff 	mov	-200(r4),r15	;0xff38(r4)
    7594:	2e 4f       	mov	@r15,	r14	
    7596:	1f 4f 02 00 	mov	2(r15),	r15	;0x0002(r15)
    759a:	8e 10       	swpb	r14		
    759c:	8f 10       	swpb	r15		
    759e:	4e ef       	xor.b	r15,	r14	
    75a0:	0e ef       	xor	r15,	r14	
    75a2:	4f 4f       	mov.b	r15,	r15	
    75a4:	12 c3       	clrc			
    75a6:	0f 10       	rrc	r15		
    75a8:	0e 10       	rrc	r14		
    75aa:	12 c3       	clrc			
    75ac:	0f 10       	rrc	r15		
    75ae:	0e 10       	rrc	r14		
    75b0:	12 c3       	clrc			
    75b2:	0f 10       	rrc	r15		
    75b4:	0e 10       	rrc	r14		
    75b6:	12 c3       	clrc			
    75b8:	0f 10       	rrc	r15		
    75ba:	0e 10       	rrc	r14		
    75bc:	0e ec       	xor	r12,	r14	
    75be:	0f ed       	xor	r13,	r15	
    75c0:	3e f0 3f 00 	and	#63,	r14	;#0x003f
    75c4:	0f f3       	and	#0,	r15	;r3 As==00
    75c6:	0f 4e       	mov	r14,	r15	
    75c8:	3f 50 d0 80 	add	#-32560,r15	;#0x80d0
    75cc:	6f 4f       	mov.b	@r15,	r15	
    75ce:	4f 4f       	mov.b	r15,	r15	
    75d0:	4f 4f       	mov.b	r15,	r15	
    75d2:	8f 10       	swpb	r15		
    75d4:	07 ef       	xor	r15,	r7	
    75d6:	1c 44 24 ff 	mov	-220(r4),r12	;0xff24(r4)
    75da:	1d 44 26 ff 	mov	-218(r4),r13	;0xff26(r4)
    75de:	8c 10       	swpb	r12		
    75e0:	8d 10       	swpb	r13		
    75e2:	4c ed       	xor.b	r13,	r12	
    75e4:	0c ed       	xor	r13,	r12	
    75e6:	4d 4d       	mov.b	r13,	r13	
    75e8:	12 c3       	clrc			
    75ea:	0d 10       	rrc	r13		
    75ec:	0c 10       	rrc	r12		
    75ee:	12 c3       	clrc			
    75f0:	0d 10       	rrc	r13		
    75f2:	0c 10       	rrc	r12		
    75f4:	12 c3       	clrc			
    75f6:	0d 10       	rrc	r13		
    75f8:	0c 10       	rrc	r12		
    75fa:	1f 44 38 ff 	mov	-200(r4),r15	;0xff38(r4)
    75fe:	2e 4f       	mov	@r15,	r14	
    7600:	1f 4f 02 00 	mov	2(r15),	r15	;0x0002(r15)
    7604:	0e 4f       	mov	r15,	r14	
    7606:	0f 43       	clr	r15		
    7608:	84 4e ae ff 	mov	r14,	-82(r4)	;0xffae(r4)
    760c:	84 4f b0 ff 	mov	r15,	-80(r4)	;0xffb0(r4)
    7610:	12 c3       	clrc			
    7612:	14 10 b0 ff 	rrc	-80(r4)	;0xffb0(r4)
    7616:	14 10 ae ff 	rrc	-82(r4)	;0xffae(r4)
    761a:	12 c3       	clrc			
    761c:	14 10 b0 ff 	rrc	-80(r4)	;0xffb0(r4)
    7620:	14 10 ae ff 	rrc	-82(r4)	;0xffae(r4)
    7624:	1e 44 ae ff 	mov	-82(r4),r14	;0xffae(r4)
    7628:	1f 44 b0 ff 	mov	-80(r4),r15	;0xffb0(r4)
    762c:	0e ec       	xor	r12,	r14	
    762e:	0f ed       	xor	r13,	r15	
    7630:	3e f0 3f 00 	and	#63,	r14	;#0x003f
    7634:	0f f3       	and	#0,	r15	;r3 As==00
    7636:	0f 4e       	mov	r14,	r15	
    7638:	3f 50 d0 80 	add	#-32560,r15	;#0x80d0
    763c:	6f 4f       	mov.b	@r15,	r15	
    763e:	4f 4f       	mov.b	r15,	r15	
    7640:	4f 4f       	mov.b	r15,	r15	
    7642:	8f 10       	swpb	r15		
    7644:	0f 5f       	rla	r15		
    7646:	0f 5f       	rla	r15		
    7648:	0f 5f       	rla	r15		
    764a:	0f 5f       	rla	r15		
    764c:	07 ef       	xor	r15,	r7	
    764e:	1c 44 24 ff 	mov	-220(r4),r12	;0xff24(r4)
    7652:	1d 44 26 ff 	mov	-218(r4),r13	;0xff26(r4)
    7656:	8c 10       	swpb	r12		
    7658:	8d 10       	swpb	r13		
    765a:	4c ed       	xor.b	r13,	r12	
    765c:	0c ed       	xor	r13,	r12	
    765e:	4d 4d       	mov.b	r13,	r13	
    7660:	12 c3       	clrc			
    7662:	0d 10       	rrc	r13		
    7664:	0c 10       	rrc	r12		
    7666:	12 c3       	clrc			
    7668:	0d 10       	rrc	r13		
    766a:	0c 10       	rrc	r12		
    766c:	12 c3       	clrc			
    766e:	0d 10       	rrc	r13		
    7670:	0c 10       	rrc	r12		
    7672:	12 c3       	clrc			
    7674:	0d 10       	rrc	r13		
    7676:	0c 10       	rrc	r12		
    7678:	12 c3       	clrc			
    767a:	0d 10       	rrc	r13		
    767c:	0c 10       	rrc	r12		
    767e:	12 c3       	clrc			
    7680:	0d 10       	rrc	r13		
    7682:	0c 10       	rrc	r12		
    7684:	12 c3       	clrc			
    7686:	0d 10       	rrc	r13		
    7688:	0c 10       	rrc	r12		
    768a:	1f 44 38 ff 	mov	-200(r4),r15	;0xff38(r4)
    768e:	2e 4f       	mov	@r15,	r14	
    7690:	1f 4f 02 00 	mov	2(r15),	r15	;0x0002(r15)
    7694:	0e 43       	clr	r14		
    7696:	8f 10       	swpb	r15		
    7698:	4f 4f       	mov.b	r15,	r15	
    769a:	84 4f b2 ff 	mov	r15,	-78(r4)	;0xffb2(r4)
    769e:	84 4e b4 ff 	mov	r14,	-76(r4)	;0xffb4(r4)
    76a2:	1e 44 b2 ff 	mov	-78(r4),r14	;0xffb2(r4)
    76a6:	1f 44 b4 ff 	mov	-76(r4),r15	;0xffb4(r4)
    76aa:	0e ec       	xor	r12,	r14	
    76ac:	0f ed       	xor	r13,	r15	
    76ae:	3e f0 3f 00 	and	#63,	r14	;#0x003f
    76b2:	0f f3       	and	#0,	r15	;r3 As==00
    76b4:	0f 4e       	mov	r14,	r15	
    76b6:	3f 50 d0 80 	add	#-32560,r15	;#0x80d0
    76ba:	6f 4f       	mov.b	@r15,	r15	
    76bc:	4f 4f       	mov.b	r15,	r15	
    76be:	07 ef       	xor	r15,	r7	
    76c0:	1e 44 26 ff 	mov	-218(r4),r14	;0xff26(r4)
    76c4:	0f 43       	clr	r15		
    76c6:	84 4e b6 ff 	mov	r14,	-74(r4)	;0xffb6(r4)
    76ca:	84 4f b8 ff 	mov	r15,	-72(r4)	;0xffb8(r4)
    76ce:	12 c3       	clrc			
    76d0:	14 10 b8 ff 	rrc	-72(r4)	;0xffb8(r4)
    76d4:	14 10 b6 ff 	rrc	-74(r4)	;0xffb6(r4)
    76d8:	12 c3       	clrc			
    76da:	14 10 b8 ff 	rrc	-72(r4)	;0xffb8(r4)
    76de:	14 10 b6 ff 	rrc	-74(r4)	;0xffb6(r4)
    76e2:	12 c3       	clrc			
    76e4:	14 10 b8 ff 	rrc	-72(r4)	;0xffb8(r4)
    76e8:	14 10 b6 ff 	rrc	-74(r4)	;0xffb6(r4)
    76ec:	1f 44 38 ff 	mov	-200(r4),r15	;0xff38(r4)
    76f0:	2e 4f       	mov	@r15,	r14	
    76f2:	1f 4f 02 00 	mov	2(r15),	r15	;0x0002(r15)
    76f6:	0e 43       	clr	r14		
    76f8:	8f 10       	swpb	r15		
    76fa:	4f 4f       	mov.b	r15,	r15	
    76fc:	84 4f ba ff 	mov	r15,	-70(r4)	;0xffba(r4)
    7700:	84 4e bc ff 	mov	r14,	-68(r4)	;0xffbc(r4)
    7704:	12 c3       	clrc			
    7706:	14 10 bc ff 	rrc	-68(r4)	;0xffbc(r4)
    770a:	14 10 ba ff 	rrc	-70(r4)	;0xffba(r4)
    770e:	12 c3       	clrc			
    7710:	14 10 bc ff 	rrc	-68(r4)	;0xffbc(r4)
    7714:	14 10 ba ff 	rrc	-70(r4)	;0xffba(r4)
    7718:	12 c3       	clrc			
    771a:	14 10 bc ff 	rrc	-68(r4)	;0xffbc(r4)
    771e:	14 10 ba ff 	rrc	-70(r4)	;0xffba(r4)
    7722:	12 c3       	clrc			
    7724:	14 10 bc ff 	rrc	-68(r4)	;0xffbc(r4)
    7728:	14 10 ba ff 	rrc	-70(r4)	;0xffba(r4)
    772c:	12 c3       	clrc			
    772e:	14 10 bc ff 	rrc	-68(r4)	;0xffbc(r4)
    7732:	14 10 ba ff 	rrc	-70(r4)	;0xffba(r4)
    7736:	12 c3       	clrc			
    7738:	14 10 bc ff 	rrc	-68(r4)	;0xffbc(r4)
    773c:	14 10 ba ff 	rrc	-70(r4)	;0xffba(r4)
    7740:	1c 44 b6 ff 	mov	-74(r4),r12	;0xffb6(r4)
    7744:	1d 44 b8 ff 	mov	-72(r4),r13	;0xffb8(r4)
    7748:	1c e4 ba ff 	xor	-70(r4),r12	;0xffba(r4)
    774c:	1d e4 bc ff 	xor	-68(r4),r13	;0xffbc(r4)
    7750:	1f 44 38 ff 	mov	-200(r4),r15	;0xff38(r4)
    7754:	2e 4f       	mov	@r15,	r14	
    7756:	1f 4f 02 00 	mov	2(r15),	r15	;0x0002(r15)
    775a:	0e 5e       	rla	r14		
    775c:	0f 6f       	rlc	r15		
    775e:	0e 5e       	rla	r14		
    7760:	0f 6f       	rlc	r15		
    7762:	0e ec       	xor	r12,	r14	
    7764:	0f ed       	xor	r13,	r15	
    7766:	3e f0 3f 00 	and	#63,	r14	;#0x003f
    776a:	0f f3       	and	#0,	r15	;r3 As==00
    776c:	0f 4e       	mov	r14,	r15	
    776e:	3f 50 d0 80 	add	#-32560,r15	;#0x80d0
    7772:	6f 4f       	mov.b	@r15,	r15	
    7774:	4f 4f       	mov.b	r15,	r15	
    7776:	0f 5f       	rla	r15		
    7778:	0f 5f       	rla	r15		
    777a:	0f 5f       	rla	r15		
    777c:	0f 5f       	rla	r15		
    777e:	0d 47       	mov	r7,	r13	
    7780:	0d ef       	xor	r15,	r13	
    7782:	1e 44 26 ff 	mov	-218(r4),r14	;0xff26(r4)
    7786:	0f 43       	clr	r15		
    7788:	08 4e       	mov	r14,	r8	
    778a:	09 4f       	mov	r15,	r9	
    778c:	12 c3       	clrc			
    778e:	09 10       	rrc	r9		
    7790:	08 10       	rrc	r8		
    7792:	12 c3       	clrc			
    7794:	09 10       	rrc	r9		
    7796:	08 10       	rrc	r8		
    7798:	12 c3       	clrc			
    779a:	09 10       	rrc	r9		
    779c:	08 10       	rrc	r8		
    779e:	12 c3       	clrc			
    77a0:	09 10       	rrc	r9		
    77a2:	08 10       	rrc	r8		
    77a4:	12 c3       	clrc			
    77a6:	09 10       	rrc	r9		
    77a8:	08 10       	rrc	r8		
    77aa:	12 c3       	clrc			
    77ac:	09 10       	rrc	r9		
    77ae:	08 10       	rrc	r8		
    77b0:	12 c3       	clrc			
    77b2:	09 10       	rrc	r9		
    77b4:	08 10       	rrc	r8		
    77b6:	1f 44 38 ff 	mov	-200(r4),r15	;0xff38(r4)
    77ba:	2e 4f       	mov	@r15,	r14	
    77bc:	1f 4f 02 00 	mov	2(r15),	r15	;0x0002(r15)
    77c0:	12 c3       	clrc			
    77c2:	0f 10       	rrc	r15		
    77c4:	0e 10       	rrc	r14		
    77c6:	12 c3       	clrc			
    77c8:	0f 10       	rrc	r15		
    77ca:	0e 10       	rrc	r14		
    77cc:	12 c3       	clrc			
    77ce:	0f 10       	rrc	r15		
    77d0:	0e 10       	rrc	r14		
    77d2:	12 c3       	clrc			
    77d4:	0f 10       	rrc	r15		
    77d6:	0e 10       	rrc	r14		
    77d8:	0e e8       	xor	r8,	r14	
    77da:	0f e9       	xor	r9,	r15	
    77dc:	3e f0 3f 00 	and	#63,	r14	;#0x003f
    77e0:	0f f3       	and	#0,	r15	;r3 As==00
    77e2:	0f 4e       	mov	r14,	r15	
    77e4:	3f 50 d0 80 	add	#-32560,r15	;#0x80d0
    77e8:	6f 4f       	mov.b	@r15,	r15	
    77ea:	4f 4f       	mov.b	r15,	r15	
    77ec:	4f 4f       	mov.b	r15,	r15	
    77ee:	8f 10       	swpb	r15		
    77f0:	0d ef       	xor	r15,	r13	
    77f2:	1f 44 26 ff 	mov	-218(r4),r15	;0xff26(r4)
    77f6:	0e 43       	clr	r14		
    77f8:	8f 10       	swpb	r15		
    77fa:	4f 4f       	mov.b	r15,	r15	
    77fc:	84 4f be ff 	mov	r15,	-66(r4)	;0xffbe(r4)
    7800:	84 4e c0 ff 	mov	r14,	-64(r4)	;0xffc0(r4)
    7804:	12 c3       	clrc			
    7806:	14 10 c0 ff 	rrc	-64(r4)	;0xffc0(r4)
    780a:	14 10 be ff 	rrc	-66(r4)	;0xffbe(r4)
    780e:	12 c3       	clrc			
    7810:	14 10 c0 ff 	rrc	-64(r4)	;0xffc0(r4)
    7814:	14 10 be ff 	rrc	-66(r4)	;0xffbe(r4)
    7818:	12 c3       	clrc			
    781a:	14 10 c0 ff 	rrc	-64(r4)	;0xffc0(r4)
    781e:	14 10 be ff 	rrc	-66(r4)	;0xffbe(r4)
    7822:	1f 44 38 ff 	mov	-200(r4),r15	;0xff38(r4)
    7826:	2e 4f       	mov	@r15,	r14	
    7828:	1f 4f 02 00 	mov	2(r15),	r15	;0x0002(r15)
    782c:	8e 10       	swpb	r14		
    782e:	8f 10       	swpb	r15		
    7830:	4e ef       	xor.b	r15,	r14	
    7832:	0e ef       	xor	r15,	r14	
    7834:	4f 4f       	mov.b	r15,	r15	
    7836:	12 c3       	clrc			
    7838:	0f 10       	rrc	r15		
    783a:	0e 10       	rrc	r14		
    783c:	12 c3       	clrc			
    783e:	0f 10       	rrc	r15		
    7840:	0e 10       	rrc	r14		
    7842:	1e e4 be ff 	xor	-66(r4),r14	;0xffbe(r4)
    7846:	1f e4 c0 ff 	xor	-64(r4),r15	;0xffc0(r4)
    784a:	3e f0 3f 00 	and	#63,	r14	;#0x003f
    784e:	0f f3       	and	#0,	r15	;r3 As==00
    7850:	0f 4e       	mov	r14,	r15	
    7852:	3f 50 d0 80 	add	#-32560,r15	;#0x80d0
    7856:	6f 4f       	mov.b	@r15,	r15	
    7858:	4f 4f       	mov.b	r15,	r15	
    785a:	4f 4f       	mov.b	r15,	r15	
    785c:	8f 10       	swpb	r15		
    785e:	0f 5f       	rla	r15		
    7860:	0f 5f       	rla	r15		
    7862:	0f 5f       	rla	r15		
    7864:	0f 5f       	rla	r15		
    7866:	0f ed       	xor	r13,	r15	
    7868:	84 4f 34 ff 	mov	r15,	-204(r4);0xff34(r4)
    786c:	1f 44 34 ff 	mov	-204(r4),r15	;0xff34(r4)
    7870:	8f 10       	swpb	r15		
    7872:	8f 11       	sxt	r15		
    7874:	8f 10       	swpb	r15		
    7876:	8f 11       	sxt	r15		
    7878:	84 4f 36 ff 	mov	r15,	-202(r4);0xff36(r4)
    787c:	a4 52 38 ff 	add	#4,	-200(r4);r2 As==10, 0xff38(r4)
    7880:	a4 52 38 ff 	add	#4,	-200(r4);r2 As==10, 0xff38(r4)
    7884:	1e 44 34 ff 	mov	-204(r4),r14	;0xff34(r4)
    7888:	1f 44 36 ff 	mov	-202(r4),r15	;0xff36(r4)
    788c:	1e f3       	and	#1,	r14	;r3 As==01
    788e:	0f f3       	and	#0,	r15	;r3 As==00
    7890:	0c 4e       	mov	r14,	r12	
    7892:	0d 4f       	mov	r15,	r13	
    7894:	4d ec       	xor.b	r12,	r13	
    7896:	0d ec       	xor	r12,	r13	
    7898:	8d 10       	swpb	r13		
    789a:	4c 4c       	mov.b	r12,	r12	
    789c:	8c 10       	swpb	r12		
    789e:	1e 44 34 ff 	mov	-204(r4),r14	;0xff34(r4)
    78a2:	1f 44 36 ff 	mov	-202(r4),r15	;0xff36(r4)
    78a6:	2e f3       	and	#2,	r14	;r3 As==10
    78a8:	0f f3       	and	#0,	r15	;r3 As==00
    78aa:	4f ee       	xor.b	r14,	r15	
    78ac:	0f ee       	xor	r14,	r15	
    78ae:	8f 10       	swpb	r15		
    78b0:	4e 4e       	mov.b	r14,	r14	
    78b2:	8e 10       	swpb	r14		
    78b4:	0e 5e       	rla	r14		
    78b6:	0f 6f       	rlc	r15		
    78b8:	0e 5e       	rla	r14		
    78ba:	0f 6f       	rlc	r15		
    78bc:	0e 5e       	rla	r14		
    78be:	0f 6f       	rlc	r15		
    78c0:	0e 5e       	rla	r14		
    78c2:	0f 6f       	rlc	r15		
    78c4:	0e 5e       	rla	r14		
    78c6:	0f 6f       	rlc	r15		
    78c8:	0e 5e       	rla	r14		
    78ca:	0f 6f       	rlc	r15		
    78cc:	0e 5e       	rla	r14		
    78ce:	0f 6f       	rlc	r15		
    78d0:	0c ee       	xor	r14,	r12	
    78d2:	0d ef       	xor	r15,	r13	
    78d4:	1e 44 34 ff 	mov	-204(r4),r14	;0xff34(r4)
    78d8:	1f 44 36 ff 	mov	-202(r4),r15	;0xff36(r4)
    78dc:	2e f2       	and	#4,	r14	;r2 As==10
    78de:	0f f3       	and	#0,	r15	;r3 As==00
    78e0:	0f 43       	clr	r15		
    78e2:	84 4f c2 ff 	mov	r15,	-62(r4)	;0xffc2(r4)
    78e6:	84 4e c4 ff 	mov	r14,	-60(r4)	;0xffc4(r4)
    78ea:	94 54 c2 ff 	rla	-62(r4)	;0xffc2(r4)
    78ee:	c2 ff 
    78f0:	94 64 c4 ff 	rlc	-60(r4)	;0xffc4(r4)
    78f4:	c4 ff 
    78f6:	94 54 c2 ff 	rla	-62(r4)	;0xffc2(r4)
    78fa:	c2 ff 
    78fc:	94 64 c4 ff 	rlc	-60(r4)	;0xffc4(r4)
    7900:	c4 ff 
    7902:	94 54 c2 ff 	rla	-62(r4)	;0xffc2(r4)
    7906:	c2 ff 
    7908:	94 64 c4 ff 	rlc	-60(r4)	;0xffc4(r4)
    790c:	c4 ff 
    790e:	94 54 c2 ff 	rla	-62(r4)	;0xffc2(r4)
    7912:	c2 ff 
    7914:	94 64 c4 ff 	rlc	-60(r4)	;0xffc4(r4)
    7918:	c4 ff 
    791a:	1c e4 c2 ff 	xor	-62(r4),r12	;0xffc2(r4)
    791e:	1d e4 c4 ff 	xor	-60(r4),r13	;0xffc4(r4)
    7922:	1e 44 34 ff 	mov	-204(r4),r14	;0xff34(r4)
    7926:	1f 44 36 ff 	mov	-202(r4),r15	;0xff36(r4)
    792a:	3e f2       	and	#8,	r14	;r2 As==11
    792c:	0f f3       	and	#0,	r15	;r3 As==00
    792e:	0f 4e       	mov	r14,	r15	
    7930:	0e 43       	clr	r14		
    7932:	4f 4f       	mov.b	r15,	r15	
    7934:	8f 10       	swpb	r15		
    7936:	84 4e c6 ff 	mov	r14,	-58(r4)	;0xffc6(r4)
    793a:	84 4f c8 ff 	mov	r15,	-56(r4)	;0xffc8(r4)
    793e:	94 54 c6 ff 	rla	-58(r4)	;0xffc6(r4)
    7942:	c6 ff 
    7944:	94 64 c8 ff 	rlc	-56(r4)	;0xffc8(r4)
    7948:	c8 ff 
    794a:	94 54 c6 ff 	rla	-58(r4)	;0xffc6(r4)
    794e:	c6 ff 
    7950:	94 64 c8 ff 	rlc	-56(r4)	;0xffc8(r4)
    7954:	c8 ff 
    7956:	94 54 c6 ff 	rla	-58(r4)	;0xffc6(r4)
    795a:	c6 ff 
    795c:	94 64 c8 ff 	rlc	-56(r4)	;0xffc8(r4)
    7960:	c8 ff 
    7962:	1c e4 c6 ff 	xor	-58(r4),r12	;0xffc6(r4)
    7966:	1d e4 c8 ff 	xor	-56(r4),r13	;0xffc8(r4)
    796a:	1e 44 34 ff 	mov	-204(r4),r14	;0xff34(r4)
    796e:	1f 44 36 ff 	mov	-202(r4),r15	;0xff36(r4)
    7972:	3e f0 10 00 	and	#16,	r14	;#0x0010
    7976:	0f f3       	and	#0,	r15	;r3 As==00
    7978:	4f ee       	xor.b	r14,	r15	
    797a:	0f ee       	xor	r14,	r15	
    797c:	8f 10       	swpb	r15		
    797e:	4e 4e       	mov.b	r14,	r14	
    7980:	8e 10       	swpb	r14		
    7982:	0c ee       	xor	r14,	r12	
    7984:	0d ef       	xor	r15,	r13	
    7986:	1e 44 34 ff 	mov	-204(r4),r14	;0xff34(r4)
    798a:	1f 44 36 ff 	mov	-202(r4),r15	;0xff36(r4)
    798e:	3e f0 20 00 	and	#32,	r14	;#0x0020
    7992:	0f f3       	and	#0,	r15	;r3 As==00
    7994:	0f 43       	clr	r15		
    7996:	84 4f ca ff 	mov	r15,	-54(r4)	;0xffca(r4)
    799a:	84 4e cc ff 	mov	r14,	-52(r4)	;0xffcc(r4)
    799e:	94 54 ca ff 	rla	-54(r4)	;0xffca(r4)
    79a2:	ca ff 
    79a4:	94 64 cc ff 	rlc	-52(r4)	;0xffcc(r4)
    79a8:	cc ff 
    79aa:	94 54 ca ff 	rla	-54(r4)	;0xffca(r4)
    79ae:	ca ff 
    79b0:	94 64 cc ff 	rlc	-52(r4)	;0xffcc(r4)
    79b4:	cc ff 
    79b6:	94 54 ca ff 	rla	-54(r4)	;0xffca(r4)
    79ba:	ca ff 
    79bc:	94 64 cc ff 	rlc	-52(r4)	;0xffcc(r4)
    79c0:	cc ff 
    79c2:	94 54 ca ff 	rla	-54(r4)	;0xffca(r4)
    79c6:	ca ff 
    79c8:	94 64 cc ff 	rlc	-52(r4)	;0xffcc(r4)
    79cc:	cc ff 
    79ce:	94 54 ca ff 	rla	-54(r4)	;0xffca(r4)
    79d2:	ca ff 
    79d4:	94 64 cc ff 	rlc	-52(r4)	;0xffcc(r4)
    79d8:	cc ff 
    79da:	94 54 ca ff 	rla	-54(r4)	;0xffca(r4)
    79de:	ca ff 
    79e0:	94 64 cc ff 	rlc	-52(r4)	;0xffcc(r4)
    79e4:	cc ff 
    79e6:	1c e4 ca ff 	xor	-54(r4),r12	;0xffca(r4)
    79ea:	1d e4 cc ff 	xor	-52(r4),r13	;0xffcc(r4)
    79ee:	1e 44 34 ff 	mov	-204(r4),r14	;0xff34(r4)
    79f2:	1f 44 36 ff 	mov	-202(r4),r15	;0xff36(r4)
    79f6:	3e f0 40 00 	and	#64,	r14	;#0x0040
    79fa:	0f f3       	and	#0,	r15	;r3 As==00
    79fc:	12 c3       	clrc			
    79fe:	0f 10       	rrc	r15		
    7a00:	0e 10       	rrc	r14		
    7a02:	12 c3       	clrc			
    7a04:	0f 10       	rrc	r15		
    7a06:	0e 10       	rrc	r14		
    7a08:	12 c3       	clrc			
    7a0a:	0f 10       	rrc	r15		
    7a0c:	0e 10       	rrc	r14		
    7a0e:	12 c3       	clrc			
    7a10:	0f 10       	rrc	r15		
    7a12:	0e 10       	rrc	r14		
    7a14:	12 c3       	clrc			
    7a16:	0f 10       	rrc	r15		
    7a18:	0e 10       	rrc	r14		
    7a1a:	0c ee       	xor	r14,	r12	
    7a1c:	0d ef       	xor	r15,	r13	
    7a1e:	1e 44 34 ff 	mov	-204(r4),r14	;0xff34(r4)
    7a22:	1f 44 36 ff 	mov	-202(r4),r15	;0xff36(r4)
    7a26:	3e f0 80 00 	and	#128,	r14	;#0x0080
    7a2a:	0f f3       	and	#0,	r15	;r3 As==00
    7a2c:	4f ee       	xor.b	r14,	r15	
    7a2e:	0f ee       	xor	r14,	r15	
    7a30:	8f 10       	swpb	r15		
    7a32:	4e 4e       	mov.b	r14,	r14	
    7a34:	8e 10       	swpb	r14		
    7a36:	0e 5e       	rla	r14		
    7a38:	0f 6f       	rlc	r15		
    7a3a:	0e 5e       	rla	r14		
    7a3c:	0f 6f       	rlc	r15		
    7a3e:	0c ee       	xor	r14,	r12	
    7a40:	0d ef       	xor	r15,	r13	
    7a42:	1e 44 34 ff 	mov	-204(r4),r14	;0xff34(r4)
    7a46:	1f 44 36 ff 	mov	-202(r4),r15	;0xff36(r4)
    7a4a:	3e f0 00 01 	and	#256,	r14	;#0x0100
    7a4e:	0f f3       	and	#0,	r15	;r3 As==00
    7a50:	4f ee       	xor.b	r14,	r15	
    7a52:	0f ee       	xor	r14,	r15	
    7a54:	8f 10       	swpb	r15		
    7a56:	4e 4e       	mov.b	r14,	r14	
    7a58:	8e 10       	swpb	r14		
    7a5a:	0e 5e       	rla	r14		
    7a5c:	0f 6f       	rlc	r15		
    7a5e:	0e 5e       	rla	r14		
    7a60:	0f 6f       	rlc	r15		
    7a62:	0e 5e       	rla	r14		
    7a64:	0f 6f       	rlc	r15		
    7a66:	0e 5e       	rla	r14		
    7a68:	0f 6f       	rlc	r15		
    7a6a:	0e 5e       	rla	r14		
    7a6c:	0f 6f       	rlc	r15		
    7a6e:	0e 5e       	rla	r14		
    7a70:	0f 6f       	rlc	r15		
    7a72:	0e 5e       	rla	r14		
    7a74:	0f 6f       	rlc	r15		
    7a76:	0c ee       	xor	r14,	r12	
    7a78:	0d ef       	xor	r15,	r13	
    7a7a:	1e 44 34 ff 	mov	-204(r4),r14	;0xff34(r4)
    7a7e:	1f 44 36 ff 	mov	-202(r4),r15	;0xff36(r4)
    7a82:	3e f0 00 02 	and	#512,	r14	;#0x0200
    7a86:	0f f3       	and	#0,	r15	;r3 As==00
    7a88:	0e 5e       	rla	r14		
    7a8a:	0f 6f       	rlc	r15		
    7a8c:	0e 5e       	rla	r14		
    7a8e:	0f 6f       	rlc	r15		
    7a90:	0e 5e       	rla	r14		
    7a92:	0f 6f       	rlc	r15		
    7a94:	0e 5e       	rla	r14		
    7a96:	0f 6f       	rlc	r15		
    7a98:	0e 5e       	rla	r14		
    7a9a:	0f 6f       	rlc	r15		
    7a9c:	0e 5e       	rla	r14		
    7a9e:	0f 6f       	rlc	r15		
    7aa0:	0c ee       	xor	r14,	r12	
    7aa2:	0d ef       	xor	r15,	r13	
    7aa4:	1e 44 34 ff 	mov	-204(r4),r14	;0xff34(r4)
    7aa8:	1f 44 36 ff 	mov	-202(r4),r15	;0xff36(r4)
    7aac:	3e f0 00 04 	and	#1024,	r14	;#0x0400
    7ab0:	0f f3       	and	#0,	r15	;r3 As==00
    7ab2:	0f 43       	clr	r15		
    7ab4:	84 4f ce ff 	mov	r15,	-50(r4)	;0xffce(r4)
    7ab8:	84 4e d0 ff 	mov	r14,	-48(r4)	;0xffd0(r4)
    7abc:	94 54 ce ff 	rla	-50(r4)	;0xffce(r4)
    7ac0:	ce ff 
    7ac2:	94 64 d0 ff 	rlc	-48(r4)	;0xffd0(r4)
    7ac6:	d0 ff 
    7ac8:	94 54 ce ff 	rla	-50(r4)	;0xffce(r4)
    7acc:	ce ff 
    7ace:	94 64 d0 ff 	rlc	-48(r4)	;0xffd0(r4)
    7ad2:	d0 ff 
    7ad4:	94 54 ce ff 	rla	-50(r4)	;0xffce(r4)
    7ad8:	ce ff 
    7ada:	94 64 d0 ff 	rlc	-48(r4)	;0xffd0(r4)
    7ade:	d0 ff 
    7ae0:	1c e4 ce ff 	xor	-50(r4),r12	;0xffce(r4)
    7ae4:	1d e4 d0 ff 	xor	-48(r4),r13	;0xffd0(r4)
    7ae8:	1e 44 34 ff 	mov	-204(r4),r14	;0xff34(r4)
    7aec:	1f 44 36 ff 	mov	-202(r4),r15	;0xff36(r4)
    7af0:	3e f0 00 08 	and	#2048,	r14	;#0x0800
    7af4:	0f f3       	and	#0,	r15	;r3 As==00
    7af6:	12 c3       	clrc			
    7af8:	0f 10       	rrc	r15		
    7afa:	0e 10       	rrc	r14		
    7afc:	12 c3       	clrc			
    7afe:	0f 10       	rrc	r15		
    7b00:	0e 10       	rrc	r14		
    7b02:	12 c3       	clrc			
    7b04:	0f 10       	rrc	r15		
    7b06:	0e 10       	rrc	r14		
    7b08:	12 c3       	clrc			
    7b0a:	0f 10       	rrc	r15		
    7b0c:	0e 10       	rrc	r14		
    7b0e:	12 c3       	clrc			
    7b10:	0f 10       	rrc	r15		
    7b12:	0e 10       	rrc	r14		
    7b14:	12 c3       	clrc			
    7b16:	0f 10       	rrc	r15		
    7b18:	0e 10       	rrc	r14		
    7b1a:	0c ee       	xor	r14,	r12	
    7b1c:	0d ef       	xor	r15,	r13	
    7b1e:	1e 44 34 ff 	mov	-204(r4),r14	;0xff34(r4)
    7b22:	1f 44 36 ff 	mov	-202(r4),r15	;0xff36(r4)
    7b26:	3e f0 00 10 	and	#4096,	r14	;#0x1000
    7b2a:	0f f3       	and	#0,	r15	;r3 As==00
    7b2c:	4f ee       	xor.b	r14,	r15	
    7b2e:	0f ee       	xor	r14,	r15	
    7b30:	8f 10       	swpb	r15		
    7b32:	4e 4e       	mov.b	r14,	r14	
    7b34:	8e 10       	swpb	r14		
    7b36:	0e 5e       	rla	r14		
    7b38:	0f 6f       	rlc	r15		
    7b3a:	0e 5e       	rla	r14		
    7b3c:	0f 6f       	rlc	r15		
    7b3e:	0e 5e       	rla	r14		
    7b40:	0f 6f       	rlc	r15		
    7b42:	0e 5e       	rla	r14		
    7b44:	0f 6f       	rlc	r15		
    7b46:	0e 5e       	rla	r14		
    7b48:	0f 6f       	rlc	r15		
    7b4a:	0c ee       	xor	r14,	r12	
    7b4c:	0d ef       	xor	r15,	r13	
    7b4e:	1e 44 34 ff 	mov	-204(r4),r14	;0xff34(r4)
    7b52:	1f 44 36 ff 	mov	-202(r4),r15	;0xff36(r4)
    7b56:	3e f0 00 20 	and	#8192,	r14	;#0x2000
    7b5a:	0f f3       	and	#0,	r15	;r3 As==00
    7b5c:	0e 5e       	rla	r14		
    7b5e:	0f 6f       	rlc	r15		
    7b60:	0e 5e       	rla	r14		
    7b62:	0f 6f       	rlc	r15		
    7b64:	0e 5e       	rla	r14		
    7b66:	0f 6f       	rlc	r15		
    7b68:	0e 5e       	rla	r14		
    7b6a:	0f 6f       	rlc	r15		
    7b6c:	0e 5e       	rla	r14		
    7b6e:	0f 6f       	rlc	r15		
    7b70:	0e 5e       	rla	r14		
    7b72:	0f 6f       	rlc	r15		
    7b74:	0c ee       	xor	r14,	r12	
    7b76:	0d ef       	xor	r15,	r13	
    7b78:	1e 44 34 ff 	mov	-204(r4),r14	;0xff34(r4)
    7b7c:	1f 44 36 ff 	mov	-202(r4),r15	;0xff36(r4)
    7b80:	3e f0 00 40 	and	#16384,	r14	;#0x4000
    7b84:	0f f3       	and	#0,	r15	;r3 As==00
    7b86:	12 c3       	clrc			
    7b88:	0f 10       	rrc	r15		
    7b8a:	0e 10       	rrc	r14		
    7b8c:	12 c3       	clrc			
    7b8e:	0f 10       	rrc	r15		
    7b90:	0e 10       	rrc	r14		
    7b92:	12 c3       	clrc			
    7b94:	0f 10       	rrc	r15		
    7b96:	0e 10       	rrc	r14		
    7b98:	12 c3       	clrc			
    7b9a:	0f 10       	rrc	r15		
    7b9c:	0e 10       	rrc	r14		
    7b9e:	12 c3       	clrc			
    7ba0:	0f 10       	rrc	r15		
    7ba2:	0e 10       	rrc	r14		
    7ba4:	0c ee       	xor	r14,	r12	
    7ba6:	0d ef       	xor	r15,	r13	
    7ba8:	1e 44 34 ff 	mov	-204(r4),r14	;0xff34(r4)
    7bac:	1f 44 36 ff 	mov	-202(r4),r15	;0xff36(r4)
    7bb0:	3e f0 00 80 	and	#-32768,r14	;#0x8000
    7bb4:	0f f3       	and	#0,	r15	;r3 As==00
    7bb6:	8e 10       	swpb	r14		
    7bb8:	8f 10       	swpb	r15		
    7bba:	4e ef       	xor.b	r15,	r14	
    7bbc:	0e ef       	xor	r15,	r14	
    7bbe:	4f 4f       	mov.b	r15,	r15	
    7bc0:	12 c3       	clrc			
    7bc2:	0f 10       	rrc	r15		
    7bc4:	0e 10       	rrc	r14		
    7bc6:	12 c3       	clrc			
    7bc8:	0f 10       	rrc	r15		
    7bca:	0e 10       	rrc	r14		
    7bcc:	12 c3       	clrc			
    7bce:	0f 10       	rrc	r15		
    7bd0:	0e 10       	rrc	r14		
    7bd2:	12 c3       	clrc			
    7bd4:	0f 10       	rrc	r15		
    7bd6:	0e 10       	rrc	r14		
    7bd8:	12 c3       	clrc			
    7bda:	0f 10       	rrc	r15		
    7bdc:	0e 10       	rrc	r14		
    7bde:	12 c3       	clrc			
    7be0:	0f 10       	rrc	r15		
    7be2:	0e 10       	rrc	r14		
    7be4:	12 c3       	clrc			
    7be6:	0f 10       	rrc	r15		
    7be8:	0e 10       	rrc	r14		
    7bea:	0c ee       	xor	r14,	r12	
    7bec:	0d ef       	xor	r15,	r13	
    7bee:	1e 44 34 ff 	mov	-204(r4),r14	;0xff34(r4)
    7bf2:	1f 44 36 ff 	mov	-202(r4),r15	;0xff36(r4)
    7bf6:	0e f3       	and	#0,	r14	;r3 As==00
    7bf8:	1f f3       	and	#1,	r15	;r3 As==01
    7bfa:	8e 10       	swpb	r14		
    7bfc:	8f 10       	swpb	r15		
    7bfe:	4e ef       	xor.b	r15,	r14	
    7c00:	0e ef       	xor	r15,	r14	
    7c02:	4f 4f       	mov.b	r15,	r15	
    7c04:	12 c3       	clrc			
    7c06:	0f 10       	rrc	r15		
    7c08:	0e 10       	rrc	r14		
    7c0a:	0c ee       	xor	r14,	r12	
    7c0c:	0d ef       	xor	r15,	r13	
    7c0e:	1e 44 34 ff 	mov	-204(r4),r14	;0xff34(r4)
    7c12:	1f 44 36 ff 	mov	-202(r4),r15	;0xff36(r4)
    7c16:	0e f3       	and	#0,	r14	;r3 As==00
    7c18:	2f f3       	and	#2,	r15	;r3 As==10
    7c1a:	12 c3       	clrc			
    7c1c:	0f 10       	rrc	r15		
    7c1e:	0e 10       	rrc	r14		
    7c20:	12 c3       	clrc			
    7c22:	0f 10       	rrc	r15		
    7c24:	0e 10       	rrc	r14		
    7c26:	12 c3       	clrc			
    7c28:	0f 10       	rrc	r15		
    7c2a:	0e 10       	rrc	r14		
    7c2c:	12 c3       	clrc			
    7c2e:	0f 10       	rrc	r15		
    7c30:	0e 10       	rrc	r14		
    7c32:	0c ee       	xor	r14,	r12	
    7c34:	0d ef       	xor	r15,	r13	
    7c36:	1e 44 34 ff 	mov	-204(r4),r14	;0xff34(r4)
    7c3a:	1f 44 36 ff 	mov	-202(r4),r15	;0xff36(r4)
    7c3e:	0e f3       	and	#0,	r14	;r3 As==00
    7c40:	2f f2       	and	#4,	r15	;r2 As==10
    7c42:	0e 5e       	rla	r14		
    7c44:	0f 6f       	rlc	r15		
    7c46:	0e 5e       	rla	r14		
    7c48:	0f 6f       	rlc	r15		
    7c4a:	0e 5e       	rla	r14		
    7c4c:	0f 6f       	rlc	r15		
    7c4e:	0e 5e       	rla	r14		
    7c50:	0f 6f       	rlc	r15		
    7c52:	0e 5e       	rla	r14		
    7c54:	0f 6f       	rlc	r15		
    7c56:	0e 5e       	rla	r14		
    7c58:	0f 6f       	rlc	r15		
    7c5a:	0c ee       	xor	r14,	r12	
    7c5c:	0d ef       	xor	r15,	r13	
    7c5e:	1e 44 34 ff 	mov	-204(r4),r14	;0xff34(r4)
    7c62:	1f 44 36 ff 	mov	-202(r4),r15	;0xff36(r4)
    7c66:	0e f3       	and	#0,	r14	;r3 As==00
    7c68:	3f f2       	and	#8,	r15	;r2 As==11
    7c6a:	0e 4f       	mov	r15,	r14	
    7c6c:	0f 43       	clr	r15		
    7c6e:	84 4e d2 ff 	mov	r14,	-46(r4)	;0xffd2(r4)
    7c72:	84 4f d4 ff 	mov	r15,	-44(r4)	;0xffd4(r4)
    7c76:	12 c3       	clrc			
    7c78:	14 10 d4 ff 	rrc	-44(r4)	;0xffd4(r4)
    7c7c:	14 10 d2 ff 	rrc	-46(r4)	;0xffd2(r4)
    7c80:	1c e4 d2 ff 	xor	-46(r4),r12	;0xffd2(r4)
    7c84:	1d e4 d4 ff 	xor	-44(r4),r13	;0xffd4(r4)
    7c88:	1e 44 34 ff 	mov	-204(r4),r14	;0xff34(r4)
    7c8c:	1f 44 36 ff 	mov	-202(r4),r15	;0xff36(r4)
    7c90:	0e f3       	and	#0,	r14	;r3 As==00
    7c92:	3f f0 10 00 	and	#16,	r15	;#0x0010
    7c96:	0e 4f       	mov	r15,	r14	
    7c98:	0f 43       	clr	r15		
    7c9a:	84 4e d6 ff 	mov	r14,	-42(r4)	;0xffd6(r4)
    7c9e:	84 4f d8 ff 	mov	r15,	-40(r4)	;0xffd8(r4)
    7ca2:	12 c3       	clrc			
    7ca4:	14 10 d8 ff 	rrc	-40(r4)	;0xffd8(r4)
    7ca8:	14 10 d6 ff 	rrc	-42(r4)	;0xffd6(r4)
    7cac:	1c e4 d6 ff 	xor	-42(r4),r12	;0xffd6(r4)
    7cb0:	1d e4 d8 ff 	xor	-40(r4),r13	;0xffd8(r4)
    7cb4:	1e 44 34 ff 	mov	-204(r4),r14	;0xff34(r4)
    7cb8:	1f 44 36 ff 	mov	-202(r4),r15	;0xff36(r4)
    7cbc:	0e f3       	and	#0,	r14	;r3 As==00
    7cbe:	3f f0 20 00 	and	#32,	r15	;#0x0020
    7cc2:	0e 5e       	rla	r14		
    7cc4:	0f 6f       	rlc	r15		
    7cc6:	0e 5e       	rla	r14		
    7cc8:	0f 6f       	rlc	r15		
    7cca:	0e 5e       	rla	r14		
    7ccc:	0f 6f       	rlc	r15		
    7cce:	0e 5e       	rla	r14		
    7cd0:	0f 6f       	rlc	r15		
    7cd2:	0e 5e       	rla	r14		
    7cd4:	0f 6f       	rlc	r15		
    7cd6:	0e 5e       	rla	r14		
    7cd8:	0f 6f       	rlc	r15		
    7cda:	0e 5e       	rla	r14		
    7cdc:	0f 6f       	rlc	r15		
    7cde:	0c ee       	xor	r14,	r12	
    7ce0:	0d ef       	xor	r15,	r13	
    7ce2:	1e 44 34 ff 	mov	-204(r4),r14	;0xff34(r4)
    7ce6:	1f 44 36 ff 	mov	-202(r4),r15	;0xff36(r4)
    7cea:	0e f3       	and	#0,	r14	;r3 As==00
    7cec:	3f f0 40 00 	and	#64,	r15	;#0x0040
    7cf0:	8e 10       	swpb	r14		
    7cf2:	8f 10       	swpb	r15		
    7cf4:	4e ef       	xor.b	r15,	r14	
    7cf6:	0e ef       	xor	r15,	r14	
    7cf8:	4f 4f       	mov.b	r15,	r15	
    7cfa:	12 c3       	clrc			
    7cfc:	0f 10       	rrc	r15		
    7cfe:	0e 10       	rrc	r14		
    7d00:	12 c3       	clrc			
    7d02:	0f 10       	rrc	r15		
    7d04:	0e 10       	rrc	r14		
    7d06:	12 c3       	clrc			
    7d08:	0f 10       	rrc	r15		
    7d0a:	0e 10       	rrc	r14		
    7d0c:	12 c3       	clrc			
    7d0e:	0f 10       	rrc	r15		
    7d10:	0e 10       	rrc	r14		
    7d12:	0c ee       	xor	r14,	r12	
    7d14:	0d ef       	xor	r15,	r13	
    7d16:	1e 44 34 ff 	mov	-204(r4),r14	;0xff34(r4)
    7d1a:	1f 44 36 ff 	mov	-202(r4),r15	;0xff36(r4)
    7d1e:	0e f3       	and	#0,	r14	;r3 As==00
    7d20:	3f f0 80 00 	and	#128,	r15	;#0x0080
    7d24:	12 c3       	clrc			
    7d26:	0f 10       	rrc	r15		
    7d28:	0e 10       	rrc	r14		
    7d2a:	12 c3       	clrc			
    7d2c:	0f 10       	rrc	r15		
    7d2e:	0e 10       	rrc	r14		
    7d30:	12 c3       	clrc			
    7d32:	0f 10       	rrc	r15		
    7d34:	0e 10       	rrc	r14		
    7d36:	12 c3       	clrc			
    7d38:	0f 10       	rrc	r15		
    7d3a:	0e 10       	rrc	r14		
    7d3c:	12 c3       	clrc			
    7d3e:	0f 10       	rrc	r15		
    7d40:	0e 10       	rrc	r14		
    7d42:	0c ee       	xor	r14,	r12	
    7d44:	0d ef       	xor	r15,	r13	
    7d46:	1e 44 34 ff 	mov	-204(r4),r14	;0xff34(r4)
    7d4a:	1f 44 36 ff 	mov	-202(r4),r15	;0xff36(r4)
    7d4e:	0e f3       	and	#0,	r14	;r3 As==00
    7d50:	3f f0 00 01 	and	#256,	r15	;#0x0100
    7d54:	0e 5e       	rla	r14		
    7d56:	0f 6f       	rlc	r15		
    7d58:	0e 5e       	rla	r14		
    7d5a:	0f 6f       	rlc	r15		
    7d5c:	0e 5e       	rla	r14		
    7d5e:	0f 6f       	rlc	r15		
    7d60:	0e 5e       	rla	r14		
    7d62:	0f 6f       	rlc	r15		
    7d64:	0e 5e       	rla	r14		
    7d66:	0f 6f       	rlc	r15		
    7d68:	0e 5e       	rla	r14		
    7d6a:	0f 6f       	rlc	r15		
    7d6c:	0e 5e       	rla	r14		
    7d6e:	0f 6f       	rlc	r15		
    7d70:	0c ee       	xor	r14,	r12	
    7d72:	0d ef       	xor	r15,	r13	
    7d74:	1e 44 34 ff 	mov	-204(r4),r14	;0xff34(r4)
    7d78:	1f 44 36 ff 	mov	-202(r4),r15	;0xff36(r4)
    7d7c:	0e f3       	and	#0,	r14	;r3 As==00
    7d7e:	3f f0 00 02 	and	#512,	r15	;#0x0200
    7d82:	8e 10       	swpb	r14		
    7d84:	8f 10       	swpb	r15		
    7d86:	4e ef       	xor.b	r15,	r14	
    7d88:	0e ef       	xor	r15,	r14	
    7d8a:	4f 4f       	mov.b	r15,	r15	
    7d8c:	12 c3       	clrc			
    7d8e:	0f 10       	rrc	r15		
    7d90:	0e 10       	rrc	r14		
    7d92:	12 c3       	clrc			
    7d94:	0f 10       	rrc	r15		
    7d96:	0e 10       	rrc	r14		
    7d98:	12 c3       	clrc			
    7d9a:	0f 10       	rrc	r15		
    7d9c:	0e 10       	rrc	r14		
    7d9e:	12 c3       	clrc			
    7da0:	0f 10       	rrc	r15		
    7da2:	0e 10       	rrc	r14		
    7da4:	12 c3       	clrc			
    7da6:	0f 10       	rrc	r15		
    7da8:	0e 10       	rrc	r14		
    7daa:	12 c3       	clrc			
    7dac:	0f 10       	rrc	r15		
    7dae:	0e 10       	rrc	r14		
    7db0:	0c ee       	xor	r14,	r12	
    7db2:	0d ef       	xor	r15,	r13	
    7db4:	1e 44 34 ff 	mov	-204(r4),r14	;0xff34(r4)
    7db8:	1f 44 36 ff 	mov	-202(r4),r15	;0xff36(r4)
    7dbc:	0e f3       	and	#0,	r14	;r3 As==00
    7dbe:	3f f0 00 04 	and	#1024,	r15	;#0x0400
    7dc2:	12 c3       	clrc			
    7dc4:	0f 10       	rrc	r15		
    7dc6:	0e 10       	rrc	r14		
    7dc8:	12 c3       	clrc			
    7dca:	0f 10       	rrc	r15		
    7dcc:	0e 10       	rrc	r14		
    7dce:	12 c3       	clrc			
    7dd0:	0f 10       	rrc	r15		
    7dd2:	0e 10       	rrc	r14		
    7dd4:	12 c3       	clrc			
    7dd6:	0f 10       	rrc	r15		
    7dd8:	0e 10       	rrc	r14		
    7dda:	12 c3       	clrc			
    7ddc:	0f 10       	rrc	r15		
    7dde:	0e 10       	rrc	r14		
    7de0:	0c ee       	xor	r14,	r12	
    7de2:	0d ef       	xor	r15,	r13	
    7de4:	1e 44 34 ff 	mov	-204(r4),r14	;0xff34(r4)
    7de8:	1f 44 36 ff 	mov	-202(r4),r15	;0xff36(r4)
    7dec:	0e f3       	and	#0,	r14	;r3 As==00
    7dee:	3f f0 00 08 	and	#2048,	r15	;#0x0800
    7df2:	0e 4f       	mov	r15,	r14	
    7df4:	0f 43       	clr	r15		
    7df6:	0a 4e       	mov	r14,	r10	
    7df8:	0b 4f       	mov	r15,	r11	
    7dfa:	12 c3       	clrc			
    7dfc:	0b 10       	rrc	r11		
    7dfe:	0a 10       	rrc	r10		
    7e00:	12 c3       	clrc			
    7e02:	0b 10       	rrc	r11		
    7e04:	0a 10       	rrc	r10		
    7e06:	12 c3       	clrc			
    7e08:	0b 10       	rrc	r11		
    7e0a:	0a 10       	rrc	r10		
    7e0c:	12 c3       	clrc			
    7e0e:	0b 10       	rrc	r11		
    7e10:	0a 10       	rrc	r10		
    7e12:	12 c3       	clrc			
    7e14:	0b 10       	rrc	r11		
    7e16:	0a 10       	rrc	r10		
    7e18:	0c ea       	xor	r10,	r12	
    7e1a:	0d eb       	xor	r11,	r13	
    7e1c:	1e 44 34 ff 	mov	-204(r4),r14	;0xff34(r4)
    7e20:	1f 44 36 ff 	mov	-202(r4),r15	;0xff36(r4)
    7e24:	0e f3       	and	#0,	r14	;r3 As==00
    7e26:	3f f0 00 10 	and	#4096,	r15	;#0x1000
    7e2a:	0e 43       	clr	r14		
    7e2c:	8f 10       	swpb	r15		
    7e2e:	4f 4f       	mov.b	r15,	r15	
    7e30:	84 4f da ff 	mov	r15,	-38(r4)	;0xffda(r4)
    7e34:	84 4e dc ff 	mov	r14,	-36(r4)	;0xffdc(r4)
    7e38:	1c e4 da ff 	xor	-38(r4),r12	;0xffda(r4)
    7e3c:	1d e4 dc ff 	xor	-36(r4),r13	;0xffdc(r4)
    7e40:	1e 44 34 ff 	mov	-204(r4),r14	;0xff34(r4)
    7e44:	1f 44 36 ff 	mov	-202(r4),r15	;0xff36(r4)
    7e48:	0e f3       	and	#0,	r14	;r3 As==00
    7e4a:	3f f0 00 20 	and	#8192,	r15	;#0x2000
    7e4e:	12 c3       	clrc			
    7e50:	0f 10       	rrc	r15		
    7e52:	0e 10       	rrc	r14		
    7e54:	12 c3       	clrc			
    7e56:	0f 10       	rrc	r15		
    7e58:	0e 10       	rrc	r14		
    7e5a:	12 c3       	clrc			
    7e5c:	0f 10       	rrc	r15		
    7e5e:	0e 10       	rrc	r14		
    7e60:	0c ee       	xor	r14,	r12	
    7e62:	0d ef       	xor	r15,	r13	
    7e64:	1e 44 34 ff 	mov	-204(r4),r14	;0xff34(r4)
    7e68:	1f 44 36 ff 	mov	-202(r4),r15	;0xff36(r4)
    7e6c:	0e f3       	and	#0,	r14	;r3 As==00
    7e6e:	3f f0 00 40 	and	#16384,	r15	;#0x4000
    7e72:	0e 4f       	mov	r15,	r14	
    7e74:	0f 43       	clr	r15		
    7e76:	84 4e de ff 	mov	r14,	-34(r4)	;0xffde(r4)
    7e7a:	84 4f e0 ff 	mov	r15,	-32(r4)	;0xffe0(r4)
    7e7e:	1c e4 de ff 	xor	-34(r4),r12	;0xffde(r4)
    7e82:	1d e4 e0 ff 	xor	-32(r4),r13	;0xffe0(r4)
    7e86:	1e 44 34 ff 	mov	-204(r4),r14	;0xff34(r4)
    7e8a:	1f 44 36 ff 	mov	-202(r4),r15	;0xff36(r4)
    7e8e:	0e f3       	and	#0,	r14	;r3 As==00
    7e90:	3f f0 00 80 	and	#-32768,r15	;#0x8000
    7e94:	8e 10       	swpb	r14		
    7e96:	8f 10       	swpb	r15		
    7e98:	4e ef       	xor.b	r15,	r14	
    7e9a:	0e ef       	xor	r15,	r14	
    7e9c:	4f 4f       	mov.b	r15,	r15	
    7e9e:	12 c3       	clrc			
    7ea0:	0f 10       	rrc	r15		
    7ea2:	0e 10       	rrc	r14		
    7ea4:	12 c3       	clrc			
    7ea6:	0f 10       	rrc	r15		
    7ea8:	0e 10       	rrc	r14		
    7eaa:	12 c3       	clrc			
    7eac:	0f 10       	rrc	r15		
    7eae:	0e 10       	rrc	r14		
    7eb0:	06 4c       	mov	r12,	r6	
    7eb2:	07 4d       	mov	r13,	r7	
    7eb4:	06 ee       	xor	r14,	r6	
    7eb6:	07 ef       	xor	r15,	r7	
    7eb8:	84 46 34 ff 	mov	r6,	-204(r4);0xff34(r4)
    7ebc:	84 47 36 ff 	mov	r7,	-202(r4);0xff36(r4)
    7ec0:	94 e4 34 ff 	xor	-204(r4),-216(r4);0xff34(r4), 0xff28(r4)
    7ec4:	28 ff 
    7ec6:	94 e4 36 ff 	xor	-202(r4),-214(r4);0xff36(r4), 0xff2a(r4)
    7eca:	2a ff 
    GET_UINT32_BE( X, input, 0 );
    GET_UINT32_BE( Y, input, 4 );



    for( i = 0; i < 8; i++ )
    7ecc:	94 53 22 ff 	inc	-222(r4)	;0xff22(r4)
    7ed0:	b4 92 22 ff 	cmp	#8,	-222(r4);r2 As==11, 0xff22(r4)
    7ed4:	02 34       	jge	$+6      	;abs 0x7eda
    7ed6:	30 40 38 6a 	br	#0x6a38	
        DES_ROUND( X, Y );
    }



    PUT_UINT32_BE( Y, output, 0 );
    7eda:	1f 44 2a ff 	mov	-214(r4),r15	;0xff2a(r4)
    7ede:	0e 43       	clr	r14		
    7ee0:	8f 10       	swpb	r15		
    7ee2:	4f 4f       	mov.b	r15,	r15	
    7ee4:	84 4f e2 ff 	mov	r15,	-30(r4)	;0xffe2(r4)
    7ee8:	84 4e e4 ff 	mov	r14,	-28(r4)	;0xffe4(r4)
    7eec:	5e 44 e2 ff 	mov.b	-30(r4),r14	;0xffe2(r4)
    7ef0:	1f 44 3c ff 	mov	-196(r4),r15	;0xff3c(r4)
    7ef4:	cf 4e 00 00 	mov.b	r14,	0(r15)	;0x0000(r15)
    7ef8:	1d 44 3c ff 	mov	-196(r4),r13	;0xff3c(r4)
    7efc:	1d 53       	inc	r13		
    7efe:	1e 44 2a ff 	mov	-214(r4),r14	;0xff2a(r4)
    7f02:	0f 43       	clr	r15		
    7f04:	84 4e e6 ff 	mov	r14,	-26(r4)	;0xffe6(r4)
    7f08:	84 4f e8 ff 	mov	r15,	-24(r4)	;0xffe8(r4)
    7f0c:	5f 44 e6 ff 	mov.b	-26(r4),r15	;0xffe6(r4)
    7f10:	cd 4f 00 00 	mov.b	r15,	0(r13)	;0x0000(r13)
    7f14:	1d 44 3c ff 	mov	-196(r4),r13	;0xff3c(r4)
    7f18:	2d 53       	incd	r13		
    7f1a:	1e 44 28 ff 	mov	-216(r4),r14	;0xff28(r4)
    7f1e:	1f 44 2a ff 	mov	-214(r4),r15	;0xff2a(r4)
    7f22:	8e 10       	swpb	r14		
    7f24:	8f 10       	swpb	r15		
    7f26:	4e ef       	xor.b	r15,	r14	
    7f28:	0e ef       	xor	r15,	r14	
    7f2a:	4f 4f       	mov.b	r15,	r15	
    7f2c:	4f 4e       	mov.b	r14,	r15	
    7f2e:	cd 4f 00 00 	mov.b	r15,	0(r13)	;0x0000(r13)
    7f32:	1e 44 3c ff 	mov	-196(r4),r14	;0xff3c(r4)
    7f36:	3e 50 03 00 	add	#3,	r14	;#0x0003
    7f3a:	1f 44 28 ff 	mov	-216(r4),r15	;0xff28(r4)
    7f3e:	4f 4f       	mov.b	r15,	r15	
    7f40:	ce 4f 00 00 	mov.b	r15,	0(r14)	;0x0000(r14)
    PUT_UINT32_BE( X, output, 4 );
    7f44:	1d 44 3c ff 	mov	-196(r4),r13	;0xff3c(r4)
    7f48:	2d 52       	add	#4,	r13	;r2 As==10
    7f4a:	1f 44 26 ff 	mov	-218(r4),r15	;0xff26(r4)
    7f4e:	0e 43       	clr	r14		
    7f50:	8f 10       	swpb	r15		
    7f52:	4f 4f       	mov.b	r15,	r15	
    7f54:	84 4f ea ff 	mov	r15,	-22(r4)	;0xffea(r4)
    7f58:	84 4e ec ff 	mov	r14,	-20(r4)	;0xffec(r4)
    7f5c:	5f 44 ea ff 	mov.b	-22(r4),r15	;0xffea(r4)
    7f60:	cd 4f 00 00 	mov.b	r15,	0(r13)	;0x0000(r13)
    7f64:	1e 44 3c ff 	mov	-196(r4),r14	;0xff3c(r4)
    7f68:	3e 50 05 00 	add	#5,	r14	;#0x0005
    7f6c:	1d 44 26 ff 	mov	-218(r4),r13	;0xff26(r4)
    7f70:	0f 43       	clr	r15		
    7f72:	84 4d ee ff 	mov	r13,	-18(r4)	;0xffee(r4)
    7f76:	84 4f f0 ff 	mov	r15,	-16(r4)	;0xfff0(r4)
    7f7a:	5f 44 ee ff 	mov.b	-18(r4),r15	;0xffee(r4)
    7f7e:	ce 4f 00 00 	mov.b	r15,	0(r14)	;0x0000(r14)
    7f82:	1d 44 3c ff 	mov	-196(r4),r13	;0xff3c(r4)
    7f86:	3d 50 06 00 	add	#6,	r13	;#0x0006
    7f8a:	1e 44 24 ff 	mov	-220(r4),r14	;0xff24(r4)
    7f8e:	1f 44 26 ff 	mov	-218(r4),r15	;0xff26(r4)
    7f92:	8e 10       	swpb	r14		
    7f94:	8f 10       	swpb	r15		
    7f96:	4e ef       	xor.b	r15,	r14	
    7f98:	0e ef       	xor	r15,	r14	
    7f9a:	4f 4f       	mov.b	r15,	r15	
    7f9c:	4f 4e       	mov.b	r14,	r15	
    7f9e:	cd 4f 00 00 	mov.b	r15,	0(r13)	;0x0000(r13)
    7fa2:	1f 44 3c ff 	mov	-196(r4),r15	;0xff3c(r4)
    7fa6:	3f 50 07 00 	add	#7,	r15	;#0x0007
    7faa:	1e 44 24 ff 	mov	-220(r4),r14	;0xff24(r4)
    7fae:	4e 4e       	mov.b	r14,	r14	
    7fb0:	cf 4e 00 00 	mov.b	r14,	0(r15)	;0x0000(r15)

}
    7fb4:	31 50 d0 00 	add	#208,	r1	;#0x00d0
    7fb8:	34 41       	pop	r4		
    7fba:	36 41       	pop	r6		
    7fbc:	37 41       	pop	r7		
    7fbe:	38 41       	pop	r8		
    7fc0:	39 41       	pop	r9		
    7fc2:	3a 41       	pop	r10		
    7fc4:	3b 41       	pop	r11		
    7fc6:	30 41       	ret			

00007fc8 <delay>:
/**************************************************/
/********************* DELAY **********************/
/**************************************************/

void delay(unsigned int d) 
{
    7fc8:	04 12       	push	r4		
    7fca:	04 41       	mov	r1,	r4	
    7fcc:	24 53       	incd	r4		
    7fce:	31 50 fa ff 	add	#-6,	r1	;#0xfffa
    7fd2:	84 4f fc ff 	mov	r15,	-4(r4)	;0xfffc(r4)
  unsigned int i,j;
  for(j=0; j < 0xff; j++)
    7fd6:	84 43 fa ff 	mov	#0,	-6(r4)	;r3 As==00, 0xfffa(r4)
    7fda:	0d 3c       	jmp	$+28     	;abs 0x7ff6
    {
      for (i = 0; i<d; i++) 
    7fdc:	84 43 f8 ff 	mov	#0,	-8(r4)	;r3 As==00, 0xfff8(r4)
    7fe0:	04 3c       	jmp	$+10     	;abs 0x7fea
	{
	  nop();
    7fe2:	03 43       	nop			
	  nop();
    7fe4:	03 43       	nop			
void delay(unsigned int d) 
{
  unsigned int i,j;
  for(j=0; j < 0xff; j++)
    {
      for (i = 0; i<d; i++) 
    7fe6:	94 53 f8 ff 	inc	-8(r4)		;0xfff8(r4)
    7fea:	94 94 fc ff 	cmp	-4(r4),	-8(r4)	;0xfffc(r4), 0xfff8(r4)
    7fee:	f8 ff 
    7ff0:	f8 2b       	jnc	$-14     	;abs 0x7fe2
/**************************************************/

void delay(unsigned int d) 
{
  unsigned int i,j;
  for(j=0; j < 0xff; j++)
    7ff2:	94 53 fa ff 	inc	-6(r4)		;0xfffa(r4)
    7ff6:	b4 90 ff 00 	cmp	#255,	-6(r4)	;#0x00ff, 0xfffa(r4)
    7ffa:	fa ff 
    7ffc:	ef 2b       	jnc	$-32     	;abs 0x7fdc
	{
	  nop();
	  nop();
	}
    }
}
    7ffe:	31 50 06 00 	add	#6,	r1	;#0x0006
    8002:	34 41       	pop	r4		
    8004:	30 41       	ret			

00008006 <uart1_init>:

#define UART1_BIT_RX (1 << UART1_PIN_RX)
#define UART1_BIT_TX (1 << UART1_PIN_TX)

int uart1_init()
{
    8006:	04 12       	push	r4		
    8008:	04 41       	mov	r1,	r4	
    800a:	24 53       	incd	r4		

  WDTCTL = WDTPW + WDTHOLD;
    800c:	b2 40 80 5a 	mov	#23168,	&0x0120	;#0x5a80
    8010:	20 01 

  P1IE   = 0x00;        // Interrupt enable
    8012:	c2 43 25 00 	mov.b	#0,	&0x0025	;r3 As==00
  P2IE   = 0x00;        // 0:disable 1:enable
    8016:	c2 43 2d 00 	mov.b	#0,	&0x002d	;r3 As==00

  //Init of MSP430 Usart1 pins
  P3SEL |= (UART1_BIT_RX | UART1_BIT_TX);
    801a:	5f 42 1b 00 	mov.b	&0x001b,r15	
    801e:	7f d0 c0 ff 	bis.b	#-64,	r15	;#0xffc0
    8022:	c2 4f 1b 00 	mov.b	r15,	&0x001b	

  //Init of USART1 Module
  U1ME  |= UTXE1|URXE1;           //Enable USART1 transmiter and receiver (UART mode)
    8026:	5f 42 05 00 	mov.b	&0x0005,r15	
    802a:	7f d0 30 00 	bis.b	#48,	r15	;#0x0030
    802e:	c2 4f 05 00 	mov.b	r15,	&0x0005	
  
  U1CTL  = SWRST;                 //reset
    8032:	d2 43 78 00 	mov.b	#1,	&0x0078	;r3 As==01
  U1CTL  = CHAR;                  //init & release reset
    8036:	f2 40 10 00 	mov.b	#16,	&0x0078	;#0x0010
    803a:	78 00 
  
  U1TCTL = SSEL1 | TXEPT;        //use SMCLK 
    803c:	f2 40 21 00 	mov.b	#33,	&0x0079	;#0x0021
    8040:	79 00 
  U1RCTL = 0;
    8042:	c2 43 7a 00 	mov.b	#0,	&0x007a	;r3 As==00
  // 38400 @ SMCLK 1MHz
#define U1BR1_INIT        0
#define U1BR0_INIT        0x1B
#define U1MCTL_INIT       0x03
  
  U1BR1  = U1BR1_INIT;
    8046:	c2 43 7d 00 	mov.b	#0,	&0x007d	;r3 As==00
  U1BR0  = U1BR0_INIT;
    804a:	f2 40 1b 00 	mov.b	#27,	&0x007c	;#0x001b
    804e:	7c 00 
  U1MCTL = U1MCTL_INIT;
    8050:	f2 40 03 00 	mov.b	#3,	&0x007b	;#0x0003
    8054:	7b 00 

  delay(0x800);
    8056:	3f 40 00 08 	mov	#2048,	r15	;#0x0800
    805a:	b0 12 c8 7f 	call	#0x7fc8	
  return 0;
    805e:	0f 43       	clr	r15		
}
    8060:	34 41       	pop	r4		
    8062:	30 41       	ret			

00008064 <uart1_putchar>:

int uart1_putchar(int c)
{
    8064:	04 12       	push	r4		
    8066:	04 41       	mov	r1,	r4	
    8068:	24 53       	incd	r4		
    806a:	21 83       	decd	r1		
    806c:	84 4f fc ff 	mov	r15,	-4(r4)	;0xfffc(r4)
  U1TXBUF = c;
    8070:	1f 44 fc ff 	mov	-4(r4),	r15	;0xfffc(r4)
    8074:	4f 4f       	mov.b	r15,	r15	
    8076:	c2 4f 7f 00 	mov.b	r15,	&0x007f	
  while ((U1TCTL & TXEPT) != TXEPT);
    807a:	03 43       	nop			
    807c:	5f 42 79 00 	mov.b	&0x0079,r15	
    8080:	4f 4f       	mov.b	r15,	r15	
    8082:	1f f3       	and	#1,	r15	;r3 As==01
    8084:	0f 93       	tst	r15		
    8086:	fa 27       	jz	$-10     	;abs 0x807c
  return (unsigned char)c;
    8088:	1f 44 fc ff 	mov	-4(r4),	r15	;0xfffc(r4)
    808c:	4f 4f       	mov.b	r15,	r15	
    808e:	4f 4f       	mov.b	r15,	r15	
}
    8090:	21 53       	incd	r1		
    8092:	34 41       	pop	r4		
    8094:	30 41       	ret			

00008096 <putchar>:
/**************************************************/
/******************** PUT CHAR *********************/
/**************************************************/

int putchar(int c)
{
    8096:	04 12       	push	r4		
    8098:	04 41       	mov	r1,	r4	
    809a:	24 53       	incd	r4		
    809c:	21 83       	decd	r1		
    809e:	84 4f fc ff 	mov	r15,	-4(r4)	;0xfffc(r4)
  return uart1_putchar(c);
    80a2:	1f 44 fc ff 	mov	-4(r4),	r15	;0xfffc(r4)
    80a6:	b0 12 64 80 	call	#0x8064	
}
    80aa:	21 53       	incd	r1		
    80ac:	34 41       	pop	r4		
    80ae:	30 41       	ret			

000080b0 <start_encrypt>:
/******************** END EXPE*********************/
/**************************************************/

void
start_encrypt()
{
    80b0:	04 12       	push	r4		
    80b2:	04 41       	mov	r1,	r4	
    80b4:	24 53       	incd	r4		
  ;
}
    80b6:	34 41       	pop	r4		
    80b8:	30 41       	ret			

000080ba <start_decrypt>:
void
start_decrypt()
{
    80ba:	04 12       	push	r4		
    80bc:	04 41       	mov	r1,	r4	
    80be:	24 53       	incd	r4		
  ;
}
    80c0:	34 41       	pop	r4		
    80c2:	30 41       	ret			

000080c4 <end_expe>:


void
end_expe()
{
    80c4:	04 12       	push	r4		
    80c6:	04 41       	mov	r1,	r4	
    80c8:	24 53       	incd	r4		
  ;
}
    80ca:	34 41       	pop	r4		
    80cc:	30 41       	ret			

000080ce <_unexpected_>:
    80ce:	00 13       	reti			

Disassembly of section .vectors:

0000ffe0 <__ivtbl_16>:
    ffe0:	ce 40 ce 40 ce 40 ce 40 ce 40 ce 40 ce 40 ce 40     .@.@.@.@.@.@.@.@
    fff0:	ce 40 ce 40 ce 40 ce 40 ce 40 ce 40 ce 40 00 40     .@.@.@.@.@.@.@.@
