
ktantan.elf:     file format elf32-msp430

SYMBOL TABLE:
00004000 l    d  .text	00000000 .text
00006ad0 l    d  .rodata	00000000 .rodata
00001100 l    d  .noinit	00000000 .noinit
0000ffe0 l    d  .vectors	00000000 .vectors
00000000 l    d  .debug_aranges	00000000 .debug_aranges
00000000 l    d  .debug_info	00000000 .debug_info
00000000 l    d  .debug_abbrev	00000000 .debug_abbrev
00000000 l    d  .debug_line	00000000 .debug_line
00000000 l    d  .debug_frame	00000000 .debug_frame
00000000 l    d  .debug_str	00000000 .debug_str
00000000 l    d  .debug_loc	00000000 .debug_loc
00000000 l    d  .debug_ranges	00000000 .debug_ranges
00000000 l    df *ABS*	00000000 ktantan64.c
00004100 l       .text	00000000 __br_unexpected_
00000000 l    df *ABS*	00000000 tools.c
00006a96 g     F .text	0000001a putchar
00000057 g       *ABS*	00000000 __BCSCTL1
0000005a g       *ABS*	00000000 __CACTL2
00000174 g       *ABS*	00000000 __TACCR1
00000084 g       *ABS*	00000000 __ADC12MCTL4
00000000 g       *ABS*	00000000 __data_size
0000015a g       *ABS*	00000000 __ADC12MEM13
00000052 g       *ABS*	00000000 __I2CNDAT
00004100  w      .text	00000000 __isr_14
00000128 g       *ABS*	00000000 __FCTL1
00000024 g       *ABS*	00000000 __P1IES
0000007b g       *ABS*	00000000 __U1MCTL
000001f6 g       *ABS*	00000000 __DMA2SZ
00004100  w      .text	00000000 __isr_4
00000002 g       *ABS*	00000000 __IFG1
00000076 g       *ABS*	00000000 __I2CDRW
0000007e g       *ABS*	00000000 __U1RXBUF
00000138 g       *ABS*	00000000 __OP2
00000076 g       *ABS*	00000000 __U0RXBUF
000001a4 g       *ABS*	00000000 __ADC12IFG
0000012e g       *ABS*	00000000 __TAIV
000001e6 g       *ABS*	00000000 __DMA0SZ
00000000 g       .vectors	00000000 _efartext
0000007c g       *ABS*	00000000 __U1BR0
00000130 g       *ABS*	00000000 __MPY
00000001 g       *ABS*	00000000 __IE2
0000013a g       *ABS*	00000000 __RESLO
00000136 g       *ABS*	00000000 __MACS
00000087 g       *ABS*	00000000 __ADC12MCTL7
0000002b g       *ABS*	00000000 __P2IFG
0000001a g       *ABS*	00000000 __P3DIR
000072c0 g       *ABS*	00000000 _etext
00000190 g       *ABS*	00000000 __TBR
0000001d g       *ABS*	00000000 __P4OUT
000001f4 g       *ABS*	00000000 __DMA2DA
00000000 g       *ABS*	00000000 __bss_size
00000081 g       *ABS*	00000000 __ADC12MCTL1
00006a06 g     F .text	0000005e uart1_init
00000152 g       *ABS*	00000000 __ADC12MEM9
00004000  w      .text	00000000 __watchdog_support
000040fa  w      .text	00000000 __stop_progExec__
00000050 g       *ABS*	00000000 __I2CIE
0000002d g       *ABS*	00000000 __P2IE
000001e4 g       *ABS*	00000000 __DMA0DA
00000192 g       *ABS*	00000000 __TBCCR0
00004100  w      .text	00000000 __isr_11
00000186 g       *ABS*	00000000 __TBCCTL2
00006ac4 g     F .text	0000000a end_expe
00000025 g       *ABS*	00000000 __P1IE
000001a0 g       *ABS*	00000000 __ADC12CTL0
00000072 g       *ABS*	00000000 __I2CDCTL
00000073 g       *ABS*	00000000 __U0MCTL
0000007a g       *ABS*	00000000 __U1RCTL
00000082 g       *ABS*	00000000 __ADC12MCTL2
0000019c g       *ABS*	00000000 __TBCCR5
00000035 g       *ABS*	00000000 __P6OUT
00000034 g       *ABS*	00000000 __P6IN
000001c8 g       *ABS*	00000000 __DAC12_0DAT
00000182 g       *ABS*	00000000 __TBCCTL0
0000019e g       *ABS*	00000000 __TBCCR6
00004100  w      .text	00000000 __isr_5
000072c0 g       *ABS*	00000000 __data_load_start
00004100 g       .text	00000000 __dtors_end
000001ea g       *ABS*	00000000 __DMA1SA
00000088 g       *ABS*	00000000 __ADC12MCTL8
00000166 g       *ABS*	00000000 __TACCTL2
000001f0 g       *ABS*	00000000 __DMA2CTL
00004100  w      .text	00000000 __isr_2
00000156 g       *ABS*	00000000 __ADC12MEM11
00000160 g       *ABS*	00000000 __TACTL
00000158 g       *ABS*	00000000 __ADC12MEM12
00000071 g       *ABS*	00000000 __I2CTCTL
0000012c g       *ABS*	00000000 __FCTL3
00004100  w      .text	00000000 __isr_10
00000148 g       *ABS*	00000000 __ADC12MEM4
0000011a g       *ABS*	00000000 __I2CSA
0000002e g       *ABS*	00000000 __P2SEL
00000180 g       *ABS*	00000000 __TBCTL
0000008d g       *ABS*	00000000 __ADC12MCTL13
000046f8 g     F .text	000012c4 ktantan64_encrypt
0000014c g       *ABS*	00000000 __ADC12MEM6
00000023 g       *ABS*	00000000 __P1IFG
0000013c g       *ABS*	00000000 __RESHI
00000072 g       *ABS*	00000000 __U0RCTL
00000172 g       *ABS*	00000000 __TACCR0
00000071 g       *ABS*	00000000 __U0TCTL
00000056 g       *ABS*	00000000 __DCOCTL
00000085 g       *ABS*	00000000 __ADC12MCTL5
00000003 g       *ABS*	00000000 __IFG2
00000005 g       *ABS*	00000000 __ME2
00001100 g     O .noinit	00000002 __wdt_clear_value
00000079 g       *ABS*	00000000 __U1TCTL
0000001b g       *ABS*	00000000 __P3SEL
000001e0 g       *ABS*	00000000 __DMA0CTL
00004100  w      .text	00000000 __isr_7
0000ffe0 g     O .vectors	00000020 __ivtbl_16
00000028 g       *ABS*	00000000 __P2IN
0000014e g       *ABS*	00000000 __ADC12MEM7
00000184 g       *ABS*	00000000 __TBCCTL1
0000005b g       *ABS*	00000000 __CAPD
00000075 g       *ABS*	00000000 __I2CSCLL
00004100  w      .text	00000000 __isr_0
00000029 g       *ABS*	00000000 __P2OUT
0000012a g       *ABS*	00000000 __FCTL2
00004028  w      .text	00000000 __do_clear_bss
0000008f g       *ABS*	00000000 __ADC12MCTL15
00000021 g       *ABS*	00000000 __P1OUT
0000002c g       *ABS*	00000000 __P2IES
0000015c g       *ABS*	00000000 __ADC12MEM14
00000026 g       *ABS*	00000000 __P1SEL
00000198 g       *ABS*	00000000 __TBCCR3
00000080 g       *ABS*	00000000 __ADC12MCTL0
00000140 g       *ABS*	00000000 __ADC12MEM0
00000074 g       *ABS*	00000000 __U0BR0
00000051 g       *ABS*	00000000 __I2CIFG
00006ace  w      .text	00000000 _unexpected_
00004100  w      .text	00000000 __isr_8
0000014a g       *ABS*	00000000 __ADC12MEM5
00000070 g       *ABS*	00000000 __U0CTL
0000018a g       *ABS*	00000000 __TBCCTL4
00000073 g       *ABS*	00000000 __I2CPSC
0000008e g       *ABS*	00000000 __ADC12MCTL14
00004100  w      .text	00000000 __isr_3
000001a6 g       *ABS*	00000000 __ADC12IE
00006a64 g     F .text	00000032 uart1_putchar
00000144 g       *ABS*	00000000 __ADC12MEM2
000059bc g     F .text	0000100c ktantan64_decrypt
000001ee g       *ABS*	00000000 __DMA1SZ
00000033 g       *ABS*	00000000 __P5SEL
00000030 g       *ABS*	00000000 __P5IN
00004000  w      .text	00000000 _reset_vector__
00004100 g       .text	00000000 __ctors_start
00004100  w      .text	00000000 __isr_12
00000036 g       *ABS*	00000000 __P6DIR
00000018 g       *ABS*	00000000 __P3IN
00004010  w      .text	00000000 __do_copy_data
00000150 g       *ABS*	00000000 __ADC12MEM8
00000142 g       *ABS*	00000000 __ADC12MEM1
00001100 g       .rodata	00000000 __bss_start
0000007d g       *ABS*	00000000 __U1BR1
00004104 g     F .text	0000021e mux4_1
0000403e g     F .text	000000bc main
00000176 g       *ABS*	00000000 __TACCR2
0000019a g       *ABS*	00000000 __TBCCR4
00004100  w      .text	00000000 __isr_13
00000078 g       *ABS*	00000000 __U1CTL
000001e2 g       *ABS*	00000000 __DMA0SA
00000170 g       *ABS*	00000000 __TAR
00000124 g       *ABS*	00000000 __DMACTL1
0000001e g       *ABS*	00000000 __P4DIR
00000162 g       *ABS*	00000000 __TACCTL0
00010000 g       .vectors	00000000 _vectors_end
00000154 g       *ABS*	00000000 __ADC12MEM10
000001f2 g       *ABS*	00000000 __DMA2SA
0000002a g       *ABS*	00000000 __P2DIR
00000089 g       *ABS*	00000000 __ADC12MCTL9
0000008a g       *ABS*	00000000 __ADC12MCTL10
000069c8 g     F .text	0000003e delay
00000032 g       *ABS*	00000000 __P5DIR
000001c2 g       *ABS*	00000000 __DAC12_1CTL
000001a2 g       *ABS*	00000000 __ADC12CTL1
000001a8 g       *ABS*	00000000 __ADC12IV
000001e8 g       *ABS*	00000000 __DMA1CTL
00000075 g       *ABS*	00000000 __U0BR1
00004100  w      .text	00000000 __isr_9
0000018c g       *ABS*	00000000 __TBCCTL5
0000400c  w      .text	00000000 __init_stack
00000086 g       *ABS*	00000000 __ADC12MCTL6
00000188 g       *ABS*	00000000 __TBCCTL3
00000019 g       *ABS*	00000000 __P3OUT
000001ca g       *ABS*	00000000 __DAC12_1DAT
00004100 g       .text	00000000 __dtors_start
00004100  w      .text	00000000 __isr_6
00004100 g       .text	00000000 __ctors_end
00000132 g       *ABS*	00000000 __MPYS
0000011c g       *ABS*	00000000 __I2CIV
00000004 g       *ABS*	00000000 __ME1
00003900 g       *ABS*	00000000 __stack
00000037 g       *ABS*	00000000 __P6SEL
00004100  w      .text	00000000 __isr_1
0000008c g       *ABS*	00000000 __ADC12MCTL12
00001100 g       .rodata	00000000 _edata
00000077 g       *ABS*	00000000 __U0TXBUF
00001102 g       *ABS*	00000000 _end
00000194 g       *ABS*	00000000 __TBCCR1
0000011e g       *ABS*	00000000 __TBIV
000001c0 g       *ABS*	00000000 __DAC12_0CTL
00006ab0 g     F .text	0000000a start_encrypt
0000015e g       *ABS*	00000000 __ADC12MEM15
00000134 g       *ABS*	00000000 __MAC
00000058 g       *ABS*	00000000 __BCSCTL2
000040fa  w      .text	00000000 _endless_loop__
00000122 g       *ABS*	00000000 __DMACTL0
0000001f g       *ABS*	00000000 __P4SEL
00000196 g       *ABS*	00000000 __TBCCR2
00000022 g       *ABS*	00000000 __P1DIR
00000146 g       *ABS*	00000000 __ADC12MEM3
00000076 g       *ABS*	00000000 __I2CDRB
00000118 g       *ABS*	00000000 __I2COA
00000164 g       *ABS*	00000000 __TACCTL1
0000007f g       *ABS*	00000000 __U1TXBUF
00000055 g       *ABS*	00000000 __SVSCTL
00004010  w      .text	00000000 __low_level_init
00006aba g     F .text	0000000a start_decrypt
00001100 g       .rodata	00000000 __data_start
0000018e g       *ABS*	00000000 __TBCCTL6
00000074 g       *ABS*	00000000 __I2CSCLH
000001ec g       *ABS*	00000000 __DMA1DA
00000120 g       *ABS*	00000000 __WDTCTL
00000083 g       *ABS*	00000000 __ADC12MCTL3
00000000 g       *ABS*	00000000 __IE1
00004322 g     F .text	000003d6 mux16_1
00000059 g       *ABS*	00000000 __CACTL1
00000020 g       *ABS*	00000000 __P1IN
0000001c g       *ABS*	00000000 __P4IN
0000008b g       *ABS*	00000000 __ADC12MCTL11
0000013e g       *ABS*	00000000 __SUMEXT
00000031 g       *ABS*	00000000 __P5OUT
00006ad0 g     O .rodata	000007f0 IR



Disassembly of section .text:

00004000 <__watchdog_support>:
    4000:	55 42 20 01 	mov.b	&0x0120,r5	
    4004:	35 d0 08 5a 	bis	#23048,	r5	;#0x5a08
    4008:	82 45 00 11 	mov	r5,	&0x1100	

0000400c <__init_stack>:
    400c:	31 40 00 39 	mov	#14592,	r1	;#0x3900

00004010 <__do_copy_data>:
    4010:	3f 40 00 00 	mov	#0,	r15	;#0x0000
    4014:	0f 93       	tst	r15		
    4016:	08 24       	jz	$+18     	;abs 0x4028
    4018:	92 42 00 11 	mov	&0x1100,&0x0120	
    401c:	20 01 
    401e:	2f 83       	decd	r15		
    4020:	9f 4f c0 72 	mov	29376(r15),4352(r15);0x72c0(r15), 0x1100(r15)
    4024:	00 11 
    4026:	f8 23       	jnz	$-14     	;abs 0x4018

00004028 <__do_clear_bss>:
    4028:	3f 40 00 00 	mov	#0,	r15	;#0x0000
    402c:	0f 93       	tst	r15		
    402e:	07 24       	jz	$+16     	;abs 0x403e
    4030:	92 42 00 11 	mov	&0x1100,&0x0120	
    4034:	20 01 
    4036:	1f 83       	dec	r15		
    4038:	cf 43 00 11 	mov.b	#0,	4352(r15);r3 As==00, 0x1100(r15)
    403c:	f9 23       	jnz	$-12     	;abs 0x4030

0000403e <main>:

}


int main()
{
    403e:	04 41       	mov	r1,	r4	
    4040:	24 53       	incd	r4		
    4042:	31 50 7e f9 	add	#-1666,	r1	;#0xf97e
  u64 key[80];
  u64 plain[64], cipher[64];
  int i;
  
  for(i=0;i<80;++i)   key[i]=0;
    4046:	84 43 7c f9 	mov	#0,	-1668(r4);r3 As==00, 0xf97c(r4)
    404a:	14 3c       	jmp	$+42     	;abs 0x4074
    404c:	1f 44 7c f9 	mov	-1668(r4),r15	;0xf97c(r4)
    4050:	0f 5f       	rla	r15		
    4052:	0f 5f       	rla	r15		
    4054:	0f 5f       	rla	r15		
    4056:	3e 40 7c f9 	mov	#-1668,	r14	;#0xf97c
    405a:	0e 54       	add	r4,	r14	
    405c:	0f 5e       	add	r14,	r15	
    405e:	2f 53       	incd	r15		
    4060:	8f 43 00 00 	mov	#0,	0(r15)	;r3 As==00, 0x0000(r15)
    4064:	8f 43 02 00 	mov	#0,	2(r15)	;r3 As==00, 0x0002(r15)
    4068:	8f 43 04 00 	mov	#0,	4(r15)	;r3 As==00, 0x0004(r15)
    406c:	8f 43 06 00 	mov	#0,	6(r15)	;r3 As==00, 0x0006(r15)
    4070:	94 53 7c f9 	inc	-1668(r4)	;0xf97c(r4)
    4074:	b4 90 50 00 	cmp	#80,	-1668(r4);#0x0050, 0xf97c(r4)
    4078:	7c f9 
    407a:	e8 3b       	jl	$-46     	;abs 0x404c
  for(i=0;i<64;++i)   plain[i]=ONES;
    407c:	84 43 7c f9 	mov	#0,	-1668(r4);r3 As==00, 0xf97c(r4)
    4080:	15 3c       	jmp	$+44     	;abs 0x40ac
    4082:	1f 44 7c f9 	mov	-1668(r4),r15	;0xf97c(r4)
    4086:	0f 5f       	rla	r15		
    4088:	0f 5f       	rla	r15		
    408a:	0f 5f       	rla	r15		
    408c:	3e 40 7c f9 	mov	#-1668,	r14	;#0xf97c
    4090:	0e 54       	add	r4,	r14	
    4092:	0f 5e       	add	r14,	r15	
    4094:	3f 50 82 02 	add	#642,	r15	;#0x0282
    4098:	bf 43 00 00 	mov	#-1,	0(r15)	;r3 As==11, 0x0000(r15)
    409c:	bf 43 02 00 	mov	#-1,	2(r15)	;r3 As==11, 0x0002(r15)
    40a0:	bf 43 04 00 	mov	#-1,	4(r15)	;r3 As==11, 0x0004(r15)
    40a4:	bf 43 06 00 	mov	#-1,	6(r15)	;r3 As==11, 0x0006(r15)
    40a8:	94 53 7c f9 	inc	-1668(r4)	;0xf97c(r4)
    40ac:	b4 90 40 00 	cmp	#64,	-1668(r4);#0x0040, 0xf97c(r4)
    40b0:	7c f9 
    40b2:	e7 3b       	jl	$-48     	;abs 0x4082
  
  START_ENCRYPT();
    40b4:	b0 12 b0 6a 	call	#0x6ab0	
  ktantan64_encrypt( plain, cipher, key, 254 );
    40b8:	0d 44       	mov	r4,	r13	
    40ba:	3d 50 7e f9 	add	#-1666,	r13	;#0xf97e
    40be:	0e 44       	mov	r4,	r14	
    40c0:	3e 50 fe fd 	add	#-514,	r14	;#0xfdfe
    40c4:	0f 44       	mov	r4,	r15	
    40c6:	3f 50 fe fb 	add	#-1026,	r15	;#0xfbfe
    40ca:	3c 40 fe 00 	mov	#254,	r12	;#0x00fe
    40ce:	b0 12 f8 46 	call	#0x46f8	
  //printf("\nktantan64_encrypt(key=00..00, plain=11.11) = ");
  //  for(i=0;i<64;++i)   printf("%llu",cipher[i]&1);
  //for(i=63;i>=0;i--)   printf("%llu",cipher[i]&1);
  
  START_DECRYPT();
    40d2:	b0 12 ba 6a 	call	#0x6aba	
  ktantan64_decrypt( cipher, plain, key, 254 );
    40d6:	0d 44       	mov	r4,	r13	
    40d8:	3d 50 7e f9 	add	#-1666,	r13	;#0xf97e
    40dc:	0e 44       	mov	r4,	r14	
    40de:	3e 50 fe fb 	add	#-1026,	r14	;#0xfbfe
    40e2:	0f 44       	mov	r4,	r15	
    40e4:	3f 50 fe fd 	add	#-514,	r15	;#0xfdfe
    40e8:	3c 40 fe 00 	mov	#254,	r12	;#0x00fe
    40ec:	b0 12 bc 59 	call	#0x59bc	
  
  END_EXPE();
    40f0:	b0 12 c4 6a 	call	#0x6ac4	
  return 0;
    40f4:	0f 43       	clr	r15		
    40f6:	31 50 82 06 	add	#1666,	r1	;#0x0682

000040fa <__stop_progExec__>:
    40fa:	32 d0 f0 00 	bis	#240,	r2	;#0x00f0
    40fe:	fd 3f       	jmp	$-4      	;abs 0x40fa

00004100 <__ctors_end>:
    4100:	30 40 ce 6a 	br	#0x6ace	

00004104 <mux4_1>:
  ONES,ONES,0,0,0,0,0,0,0,ONES, // 240-249
  0,0,ONES,0,
};


u64 mux4_1 (u64 x[4], u64 s[2]) {
    4104:	0b 12       	push	r11		
    4106:	0a 12       	push	r10		
    4108:	09 12       	push	r9		
    410a:	08 12       	push	r8		
    410c:	04 12       	push	r4		
    410e:	04 41       	mov	r1,	r4	
    4110:	34 50 0a 00 	add	#10,	r4	;#0x000a
    4114:	31 50 dc ff 	add	#-36,	r1	;#0xffdc
    4118:	84 4f d2 ff 	mov	r15,	-46(r4)	;0xffd2(r4)
    411c:	84 4e d4 ff 	mov	r14,	-44(r4)	;0xffd4(r4)

  return (x[3] & s[1] & s[0]) | (x[2] & s[1] & ~s[0]) | (x[1] & ~s[1] & s[0]) | (x[0] & ~s[1] & ~s[0]);
    4120:	1f 44 d2 ff 	mov	-46(r4),r15	;0xffd2(r4)
    4124:	3f 50 18 00 	add	#24,	r15	;#0x0018
    4128:	a4 4f ee ff 	mov	@r15,	-18(r4)	;0xffee(r4)
    412c:	94 4f 02 00 	mov	2(r15),	-16(r4)	;0x0002(r15), 0xfff0(r4)
    4130:	f0 ff 
    4132:	94 4f 04 00 	mov	4(r15),	-14(r4)	;0x0004(r15), 0xfff2(r4)
    4136:	f2 ff 
    4138:	94 4f 06 00 	mov	6(r15),	-12(r4)	;0x0006(r15), 0xfff4(r4)
    413c:	f4 ff 
    413e:	1f 44 d4 ff 	mov	-44(r4),r15	;0xffd4(r4)
    4142:	3f 52       	add	#8,	r15	;r2 As==11
    4144:	2c 4f       	mov	@r15,	r12	
    4146:	1d 4f 02 00 	mov	2(r15),	r13	;0x0002(r15)
    414a:	1e 4f 04 00 	mov	4(r15),	r14	;0x0004(r15)
    414e:	1f 4f 06 00 	mov	6(r15),	r15	;0x0006(r15)
    4152:	18 44 ee ff 	mov	-18(r4),r8	;0xffee(r4)
    4156:	19 44 f0 ff 	mov	-16(r4),r9	;0xfff0(r4)
    415a:	1a 44 f2 ff 	mov	-14(r4),r10	;0xfff2(r4)
    415e:	1b 44 f4 ff 	mov	-12(r4),r11	;0xfff4(r4)
    4162:	08 fc       	and	r12,	r8	
    4164:	09 fd       	and	r13,	r9	
    4166:	0a fe       	and	r14,	r10	
    4168:	0b ff       	and	r15,	r11	
    416a:	84 48 ee ff 	mov	r8,	-18(r4)	;0xffee(r4)
    416e:	84 49 f0 ff 	mov	r9,	-16(r4)	;0xfff0(r4)
    4172:	84 4a f2 ff 	mov	r10,	-14(r4)	;0xfff2(r4)
    4176:	84 4b f4 ff 	mov	r11,	-12(r4)	;0xfff4(r4)
    417a:	1f 44 d4 ff 	mov	-44(r4),r15	;0xffd4(r4)
    417e:	2c 4f       	mov	@r15,	r12	
    4180:	1d 4f 02 00 	mov	2(r15),	r13	;0x0002(r15)
    4184:	1e 4f 04 00 	mov	4(r15),	r14	;0x0004(r15)
    4188:	1f 4f 06 00 	mov	6(r15),	r15	;0x0006(r15)
    418c:	18 44 ee ff 	mov	-18(r4),r8	;0xffee(r4)
    4190:	19 44 f0 ff 	mov	-16(r4),r9	;0xfff0(r4)
    4194:	1a 44 f2 ff 	mov	-14(r4),r10	;0xfff2(r4)
    4198:	1b 44 f4 ff 	mov	-12(r4),r11	;0xfff4(r4)
    419c:	08 fc       	and	r12,	r8	
    419e:	09 fd       	and	r13,	r9	
    41a0:	0a fe       	and	r14,	r10	
    41a2:	0b ff       	and	r15,	r11	
    41a4:	84 48 d6 ff 	mov	r8,	-42(r4)	;0xffd6(r4)
    41a8:	84 49 d8 ff 	mov	r9,	-40(r4)	;0xffd8(r4)
    41ac:	84 4a da ff 	mov	r10,	-38(r4)	;0xffda(r4)
    41b0:	84 4b dc ff 	mov	r11,	-36(r4)	;0xffdc(r4)
    41b4:	1f 44 d2 ff 	mov	-46(r4),r15	;0xffd2(r4)
    41b8:	3f 50 10 00 	add	#16,	r15	;#0x0010
    41bc:	28 4f       	mov	@r15,	r8	
    41be:	19 4f 02 00 	mov	2(r15),	r9	;0x0002(r15)
    41c2:	1a 4f 04 00 	mov	4(r15),	r10	;0x0004(r15)
    41c6:	1b 4f 06 00 	mov	6(r15),	r11	;0x0006(r15)
    41ca:	1f 44 d4 ff 	mov	-44(r4),r15	;0xffd4(r4)
    41ce:	3f 52       	add	#8,	r15	;r2 As==11
    41d0:	2c 4f       	mov	@r15,	r12	
    41d2:	1d 4f 02 00 	mov	2(r15),	r13	;0x0002(r15)
    41d6:	1e 4f 04 00 	mov	4(r15),	r14	;0x0004(r15)
    41da:	1f 4f 06 00 	mov	6(r15),	r15	;0x0006(r15)
    41de:	08 fc       	and	r12,	r8	
    41e0:	09 fd       	and	r13,	r9	
    41e2:	0a fe       	and	r14,	r10	
    41e4:	0b ff       	and	r15,	r11	
    41e6:	1f 44 d4 ff 	mov	-44(r4),r15	;0xffd4(r4)
    41ea:	2c 4f       	mov	@r15,	r12	
    41ec:	1d 4f 02 00 	mov	2(r15),	r13	;0x0002(r15)
    41f0:	1e 4f 04 00 	mov	4(r15),	r14	;0x0004(r15)
    41f4:	1f 4f 06 00 	mov	6(r15),	r15	;0x0006(r15)
    41f8:	3c e3       	inv	r12		
    41fa:	3d e3       	inv	r13		
    41fc:	3e e3       	inv	r14		
    41fe:	3f e3       	inv	r15		
    4200:	0c f8       	and	r8,	r12	
    4202:	0d f9       	and	r9,	r13	
    4204:	0e fa       	and	r10,	r14	
    4206:	0f fb       	and	r11,	r15	
    4208:	18 44 d6 ff 	mov	-42(r4),r8	;0xffd6(r4)
    420c:	19 44 d8 ff 	mov	-40(r4),r9	;0xffd8(r4)
    4210:	1a 44 da ff 	mov	-38(r4),r10	;0xffda(r4)
    4214:	1b 44 dc ff 	mov	-36(r4),r11	;0xffdc(r4)
    4218:	08 dc       	bis	r12,	r8	
    421a:	09 dd       	bis	r13,	r9	
    421c:	0a de       	bis	r14,	r10	
    421e:	0b df       	bis	r15,	r11	
    4220:	84 48 de ff 	mov	r8,	-34(r4)	;0xffde(r4)
    4224:	84 49 e0 ff 	mov	r9,	-32(r4)	;0xffe0(r4)
    4228:	84 4a e2 ff 	mov	r10,	-30(r4)	;0xffe2(r4)
    422c:	84 4b e4 ff 	mov	r11,	-28(r4)	;0xffe4(r4)
    4230:	1f 44 d2 ff 	mov	-46(r4),r15	;0xffd2(r4)
    4234:	3f 52       	add	#8,	r15	;r2 As==11
    4236:	28 4f       	mov	@r15,	r8	
    4238:	19 4f 02 00 	mov	2(r15),	r9	;0x0002(r15)
    423c:	1a 4f 04 00 	mov	4(r15),	r10	;0x0004(r15)
    4240:	1b 4f 06 00 	mov	6(r15),	r11	;0x0006(r15)
    4244:	1f 44 d4 ff 	mov	-44(r4),r15	;0xffd4(r4)
    4248:	3f 52       	add	#8,	r15	;r2 As==11
    424a:	2c 4f       	mov	@r15,	r12	
    424c:	1d 4f 02 00 	mov	2(r15),	r13	;0x0002(r15)
    4250:	1e 4f 04 00 	mov	4(r15),	r14	;0x0004(r15)
    4254:	1f 4f 06 00 	mov	6(r15),	r15	;0x0006(r15)
    4258:	3c e3       	inv	r12		
    425a:	3d e3       	inv	r13		
    425c:	3e e3       	inv	r14		
    425e:	3f e3       	inv	r15		
    4260:	08 fc       	and	r12,	r8	
    4262:	09 fd       	and	r13,	r9	
    4264:	0a fe       	and	r14,	r10	
    4266:	0b ff       	and	r15,	r11	
    4268:	1f 44 d4 ff 	mov	-44(r4),r15	;0xffd4(r4)
    426c:	2c 4f       	mov	@r15,	r12	
    426e:	1d 4f 02 00 	mov	2(r15),	r13	;0x0002(r15)
    4272:	1e 4f 04 00 	mov	4(r15),	r14	;0x0004(r15)
    4276:	1f 4f 06 00 	mov	6(r15),	r15	;0x0006(r15)
    427a:	0c f8       	and	r8,	r12	
    427c:	0d f9       	and	r9,	r13	
    427e:	0e fa       	and	r10,	r14	
    4280:	0f fb       	and	r11,	r15	
    4282:	18 44 de ff 	mov	-34(r4),r8	;0xffde(r4)
    4286:	19 44 e0 ff 	mov	-32(r4),r9	;0xffe0(r4)
    428a:	1a 44 e2 ff 	mov	-30(r4),r10	;0xffe2(r4)
    428e:	1b 44 e4 ff 	mov	-28(r4),r11	;0xffe4(r4)
    4292:	08 dc       	bis	r12,	r8	
    4294:	09 dd       	bis	r13,	r9	
    4296:	0a de       	bis	r14,	r10	
    4298:	0b df       	bis	r15,	r11	
    429a:	84 48 e6 ff 	mov	r8,	-26(r4)	;0xffe6(r4)
    429e:	84 49 e8 ff 	mov	r9,	-24(r4)	;0xffe8(r4)
    42a2:	84 4a ea ff 	mov	r10,	-22(r4)	;0xffea(r4)
    42a6:	84 4b ec ff 	mov	r11,	-20(r4)	;0xffec(r4)
    42aa:	1f 44 d2 ff 	mov	-46(r4),r15	;0xffd2(r4)
    42ae:	28 4f       	mov	@r15,	r8	
    42b0:	19 4f 02 00 	mov	2(r15),	r9	;0x0002(r15)
    42b4:	1a 4f 04 00 	mov	4(r15),	r10	;0x0004(r15)
    42b8:	1b 4f 06 00 	mov	6(r15),	r11	;0x0006(r15)
    42bc:	1f 44 d4 ff 	mov	-44(r4),r15	;0xffd4(r4)
    42c0:	3f 52       	add	#8,	r15	;r2 As==11
    42c2:	2c 4f       	mov	@r15,	r12	
    42c4:	1d 4f 02 00 	mov	2(r15),	r13	;0x0002(r15)
    42c8:	1e 4f 04 00 	mov	4(r15),	r14	;0x0004(r15)
    42cc:	1f 4f 06 00 	mov	6(r15),	r15	;0x0006(r15)
    42d0:	3c e3       	inv	r12		
    42d2:	3d e3       	inv	r13		
    42d4:	3e e3       	inv	r14		
    42d6:	3f e3       	inv	r15		
    42d8:	08 fc       	and	r12,	r8	
    42da:	09 fd       	and	r13,	r9	
    42dc:	0a fe       	and	r14,	r10	
    42de:	0b ff       	and	r15,	r11	
    42e0:	1f 44 d4 ff 	mov	-44(r4),r15	;0xffd4(r4)
    42e4:	2c 4f       	mov	@r15,	r12	
    42e6:	1d 4f 02 00 	mov	2(r15),	r13	;0x0002(r15)
    42ea:	1e 4f 04 00 	mov	4(r15),	r14	;0x0004(r15)
    42ee:	1f 4f 06 00 	mov	6(r15),	r15	;0x0006(r15)
    42f2:	3c e3       	inv	r12		
    42f4:	3d e3       	inv	r13		
    42f6:	3e e3       	inv	r14		
    42f8:	3f e3       	inv	r15		
    42fa:	0c f8       	and	r8,	r12	
    42fc:	0d f9       	and	r9,	r13	
    42fe:	0e fa       	and	r10,	r14	
    4300:	0f fb       	and	r11,	r15	
    4302:	1c d4 e6 ff 	bis	-26(r4),r12	;0xffe6(r4)
    4306:	1d d4 e8 ff 	bis	-24(r4),r13	;0xffe8(r4)
    430a:	1e d4 ea ff 	bis	-22(r4),r14	;0xffea(r4)
    430e:	1f d4 ec ff 	bis	-20(r4),r15	;0xffec(r4)
}
    4312:	31 50 24 00 	add	#36,	r1	;#0x0024
    4316:	34 41       	pop	r4		
    4318:	38 41       	pop	r8		
    431a:	39 41       	pop	r9		
    431c:	3a 41       	pop	r10		
    431e:	3b 41       	pop	r11		
    4320:	30 41       	ret			

00004322 <mux16_1>:


u64 mux16_1(u64 x[16], u64 s[4]) {
    4322:	04 12       	push	r4		
    4324:	04 41       	mov	r1,	r4	
    4326:	24 53       	incd	r4		
    4328:	31 50 1c ff 	add	#-228,	r1	;#0xff1c
    432c:	84 4f fa ff 	mov	r15,	-6(r4)	;0xfffa(r4)
    4330:	84 4e fc ff 	mov	r14,	-4(r4)	;0xfffc(r4)

  u64 ya, yb, yc, yd, xa[4], xb[4], xc[4], xd[4], xe[4], sa[2], se[2];
  
  xa[0] = x[12];
    4334:	1f 44 fa ff 	mov	-6(r4),	r15	;0xfffa(r4)
    4338:	1c 4f 60 00 	mov	96(r15),r12	;0x0060(r15)
    433c:	1d 4f 62 00 	mov	98(r15),r13	;0x0062(r15)
    4340:	1e 4f 64 00 	mov	100(r15),r14	;0x0064(r15)
    4344:	1f 4f 66 00 	mov	102(r15),r15	;0x0066(r15)
    4348:	84 4c 3a ff 	mov	r12,	-198(r4);0xff3a(r4)
    434c:	84 4d 3c ff 	mov	r13,	-196(r4);0xff3c(r4)
    4350:	84 4e 3e ff 	mov	r14,	-194(r4);0xff3e(r4)
    4354:	84 4f 40 ff 	mov	r15,	-192(r4);0xff40(r4)
  xa[1] = x[13];
    4358:	1f 44 fa ff 	mov	-6(r4),	r15	;0xfffa(r4)
    435c:	1c 4f 68 00 	mov	104(r15),r12	;0x0068(r15)
    4360:	1d 4f 6a 00 	mov	106(r15),r13	;0x006a(r15)
    4364:	1e 4f 6c 00 	mov	108(r15),r14	;0x006c(r15)
    4368:	1f 4f 6e 00 	mov	110(r15),r15	;0x006e(r15)
    436c:	84 4c 42 ff 	mov	r12,	-190(r4);0xff42(r4)
    4370:	84 4d 44 ff 	mov	r13,	-188(r4);0xff44(r4)
    4374:	84 4e 46 ff 	mov	r14,	-186(r4);0xff46(r4)
    4378:	84 4f 48 ff 	mov	r15,	-184(r4);0xff48(r4)
  xa[2] = x[14];
    437c:	1f 44 fa ff 	mov	-6(r4),	r15	;0xfffa(r4)
    4380:	1c 4f 70 00 	mov	112(r15),r12	;0x0070(r15)
    4384:	1d 4f 72 00 	mov	114(r15),r13	;0x0072(r15)
    4388:	1e 4f 74 00 	mov	116(r15),r14	;0x0074(r15)
    438c:	1f 4f 76 00 	mov	118(r15),r15	;0x0076(r15)
    4390:	84 4c 4a ff 	mov	r12,	-182(r4);0xff4a(r4)
    4394:	84 4d 4c ff 	mov	r13,	-180(r4);0xff4c(r4)
    4398:	84 4e 4e ff 	mov	r14,	-178(r4);0xff4e(r4)
    439c:	84 4f 50 ff 	mov	r15,	-176(r4);0xff50(r4)
  xa[3] = x[15];
    43a0:	1f 44 fa ff 	mov	-6(r4),	r15	;0xfffa(r4)
    43a4:	1c 4f 78 00 	mov	120(r15),r12	;0x0078(r15)
    43a8:	1d 4f 7a 00 	mov	122(r15),r13	;0x007a(r15)
    43ac:	1e 4f 7c 00 	mov	124(r15),r14	;0x007c(r15)
    43b0:	1f 4f 7e 00 	mov	126(r15),r15	;0x007e(r15)
    43b4:	84 4c 52 ff 	mov	r12,	-174(r4);0xff52(r4)
    43b8:	84 4d 54 ff 	mov	r13,	-172(r4);0xff54(r4)
    43bc:	84 4e 56 ff 	mov	r14,	-170(r4);0xff56(r4)
    43c0:	84 4f 58 ff 	mov	r15,	-168(r4);0xff58(r4)

  xb[0] = x[8];
    43c4:	1f 44 fa ff 	mov	-6(r4),	r15	;0xfffa(r4)
    43c8:	1c 4f 40 00 	mov	64(r15),r12	;0x0040(r15)
    43cc:	1d 4f 42 00 	mov	66(r15),r13	;0x0042(r15)
    43d0:	1e 4f 44 00 	mov	68(r15),r14	;0x0044(r15)
    43d4:	1f 4f 46 00 	mov	70(r15),r15	;0x0046(r15)
    43d8:	84 4c 5a ff 	mov	r12,	-166(r4);0xff5a(r4)
    43dc:	84 4d 5c ff 	mov	r13,	-164(r4);0xff5c(r4)
    43e0:	84 4e 5e ff 	mov	r14,	-162(r4);0xff5e(r4)
    43e4:	84 4f 60 ff 	mov	r15,	-160(r4);0xff60(r4)
  xb[1] = x[9];
    43e8:	1f 44 fa ff 	mov	-6(r4),	r15	;0xfffa(r4)
    43ec:	1c 4f 48 00 	mov	72(r15),r12	;0x0048(r15)
    43f0:	1d 4f 4a 00 	mov	74(r15),r13	;0x004a(r15)
    43f4:	1e 4f 4c 00 	mov	76(r15),r14	;0x004c(r15)
    43f8:	1f 4f 4e 00 	mov	78(r15),r15	;0x004e(r15)
    43fc:	84 4c 62 ff 	mov	r12,	-158(r4);0xff62(r4)
    4400:	84 4d 64 ff 	mov	r13,	-156(r4);0xff64(r4)
    4404:	84 4e 66 ff 	mov	r14,	-154(r4);0xff66(r4)
    4408:	84 4f 68 ff 	mov	r15,	-152(r4);0xff68(r4)
  xb[2] = x[10];
    440c:	1f 44 fa ff 	mov	-6(r4),	r15	;0xfffa(r4)
    4410:	1c 4f 50 00 	mov	80(r15),r12	;0x0050(r15)
    4414:	1d 4f 52 00 	mov	82(r15),r13	;0x0052(r15)
    4418:	1e 4f 54 00 	mov	84(r15),r14	;0x0054(r15)
    441c:	1f 4f 56 00 	mov	86(r15),r15	;0x0056(r15)
    4420:	84 4c 6a ff 	mov	r12,	-150(r4);0xff6a(r4)
    4424:	84 4d 6c ff 	mov	r13,	-148(r4);0xff6c(r4)
    4428:	84 4e 6e ff 	mov	r14,	-146(r4);0xff6e(r4)
    442c:	84 4f 70 ff 	mov	r15,	-144(r4);0xff70(r4)
  xb[3] = x[11];
    4430:	1f 44 fa ff 	mov	-6(r4),	r15	;0xfffa(r4)
    4434:	1c 4f 58 00 	mov	88(r15),r12	;0x0058(r15)
    4438:	1d 4f 5a 00 	mov	90(r15),r13	;0x005a(r15)
    443c:	1e 4f 5c 00 	mov	92(r15),r14	;0x005c(r15)
    4440:	1f 4f 5e 00 	mov	94(r15),r15	;0x005e(r15)
    4444:	84 4c 72 ff 	mov	r12,	-142(r4);0xff72(r4)
    4448:	84 4d 74 ff 	mov	r13,	-140(r4);0xff74(r4)
    444c:	84 4e 76 ff 	mov	r14,	-138(r4);0xff76(r4)
    4450:	84 4f 78 ff 	mov	r15,	-136(r4);0xff78(r4)

  xc[0] = x[4];
    4454:	1f 44 fa ff 	mov	-6(r4),	r15	;0xfffa(r4)
    4458:	1c 4f 20 00 	mov	32(r15),r12	;0x0020(r15)
    445c:	1d 4f 22 00 	mov	34(r15),r13	;0x0022(r15)
    4460:	1e 4f 24 00 	mov	36(r15),r14	;0x0024(r15)
    4464:	1f 4f 26 00 	mov	38(r15),r15	;0x0026(r15)
    4468:	84 4c 7a ff 	mov	r12,	-134(r4);0xff7a(r4)
    446c:	84 4d 7c ff 	mov	r13,	-132(r4);0xff7c(r4)
    4470:	84 4e 7e ff 	mov	r14,	-130(r4);0xff7e(r4)
    4474:	84 4f 80 ff 	mov	r15,	-128(r4);0xff80(r4)
  xc[1] = x[5];
    4478:	1f 44 fa ff 	mov	-6(r4),	r15	;0xfffa(r4)
    447c:	1c 4f 28 00 	mov	40(r15),r12	;0x0028(r15)
    4480:	1d 4f 2a 00 	mov	42(r15),r13	;0x002a(r15)
    4484:	1e 4f 2c 00 	mov	44(r15),r14	;0x002c(r15)
    4488:	1f 4f 2e 00 	mov	46(r15),r15	;0x002e(r15)
    448c:	84 4c 82 ff 	mov	r12,	-126(r4);0xff82(r4)
    4490:	84 4d 84 ff 	mov	r13,	-124(r4);0xff84(r4)
    4494:	84 4e 86 ff 	mov	r14,	-122(r4);0xff86(r4)
    4498:	84 4f 88 ff 	mov	r15,	-120(r4);0xff88(r4)
  xc[2] = x[6];
    449c:	1f 44 fa ff 	mov	-6(r4),	r15	;0xfffa(r4)
    44a0:	1c 4f 30 00 	mov	48(r15),r12	;0x0030(r15)
    44a4:	1d 4f 32 00 	mov	50(r15),r13	;0x0032(r15)
    44a8:	1e 4f 34 00 	mov	52(r15),r14	;0x0034(r15)
    44ac:	1f 4f 36 00 	mov	54(r15),r15	;0x0036(r15)
    44b0:	84 4c 8a ff 	mov	r12,	-118(r4);0xff8a(r4)
    44b4:	84 4d 8c ff 	mov	r13,	-116(r4);0xff8c(r4)
    44b8:	84 4e 8e ff 	mov	r14,	-114(r4);0xff8e(r4)
    44bc:	84 4f 90 ff 	mov	r15,	-112(r4);0xff90(r4)
  xc[3] = x[7];
    44c0:	1f 44 fa ff 	mov	-6(r4),	r15	;0xfffa(r4)
    44c4:	1c 4f 38 00 	mov	56(r15),r12	;0x0038(r15)
    44c8:	1d 4f 3a 00 	mov	58(r15),r13	;0x003a(r15)
    44cc:	1e 4f 3c 00 	mov	60(r15),r14	;0x003c(r15)
    44d0:	1f 4f 3e 00 	mov	62(r15),r15	;0x003e(r15)
    44d4:	84 4c 92 ff 	mov	r12,	-110(r4);0xff92(r4)
    44d8:	84 4d 94 ff 	mov	r13,	-108(r4);0xff94(r4)
    44dc:	84 4e 96 ff 	mov	r14,	-106(r4);0xff96(r4)
    44e0:	84 4f 98 ff 	mov	r15,	-104(r4);0xff98(r4)

  xd[0] = x[0];
    44e4:	1f 44 fa ff 	mov	-6(r4),	r15	;0xfffa(r4)
    44e8:	2c 4f       	mov	@r15,	r12	
    44ea:	1d 4f 02 00 	mov	2(r15),	r13	;0x0002(r15)
    44ee:	1e 4f 04 00 	mov	4(r15),	r14	;0x0004(r15)
    44f2:	1f 4f 06 00 	mov	6(r15),	r15	;0x0006(r15)
    44f6:	84 4c 9a ff 	mov	r12,	-102(r4);0xff9a(r4)
    44fa:	84 4d 9c ff 	mov	r13,	-100(r4);0xff9c(r4)
    44fe:	84 4e 9e ff 	mov	r14,	-98(r4)	;0xff9e(r4)
    4502:	84 4f a0 ff 	mov	r15,	-96(r4)	;0xffa0(r4)
  xd[1] = x[1];
    4506:	1f 44 fa ff 	mov	-6(r4),	r15	;0xfffa(r4)
    450a:	1c 4f 08 00 	mov	8(r15),	r12	;0x0008(r15)
    450e:	1d 4f 0a 00 	mov	10(r15),r13	;0x000a(r15)
    4512:	1e 4f 0c 00 	mov	12(r15),r14	;0x000c(r15)
    4516:	1f 4f 0e 00 	mov	14(r15),r15	;0x000e(r15)
    451a:	84 4c a2 ff 	mov	r12,	-94(r4)	;0xffa2(r4)
    451e:	84 4d a4 ff 	mov	r13,	-92(r4)	;0xffa4(r4)
    4522:	84 4e a6 ff 	mov	r14,	-90(r4)	;0xffa6(r4)
    4526:	84 4f a8 ff 	mov	r15,	-88(r4)	;0xffa8(r4)
  xd[2] = x[2];
    452a:	1f 44 fa ff 	mov	-6(r4),	r15	;0xfffa(r4)
    452e:	1c 4f 10 00 	mov	16(r15),r12	;0x0010(r15)
    4532:	1d 4f 12 00 	mov	18(r15),r13	;0x0012(r15)
    4536:	1e 4f 14 00 	mov	20(r15),r14	;0x0014(r15)
    453a:	1f 4f 16 00 	mov	22(r15),r15	;0x0016(r15)
    453e:	84 4c aa ff 	mov	r12,	-86(r4)	;0xffaa(r4)
    4542:	84 4d ac ff 	mov	r13,	-84(r4)	;0xffac(r4)
    4546:	84 4e ae ff 	mov	r14,	-82(r4)	;0xffae(r4)
    454a:	84 4f b0 ff 	mov	r15,	-80(r4)	;0xffb0(r4)
  xd[3] = x[3];
    454e:	1f 44 fa ff 	mov	-6(r4),	r15	;0xfffa(r4)
    4552:	1c 4f 18 00 	mov	24(r15),r12	;0x0018(r15)
    4556:	1d 4f 1a 00 	mov	26(r15),r13	;0x001a(r15)
    455a:	1e 4f 1c 00 	mov	28(r15),r14	;0x001c(r15)
    455e:	1f 4f 1e 00 	mov	30(r15),r15	;0x001e(r15)
    4562:	84 4c b2 ff 	mov	r12,	-78(r4)	;0xffb2(r4)
    4566:	84 4d b4 ff 	mov	r13,	-76(r4)	;0xffb4(r4)
    456a:	84 4e b6 ff 	mov	r14,	-74(r4)	;0xffb6(r4)
    456e:	84 4f b8 ff 	mov	r15,	-72(r4)	;0xffb8(r4)

  sa[0] = s[0];
    4572:	1f 44 fc ff 	mov	-4(r4),	r15	;0xfffc(r4)
    4576:	2c 4f       	mov	@r15,	r12	
    4578:	1d 4f 02 00 	mov	2(r15),	r13	;0x0002(r15)
    457c:	1e 4f 04 00 	mov	4(r15),	r14	;0x0004(r15)
    4580:	1f 4f 06 00 	mov	6(r15),	r15	;0x0006(r15)
    4584:	84 4c da ff 	mov	r12,	-38(r4)	;0xffda(r4)
    4588:	84 4d dc ff 	mov	r13,	-36(r4)	;0xffdc(r4)
    458c:	84 4e de ff 	mov	r14,	-34(r4)	;0xffde(r4)
    4590:	84 4f e0 ff 	mov	r15,	-32(r4)	;0xffe0(r4)
  sa[1] = s[1];
    4594:	1f 44 fc ff 	mov	-4(r4),	r15	;0xfffc(r4)
    4598:	1c 4f 08 00 	mov	8(r15),	r12	;0x0008(r15)
    459c:	1d 4f 0a 00 	mov	10(r15),r13	;0x000a(r15)
    45a0:	1e 4f 0c 00 	mov	12(r15),r14	;0x000c(r15)
    45a4:	1f 4f 0e 00 	mov	14(r15),r15	;0x000e(r15)
    45a8:	84 4c e2 ff 	mov	r12,	-30(r4)	;0xffe2(r4)
    45ac:	84 4d e4 ff 	mov	r13,	-28(r4)	;0xffe4(r4)
    45b0:	84 4e e6 ff 	mov	r14,	-26(r4)	;0xffe6(r4)
    45b4:	84 4f e8 ff 	mov	r15,	-24(r4)	;0xffe8(r4)

  se[0] = s[2];
    45b8:	1f 44 fc ff 	mov	-4(r4),	r15	;0xfffc(r4)
    45bc:	1c 4f 10 00 	mov	16(r15),r12	;0x0010(r15)
    45c0:	1d 4f 12 00 	mov	18(r15),r13	;0x0012(r15)
    45c4:	1e 4f 14 00 	mov	20(r15),r14	;0x0014(r15)
    45c8:	1f 4f 16 00 	mov	22(r15),r15	;0x0016(r15)
    45cc:	84 4c ea ff 	mov	r12,	-22(r4)	;0xffea(r4)
    45d0:	84 4d ec ff 	mov	r13,	-20(r4)	;0xffec(r4)
    45d4:	84 4e ee ff 	mov	r14,	-18(r4)	;0xffee(r4)
    45d8:	84 4f f0 ff 	mov	r15,	-16(r4)	;0xfff0(r4)
  se[1] = s[3];
    45dc:	1f 44 fc ff 	mov	-4(r4),	r15	;0xfffc(r4)
    45e0:	1c 4f 18 00 	mov	24(r15),r12	;0x0018(r15)
    45e4:	1d 4f 1a 00 	mov	26(r15),r13	;0x001a(r15)
    45e8:	1e 4f 1c 00 	mov	28(r15),r14	;0x001c(r15)
    45ec:	1f 4f 1e 00 	mov	30(r15),r15	;0x001e(r15)
    45f0:	84 4c f2 ff 	mov	r12,	-14(r4)	;0xfff2(r4)
    45f4:	84 4d f4 ff 	mov	r13,	-12(r4)	;0xfff4(r4)
    45f8:	84 4e f6 ff 	mov	r14,	-10(r4)	;0xfff6(r4)
    45fc:	84 4f f8 ff 	mov	r15,	-8(r4)	;0xfff8(r4)

  ya = mux4_1(xa, sa);
    4600:	0e 44       	mov	r4,	r14	
    4602:	3e 50 da ff 	add	#-38,	r14	;#0xffda
    4606:	0f 44       	mov	r4,	r15	
    4608:	3f 50 3a ff 	add	#-198,	r15	;#0xff3a
    460c:	b0 12 04 41 	call	#0x4104	
    4610:	84 4c 1a ff 	mov	r12,	-230(r4);0xff1a(r4)
    4614:	84 4d 1c ff 	mov	r13,	-228(r4);0xff1c(r4)
    4618:	84 4e 1e ff 	mov	r14,	-226(r4);0xff1e(r4)
    461c:	84 4f 20 ff 	mov	r15,	-224(r4);0xff20(r4)
  yb = mux4_1(xb, sa);
    4620:	0e 44       	mov	r4,	r14	
    4622:	3e 50 da ff 	add	#-38,	r14	;#0xffda
    4626:	0f 44       	mov	r4,	r15	
    4628:	3f 50 5a ff 	add	#-166,	r15	;#0xff5a
    462c:	b0 12 04 41 	call	#0x4104	
    4630:	84 4c 22 ff 	mov	r12,	-222(r4);0xff22(r4)
    4634:	84 4d 24 ff 	mov	r13,	-220(r4);0xff24(r4)
    4638:	84 4e 26 ff 	mov	r14,	-218(r4);0xff26(r4)
    463c:	84 4f 28 ff 	mov	r15,	-216(r4);0xff28(r4)
  yc = mux4_1(xc, sa);
    4640:	0e 44       	mov	r4,	r14	
    4642:	3e 50 da ff 	add	#-38,	r14	;#0xffda
    4646:	0f 44       	mov	r4,	r15	
    4648:	3f 50 7a ff 	add	#-134,	r15	;#0xff7a
    464c:	b0 12 04 41 	call	#0x4104	
    4650:	84 4c 2a ff 	mov	r12,	-214(r4);0xff2a(r4)
    4654:	84 4d 2c ff 	mov	r13,	-212(r4);0xff2c(r4)
    4658:	84 4e 2e ff 	mov	r14,	-210(r4);0xff2e(r4)
    465c:	84 4f 30 ff 	mov	r15,	-208(r4);0xff30(r4)
  yd = mux4_1(xd, sa);
    4660:	0e 44       	mov	r4,	r14	
    4662:	3e 50 da ff 	add	#-38,	r14	;#0xffda
    4666:	0f 44       	mov	r4,	r15	
    4668:	3f 50 9a ff 	add	#-102,	r15	;#0xff9a
    466c:	b0 12 04 41 	call	#0x4104	
    4670:	84 4c 32 ff 	mov	r12,	-206(r4);0xff32(r4)
    4674:	84 4d 34 ff 	mov	r13,	-204(r4);0xff34(r4)
    4678:	84 4e 36 ff 	mov	r14,	-202(r4);0xff36(r4)
    467c:	84 4f 38 ff 	mov	r15,	-200(r4);0xff38(r4)

  xe[0] = yd;
    4680:	94 44 32 ff 	mov	-206(r4),-70(r4)	;0xff32(r4), 0xffba(r4)
    4684:	ba ff 
    4686:	94 44 34 ff 	mov	-204(r4),-68(r4)	;0xff34(r4), 0xffbc(r4)
    468a:	bc ff 
    468c:	94 44 36 ff 	mov	-202(r4),-66(r4)	;0xff36(r4), 0xffbe(r4)
    4690:	be ff 
    4692:	94 44 38 ff 	mov	-200(r4),-64(r4)	;0xff38(r4), 0xffc0(r4)
    4696:	c0 ff 
  xe[1] = yc;
    4698:	94 44 2a ff 	mov	-214(r4),-62(r4)	;0xff2a(r4), 0xffc2(r4)
    469c:	c2 ff 
    469e:	94 44 2c ff 	mov	-212(r4),-60(r4)	;0xff2c(r4), 0xffc4(r4)
    46a2:	c4 ff 
    46a4:	94 44 2e ff 	mov	-210(r4),-58(r4)	;0xff2e(r4), 0xffc6(r4)
    46a8:	c6 ff 
    46aa:	94 44 30 ff 	mov	-208(r4),-56(r4)	;0xff30(r4), 0xffc8(r4)
    46ae:	c8 ff 
  xe[2] = yb;
    46b0:	94 44 22 ff 	mov	-222(r4),-54(r4)	;0xff22(r4), 0xffca(r4)
    46b4:	ca ff 
    46b6:	94 44 24 ff 	mov	-220(r4),-52(r4)	;0xff24(r4), 0xffcc(r4)
    46ba:	cc ff 
    46bc:	94 44 26 ff 	mov	-218(r4),-50(r4)	;0xff26(r4), 0xffce(r4)
    46c0:	ce ff 
    46c2:	94 44 28 ff 	mov	-216(r4),-48(r4)	;0xff28(r4), 0xffd0(r4)
    46c6:	d0 ff 
  xe[3] = ya;
    46c8:	94 44 1a ff 	mov	-230(r4),-46(r4)	;0xff1a(r4), 0xffd2(r4)
    46cc:	d2 ff 
    46ce:	94 44 1c ff 	mov	-228(r4),-44(r4)	;0xff1c(r4), 0xffd4(r4)
    46d2:	d4 ff 
    46d4:	94 44 1e ff 	mov	-226(r4),-42(r4)	;0xff1e(r4), 0xffd6(r4)
    46d8:	d6 ff 
    46da:	94 44 20 ff 	mov	-224(r4),-40(r4)	;0xff20(r4), 0xffd8(r4)
    46de:	d8 ff 

  return mux4_1(xe, se);
    46e0:	0e 44       	mov	r4,	r14	
    46e2:	3e 50 ea ff 	add	#-22,	r14	;#0xffea
    46e6:	0f 44       	mov	r4,	r15	
    46e8:	3f 50 ba ff 	add	#-70,	r15	;#0xffba
    46ec:	b0 12 04 41 	call	#0x4104	
}
    46f0:	31 50 e4 00 	add	#228,	r1	;#0x00e4
    46f4:	34 41       	pop	r4		
    46f6:	30 41       	ret			

000046f8 <ktantan64_encrypt>:



void ktantan64_encrypt( const u64 plain[64], u64 cipher[64], const u64 key[80], int rounds ) {
    46f8:	0b 12       	push	r11		
    46fa:	0a 12       	push	r10		
    46fc:	09 12       	push	r9		
    46fe:	08 12       	push	r8		
    4700:	07 12       	push	r7		
    4702:	06 12       	push	r6		
    4704:	05 12       	push	r5		
    4706:	04 12       	push	r4		
    4708:	04 41       	mov	r1,	r4	
    470a:	34 50 10 00 	add	#16,	r4	;#0x0010
    470e:	31 50 e6 f9 	add	#-1562,	r1	;#0xf9e6
    4712:	84 4f 6a ff 	mov	r15,	-150(r4);0xff6a(r4)
    4716:	84 4e 6c ff 	mov	r14,	-148(r4);0xff6c(r4)
    471a:	84 4d 6e ff 	mov	r13,	-146(r4);0xff6e(r4)
    471e:	84 4c 70 ff 	mov	r12,	-144(r4);0xff70(r4)
  for(i=0;i<39;++i) 
    cipher[i] = L2[i];
  for(i=0;i<25;++i) 
    cipher[i+39] = L1[i];

}
    4722:	84 41 e6 ff 	mov	r1,	-26(r4)	;0xffe6(r4)
  return mux4_1(xe, se);
}



void ktantan64_encrypt( const u64 plain[64], u64 cipher[64], const u64 key[80], int rounds ) {
    4726:	0f 41       	mov	r1,	r15	
    4728:	05 4f       	mov	r15,	r5	

  u64 L1[25], L2[39], fa_2, fa_1, fa_0, fb_2, fb_1, fb_0;
  u64 x16a[16], x16b[16], x16c[16], x16d[16], x16e[16], s16a[4], x4f[4], x4g[4], s4f[2], s4g[2], a0, a4, ka[rounds], kb[rounds], T[8], tmp;
    472a:	1e 44 70 ff 	mov	-144(r4),r14	;0xff70(r4)
    472e:	0f 4e       	mov	r14,	r15	
    4730:	3f 53       	add	#-1,	r15	;r3 As==11
    4732:	84 4f da f9 	mov	r15,	-1574(r4);0xf9da(r4)
    4736:	0f 4e       	mov	r14,	r15	
    4738:	0a 4f       	mov	r15,	r10	
    473a:	0b 43       	clr	r11		
    473c:	0f 4e       	mov	r14,	r15	
    473e:	84 4f 72 ff 	mov	r15,	-142(r4);0xff72(r4)
    4742:	84 43 74 ff 	mov	#0,	-140(r4);r3 As==00, 0xff74(r4)
    4746:	0f 4e       	mov	r14,	r15	
    4748:	0f 5f       	rla	r15		
    474a:	0f 5f       	rla	r15		
    474c:	0f 5f       	rla	r15		
    474e:	1f 53       	inc	r15		
    4750:	1f 53       	inc	r15		
    4752:	12 c3       	clrc			
    4754:	0f 10       	rrc	r15		
    4756:	0f 5f       	rla	r15		
    4758:	01 8f       	sub	r15,	r1	
    475a:	0f 41       	mov	r1,	r15	
    475c:	1f 53       	inc	r15		
    475e:	12 c3       	clrc			
    4760:	0f 10       	rrc	r15		
    4762:	0f 5f       	rla	r15		
    4764:	84 4f dc f9 	mov	r15,	-1572(r4);0xf9dc(r4)
    4768:	1f 44 70 ff 	mov	-144(r4),r15	;0xff70(r4)
    476c:	0e 4f       	mov	r15,	r14	
    476e:	3e 53       	add	#-1,	r14	;r3 As==11
    4770:	84 4e de f9 	mov	r14,	-1570(r4);0xf9de(r4)
    4774:	0e 4f       	mov	r15,	r14	
    4776:	06 4e       	mov	r14,	r6	
    4778:	07 43       	clr	r7		
    477a:	0e 4f       	mov	r15,	r14	
    477c:	08 4e       	mov	r14,	r8	
    477e:	09 43       	clr	r9		
    4780:	0f 5f       	rla	r15		
    4782:	0f 5f       	rla	r15		
    4784:	0f 5f       	rla	r15		
    4786:	1f 53       	inc	r15		
    4788:	1f 53       	inc	r15		
    478a:	12 c3       	clrc			
    478c:	0f 10       	rrc	r15		
    478e:	0f 5f       	rla	r15		
    4790:	01 8f       	sub	r15,	r1	
    4792:	0f 41       	mov	r1,	r15	
    4794:	1f 53       	inc	r15		
    4796:	12 c3       	clrc			
    4798:	0f 10       	rrc	r15		
    479a:	0f 5f       	rla	r15		
    479c:	84 4f e0 f9 	mov	r15,	-1568(r4);0xf9e0(r4)
  int i,j;

  for(i=0;i<39;++i) 
    47a0:	84 43 d6 f9 	mov	#0,	-1578(r4);r3 As==00, 0xf9d6(r4)
    47a4:	23 3c       	jmp	$+72     	;abs 0x47ec
    L2[i] = plain[i];
    47a6:	1f 44 d6 f9 	mov	-1578(r4),r15	;0xf9d6(r4)
    47aa:	0f 5f       	rla	r15		
    47ac:	0f 5f       	rla	r15		
    47ae:	0f 5f       	rla	r15		
    47b0:	1f 54 6a ff 	add	-150(r4),r15	;0xff6a(r4)
    47b4:	2c 4f       	mov	@r15,	r12	
    47b6:	1d 4f 02 00 	mov	2(r15),	r13	;0x0002(r15)
    47ba:	1e 4f 04 00 	mov	4(r15),	r14	;0x0004(r15)
    47be:	1f 4f 06 00 	mov	6(r15),	r15	;0x0006(r15)
    47c2:	1b 44 d6 f9 	mov	-1578(r4),r11	;0xf9d6(r4)
    47c6:	0b 5b       	rla	r11		
    47c8:	0b 5b       	rla	r11		
    47ca:	0b 5b       	rla	r11		
    47cc:	38 40 d6 f9 	mov	#-1578,	r8	;#0xf9d6
    47d0:	08 54       	add	r4,	r8	
    47d2:	0b 58       	add	r8,	r11	
    47d4:	3b 50 1c 01 	add	#284,	r11	;#0x011c
    47d8:	8b 4c 00 00 	mov	r12,	0(r11)	;0x0000(r11)
    47dc:	8b 4d 02 00 	mov	r13,	2(r11)	;0x0002(r11)
    47e0:	8b 4e 04 00 	mov	r14,	4(r11)	;0x0004(r11)
    47e4:	8b 4f 06 00 	mov	r15,	6(r11)	;0x0006(r11)

  u64 L1[25], L2[39], fa_2, fa_1, fa_0, fb_2, fb_1, fb_0;
  u64 x16a[16], x16b[16], x16c[16], x16d[16], x16e[16], s16a[4], x4f[4], x4g[4], s4f[2], s4g[2], a0, a4, ka[rounds], kb[rounds], T[8], tmp;
  int i,j;

  for(i=0;i<39;++i) 
    47e8:	94 53 d6 f9 	inc	-1578(r4)	;0xf9d6(r4)
    47ec:	b4 90 27 00 	cmp	#39,	-1578(r4);#0x0027, 0xf9d6(r4)
    47f0:	d6 f9 
    47f2:	d9 3b       	jl	$-76     	;abs 0x47a6
    L2[i] = plain[i];
  for(i=0;i<25;++i) 
    47f4:	84 43 d6 f9 	mov	#0,	-1578(r4);r3 As==00, 0xf9d6(r4)
    47f8:	25 3c       	jmp	$+76     	;abs 0x4844
    L1[i] = plain[i+39];
    47fa:	1f 44 d6 f9 	mov	-1578(r4),r15	;0xf9d6(r4)
    47fe:	3f 50 27 00 	add	#39,	r15	;#0x0027
    4802:	0f 5f       	rla	r15		
    4804:	0f 5f       	rla	r15		
    4806:	0f 5f       	rla	r15		
    4808:	1f 54 6a ff 	add	-150(r4),r15	;0xff6a(r4)
    480c:	2c 4f       	mov	@r15,	r12	
    480e:	1d 4f 02 00 	mov	2(r15),	r13	;0x0002(r15)
    4812:	1e 4f 04 00 	mov	4(r15),	r14	;0x0004(r15)
    4816:	1f 4f 06 00 	mov	6(r15),	r15	;0x0006(r15)
    481a:	1b 44 d6 f9 	mov	-1578(r4),r11	;0xf9d6(r4)
    481e:	0b 5b       	rla	r11		
    4820:	0b 5b       	rla	r11		
    4822:	0b 5b       	rla	r11		
    4824:	39 40 d6 f9 	mov	#-1578,	r9	;#0xf9d6
    4828:	09 54       	add	r4,	r9	
    482a:	0b 59       	add	r9,	r11	
    482c:	3b 50 54 00 	add	#84,	r11	;#0x0054
    4830:	8b 4c 00 00 	mov	r12,	0(r11)	;0x0000(r11)
    4834:	8b 4d 02 00 	mov	r13,	2(r11)	;0x0002(r11)
    4838:	8b 4e 04 00 	mov	r14,	4(r11)	;0x0004(r11)
    483c:	8b 4f 06 00 	mov	r15,	6(r11)	;0x0006(r11)
  u64 x16a[16], x16b[16], x16c[16], x16d[16], x16e[16], s16a[4], x4f[4], x4g[4], s4f[2], s4g[2], a0, a4, ka[rounds], kb[rounds], T[8], tmp;
  int i,j;

  for(i=0;i<39;++i) 
    L2[i] = plain[i];
  for(i=0;i<25;++i) 
    4840:	94 53 d6 f9 	inc	-1578(r4)	;0xf9d6(r4)
    4844:	b4 90 19 00 	cmp	#25,	-1578(r4);#0x0019, 0xf9d6(r4)
    4848:	d6 f9 
    484a:	d7 3b       	jl	$-80     	;abs 0x47fa
    L1[i] = plain[i+39];

  for(i=0;i<8;++i)
    484c:	84 43 d6 f9 	mov	#0,	-1578(r4);r3 As==00, 0xf9d6(r4)
    4850:	15 3c       	jmp	$+44     	;abs 0x487c
    T[i] = ONES;
    4852:	1f 44 d6 f9 	mov	-1578(r4),r15	;0xf9d6(r4)
    4856:	0f 5f       	rla	r15		
    4858:	0f 5f       	rla	r15		
    485a:	0f 5f       	rla	r15		
    485c:	3a 40 d6 f9 	mov	#-1578,	r10	;#0xf9d6
    4860:	0a 54       	add	r4,	r10	
    4862:	0f 5a       	add	r10,	r15	
    4864:	3f 50 54 05 	add	#1364,	r15	;#0x0554
    4868:	bf 43 00 00 	mov	#-1,	0(r15)	;r3 As==11, 0x0000(r15)
    486c:	bf 43 02 00 	mov	#-1,	2(r15)	;r3 As==11, 0x0002(r15)
    4870:	bf 43 04 00 	mov	#-1,	4(r15)	;r3 As==11, 0x0004(r15)
    4874:	bf 43 06 00 	mov	#-1,	6(r15)	;r3 As==11, 0x0006(r15)
  for(i=0;i<39;++i) 
    L2[i] = plain[i];
  for(i=0;i<25;++i) 
    L1[i] = plain[i+39];

  for(i=0;i<8;++i)
    4878:	94 53 d6 f9 	inc	-1578(r4)	;0xf9d6(r4)
    487c:	b4 92 d6 f9 	cmp	#8,	-1578(r4);r2 As==11, 0xf9d6(r4)
    4880:	e8 3b       	jl	$-46     	;abs 0x4852
    T[i] = ONES;

  for(i=0;i<rounds;++i) {
    4882:	84 43 d6 f9 	mov	#0,	-1578(r4);r3 As==00, 0xf9d6(r4)
    4886:	30 40 e4 58 	br	#0x58e4	

    tmp = T[7] ^ T[6] ^ T[4] ^ T[2]; 
    488a:	94 44 62 ff 	mov	-158(r4),-24(r4)	;0xff62(r4), 0xffe8(r4)
    488e:	e8 ff 
    4890:	94 44 64 ff 	mov	-156(r4),-22(r4)	;0xff64(r4), 0xffea(r4)
    4894:	ea ff 
    4896:	94 44 66 ff 	mov	-154(r4),-20(r4)	;0xff66(r4), 0xffec(r4)
    489a:	ec ff 
    489c:	94 44 68 ff 	mov	-152(r4),-18(r4)	;0xff68(r4), 0xffee(r4)
    48a0:	ee ff 
    48a2:	1c 44 5a ff 	mov	-166(r4),r12	;0xff5a(r4)
    48a6:	1d 44 5c ff 	mov	-164(r4),r13	;0xff5c(r4)
    48aa:	1e 44 5e ff 	mov	-162(r4),r14	;0xff5e(r4)
    48ae:	1f 44 60 ff 	mov	-160(r4),r15	;0xff60(r4)
    48b2:	18 44 e8 ff 	mov	-24(r4),r8	;0xffe8(r4)
    48b6:	19 44 ea ff 	mov	-22(r4),r9	;0xffea(r4)
    48ba:	1a 44 ec ff 	mov	-20(r4),r10	;0xffec(r4)
    48be:	1b 44 ee ff 	mov	-18(r4),r11	;0xffee(r4)
    48c2:	08 ec       	xor	r12,	r8	
    48c4:	09 ed       	xor	r13,	r9	
    48c6:	0a ee       	xor	r14,	r10	
    48c8:	0b ef       	xor	r15,	r11	
    48ca:	84 48 e8 ff 	mov	r8,	-24(r4)	;0xffe8(r4)
    48ce:	84 49 ea ff 	mov	r9,	-22(r4)	;0xffea(r4)
    48d2:	84 4a ec ff 	mov	r10,	-20(r4)	;0xffec(r4)
    48d6:	84 4b ee ff 	mov	r11,	-18(r4)	;0xffee(r4)
    48da:	1c 44 4a ff 	mov	-182(r4),r12	;0xff4a(r4)
    48de:	1d 44 4c ff 	mov	-180(r4),r13	;0xff4c(r4)
    48e2:	1e 44 4e ff 	mov	-178(r4),r14	;0xff4e(r4)
    48e6:	1f 44 50 ff 	mov	-176(r4),r15	;0xff50(r4)
    48ea:	18 44 e8 ff 	mov	-24(r4),r8	;0xffe8(r4)
    48ee:	19 44 ea ff 	mov	-22(r4),r9	;0xffea(r4)
    48f2:	1a 44 ec ff 	mov	-20(r4),r10	;0xffec(r4)
    48f6:	1b 44 ee ff 	mov	-18(r4),r11	;0xffee(r4)
    48fa:	08 ec       	xor	r12,	r8	
    48fc:	09 ed       	xor	r13,	r9	
    48fe:	0a ee       	xor	r14,	r10	
    4900:	0b ef       	xor	r15,	r11	
    4902:	84 48 e8 ff 	mov	r8,	-24(r4)	;0xffe8(r4)
    4906:	84 49 ea ff 	mov	r9,	-22(r4)	;0xffea(r4)
    490a:	84 4a ec ff 	mov	r10,	-20(r4)	;0xffec(r4)
    490e:	84 4b ee ff 	mov	r11,	-18(r4)	;0xffee(r4)
    4912:	1c 44 3a ff 	mov	-198(r4),r12	;0xff3a(r4)
    4916:	1d 44 3c ff 	mov	-196(r4),r13	;0xff3c(r4)
    491a:	1e 44 3e ff 	mov	-194(r4),r14	;0xff3e(r4)
    491e:	1f 44 40 ff 	mov	-192(r4),r15	;0xff40(r4)
    4922:	18 44 e8 ff 	mov	-24(r4),r8	;0xffe8(r4)
    4926:	19 44 ea ff 	mov	-22(r4),r9	;0xffea(r4)
    492a:	1a 44 ec ff 	mov	-20(r4),r10	;0xffec(r4)
    492e:	1b 44 ee ff 	mov	-18(r4),r11	;0xffee(r4)
    4932:	08 ec       	xor	r12,	r8	
    4934:	09 ed       	xor	r13,	r9	
    4936:	0a ee       	xor	r14,	r10	
    4938:	0b ef       	xor	r15,	r11	
    493a:	84 48 e2 f9 	mov	r8,	-1566(r4);0xf9e2(r4)
    493e:	84 49 e4 f9 	mov	r9,	-1564(r4);0xf9e4(r4)
    4942:	84 4a e6 f9 	mov	r10,	-1562(r4);0xf9e6(r4)
    4946:	84 4b e8 f9 	mov	r11,	-1560(r4);0xf9e8(r4)
    for(j=7;j>0;--j)
    494a:	b4 40 07 00 	mov	#7,	-1576(r4);#0x0007, 0xf9d8(r4)
    494e:	d8 f9 
    4950:	28 3c       	jmp	$+82     	;abs 0x49a2
    T[j] = T[j-1];
    4952:	1f 44 d8 f9 	mov	-1576(r4),r15	;0xf9d8(r4)
    4956:	3f 53       	add	#-1,	r15	;r3 As==11
    4958:	0f 5f       	rla	r15		
    495a:	0f 5f       	rla	r15		
    495c:	0f 5f       	rla	r15		
    495e:	39 40 d6 f9 	mov	#-1578,	r9	;#0xf9d6
    4962:	09 54       	add	r4,	r9	
    4964:	0f 59       	add	r9,	r15	
    4966:	3f 50 54 05 	add	#1364,	r15	;#0x0554
    496a:	2c 4f       	mov	@r15,	r12	
    496c:	1d 4f 02 00 	mov	2(r15),	r13	;0x0002(r15)
    4970:	1e 4f 04 00 	mov	4(r15),	r14	;0x0004(r15)
    4974:	1f 4f 06 00 	mov	6(r15),	r15	;0x0006(r15)
    4978:	1b 44 d8 f9 	mov	-1576(r4),r11	;0xf9d8(r4)
    497c:	0b 5b       	rla	r11		
    497e:	0b 5b       	rla	r11		
    4980:	0b 5b       	rla	r11		
    4982:	3a 40 d6 f9 	mov	#-1578,	r10	;#0xf9d6
    4986:	0a 54       	add	r4,	r10	
    4988:	0b 5a       	add	r10,	r11	
    498a:	3b 50 54 05 	add	#1364,	r11	;#0x0554
    498e:	8b 4c 00 00 	mov	r12,	0(r11)	;0x0000(r11)
    4992:	8b 4d 02 00 	mov	r13,	2(r11)	;0x0002(r11)
    4996:	8b 4e 04 00 	mov	r14,	4(r11)	;0x0004(r11)
    499a:	8b 4f 06 00 	mov	r15,	6(r11)	;0x0006(r11)
    T[i] = ONES;

  for(i=0;i<rounds;++i) {

    tmp = T[7] ^ T[6] ^ T[4] ^ T[2]; 
    for(j=7;j>0;--j)
    499e:	b4 53 d8 f9 	add	#-1,	-1576(r4);r3 As==11, 0xf9d8(r4)
    49a2:	94 93 d8 f9 	cmp	#1,	-1576(r4);r3 As==01, 0xf9d8(r4)
    49a6:	d5 37       	jge	$-84     	;abs 0x4952
    T[j] = T[j-1];
    T[0] = tmp;
    49a8:	94 44 e2 f9 	mov	-1566(r4),-214(r4);0xf9e2(r4), 0xff2a(r4)
    49ac:	2a ff 
    49ae:	94 44 e4 f9 	mov	-1564(r4),-212(r4);0xf9e4(r4), 0xff2c(r4)
    49b2:	2c ff 
    49b4:	94 44 e6 f9 	mov	-1562(r4),-210(r4);0xf9e6(r4), 0xff2e(r4)
    49b8:	2e ff 
    49ba:	94 44 e8 f9 	mov	-1560(r4),-208(r4);0xf9e8(r4), 0xff30(r4)
    49be:	30 ff 

    for(j=0;j<16;++j)
    49c0:	84 43 d8 f9 	mov	#0,	-1576(r4);r3 As==00, 0xf9d8(r4)
    49c4:	23 3c       	jmp	$+72     	;abs 0x4a0c
      x16a[j] = key[j];
    49c6:	1f 44 d8 f9 	mov	-1576(r4),r15	;0xf9d8(r4)
    49ca:	0f 5f       	rla	r15		
    49cc:	0f 5f       	rla	r15		
    49ce:	0f 5f       	rla	r15		
    49d0:	1f 54 6e ff 	add	-146(r4),r15	;0xff6e(r4)
    49d4:	2c 4f       	mov	@r15,	r12	
    49d6:	1d 4f 02 00 	mov	2(r15),	r13	;0x0002(r15)
    49da:	1e 4f 04 00 	mov	4(r15),	r14	;0x0004(r15)
    49de:	1f 4f 06 00 	mov	6(r15),	r15	;0x0006(r15)
    49e2:	1b 44 d8 f9 	mov	-1576(r4),r11	;0xf9d8(r4)
    49e6:	0b 5b       	rla	r11		
    49e8:	0b 5b       	rla	r11		
    49ea:	0b 5b       	rla	r11		
    49ec:	38 40 d6 f9 	mov	#-1578,	r8	;#0xf9d6
    49f0:	08 54       	add	r4,	r8	
    49f2:	0b 58       	add	r8,	r11	
    49f4:	3b 50 54 02 	add	#596,	r11	;#0x0254
    49f8:	8b 4c 00 00 	mov	r12,	0(r11)	;0x0000(r11)
    49fc:	8b 4d 02 00 	mov	r13,	2(r11)	;0x0002(r11)
    4a00:	8b 4e 04 00 	mov	r14,	4(r11)	;0x0004(r11)
    4a04:	8b 4f 06 00 	mov	r15,	6(r11)	;0x0006(r11)
    tmp = T[7] ^ T[6] ^ T[4] ^ T[2]; 
    for(j=7;j>0;--j)
    T[j] = T[j-1];
    T[0] = tmp;

    for(j=0;j<16;++j)
    4a08:	94 53 d8 f9 	inc	-1576(r4)	;0xf9d8(r4)
    4a0c:	b4 90 10 00 	cmp	#16,	-1576(r4);#0x0010, 0xf9d8(r4)
    4a10:	d8 f9 
    4a12:	d9 3b       	jl	$-76     	;abs 0x49c6
      x16a[j] = key[j];
    for(j=0;j<16;++j)
    4a14:	84 43 d8 f9 	mov	#0,	-1576(r4);r3 As==00, 0xf9d8(r4)
    4a18:	25 3c       	jmp	$+76     	;abs 0x4a64
      x16b[j] = key[j+16];
    4a1a:	1f 44 d8 f9 	mov	-1576(r4),r15	;0xf9d8(r4)
    4a1e:	3f 50 10 00 	add	#16,	r15	;#0x0010
    4a22:	0f 5f       	rla	r15		
    4a24:	0f 5f       	rla	r15		
    4a26:	0f 5f       	rla	r15		
    4a28:	1f 54 6e ff 	add	-146(r4),r15	;0xff6e(r4)
    4a2c:	2c 4f       	mov	@r15,	r12	
    4a2e:	1d 4f 02 00 	mov	2(r15),	r13	;0x0002(r15)
    4a32:	1e 4f 04 00 	mov	4(r15),	r14	;0x0004(r15)
    4a36:	1f 4f 06 00 	mov	6(r15),	r15	;0x0006(r15)
    4a3a:	1b 44 d8 f9 	mov	-1576(r4),r11	;0xf9d8(r4)
    4a3e:	0b 5b       	rla	r11		
    4a40:	0b 5b       	rla	r11		
    4a42:	0b 5b       	rla	r11		
    4a44:	39 40 d6 f9 	mov	#-1578,	r9	;#0xf9d6
    4a48:	09 54       	add	r4,	r9	
    4a4a:	0b 59       	add	r9,	r11	
    4a4c:	3b 50 d4 02 	add	#724,	r11	;#0x02d4
    4a50:	8b 4c 00 00 	mov	r12,	0(r11)	;0x0000(r11)
    4a54:	8b 4d 02 00 	mov	r13,	2(r11)	;0x0002(r11)
    4a58:	8b 4e 04 00 	mov	r14,	4(r11)	;0x0004(r11)
    4a5c:	8b 4f 06 00 	mov	r15,	6(r11)	;0x0006(r11)
    T[j] = T[j-1];
    T[0] = tmp;

    for(j=0;j<16;++j)
      x16a[j] = key[j];
    for(j=0;j<16;++j)
    4a60:	94 53 d8 f9 	inc	-1576(r4)	;0xf9d8(r4)
    4a64:	b4 90 10 00 	cmp	#16,	-1576(r4);#0x0010, 0xf9d8(r4)
    4a68:	d8 f9 
    4a6a:	d7 3b       	jl	$-80     	;abs 0x4a1a
      x16b[j] = key[j+16];
    for(j=0;j<16;++j)
    4a6c:	84 43 d8 f9 	mov	#0,	-1576(r4);r3 As==00, 0xf9d8(r4)
    4a70:	25 3c       	jmp	$+76     	;abs 0x4abc
      x16c[j] = key[j+32];
    4a72:	1f 44 d8 f9 	mov	-1576(r4),r15	;0xf9d8(r4)
    4a76:	3f 50 20 00 	add	#32,	r15	;#0x0020
    4a7a:	0f 5f       	rla	r15		
    4a7c:	0f 5f       	rla	r15		
    4a7e:	0f 5f       	rla	r15		
    4a80:	1f 54 6e ff 	add	-146(r4),r15	;0xff6e(r4)
    4a84:	2c 4f       	mov	@r15,	r12	
    4a86:	1d 4f 02 00 	mov	2(r15),	r13	;0x0002(r15)
    4a8a:	1e 4f 04 00 	mov	4(r15),	r14	;0x0004(r15)
    4a8e:	1f 4f 06 00 	mov	6(r15),	r15	;0x0006(r15)
    4a92:	1b 44 d8 f9 	mov	-1576(r4),r11	;0xf9d8(r4)
    4a96:	0b 5b       	rla	r11		
    4a98:	0b 5b       	rla	r11		
    4a9a:	0b 5b       	rla	r11		
    4a9c:	3a 40 d6 f9 	mov	#-1578,	r10	;#0xf9d6
    4aa0:	0a 54       	add	r4,	r10	
    4aa2:	0b 5a       	add	r10,	r11	
    4aa4:	3b 50 54 03 	add	#852,	r11	;#0x0354
    4aa8:	8b 4c 00 00 	mov	r12,	0(r11)	;0x0000(r11)
    4aac:	8b 4d 02 00 	mov	r13,	2(r11)	;0x0002(r11)
    4ab0:	8b 4e 04 00 	mov	r14,	4(r11)	;0x0004(r11)
    4ab4:	8b 4f 06 00 	mov	r15,	6(r11)	;0x0006(r11)

    for(j=0;j<16;++j)
      x16a[j] = key[j];
    for(j=0;j<16;++j)
      x16b[j] = key[j+16];
    for(j=0;j<16;++j)
    4ab8:	94 53 d8 f9 	inc	-1576(r4)	;0xf9d8(r4)
    4abc:	b4 90 10 00 	cmp	#16,	-1576(r4);#0x0010, 0xf9d8(r4)
    4ac0:	d8 f9 
    4ac2:	d7 3b       	jl	$-80     	;abs 0x4a72
      x16c[j] = key[j+32];
    for(j=0;j<16;++j)
    4ac4:	84 43 d8 f9 	mov	#0,	-1576(r4);r3 As==00, 0xf9d8(r4)
    4ac8:	25 3c       	jmp	$+76     	;abs 0x4b14
      x16d[j] = key[j+48];
    4aca:	1f 44 d8 f9 	mov	-1576(r4),r15	;0xf9d8(r4)
    4ace:	3f 50 30 00 	add	#48,	r15	;#0x0030
    4ad2:	0f 5f       	rla	r15		
    4ad4:	0f 5f       	rla	r15		
    4ad6:	0f 5f       	rla	r15		
    4ad8:	1f 54 6e ff 	add	-146(r4),r15	;0xff6e(r4)
    4adc:	2c 4f       	mov	@r15,	r12	
    4ade:	1d 4f 02 00 	mov	2(r15),	r13	;0x0002(r15)
    4ae2:	1e 4f 04 00 	mov	4(r15),	r14	;0x0004(r15)
    4ae6:	1f 4f 06 00 	mov	6(r15),	r15	;0x0006(r15)
    4aea:	1b 44 d8 f9 	mov	-1576(r4),r11	;0xf9d8(r4)
    4aee:	0b 5b       	rla	r11		
    4af0:	0b 5b       	rla	r11		
    4af2:	0b 5b       	rla	r11		
    4af4:	38 40 d6 f9 	mov	#-1578,	r8	;#0xf9d6
    4af8:	08 54       	add	r4,	r8	
    4afa:	0b 58       	add	r8,	r11	
    4afc:	3b 50 d4 03 	add	#980,	r11	;#0x03d4
    4b00:	8b 4c 00 00 	mov	r12,	0(r11)	;0x0000(r11)
    4b04:	8b 4d 02 00 	mov	r13,	2(r11)	;0x0002(r11)
    4b08:	8b 4e 04 00 	mov	r14,	4(r11)	;0x0004(r11)
    4b0c:	8b 4f 06 00 	mov	r15,	6(r11)	;0x0006(r11)
      x16a[j] = key[j];
    for(j=0;j<16;++j)
      x16b[j] = key[j+16];
    for(j=0;j<16;++j)
      x16c[j] = key[j+32];
    for(j=0;j<16;++j)
    4b10:	94 53 d8 f9 	inc	-1576(r4)	;0xf9d8(r4)
    4b14:	b4 90 10 00 	cmp	#16,	-1576(r4);#0x0010, 0xf9d8(r4)
    4b18:	d8 f9 
    4b1a:	d7 3b       	jl	$-80     	;abs 0x4aca
      x16d[j] = key[j+48];
    for(j=0;j<16;++j)
    4b1c:	84 43 d8 f9 	mov	#0,	-1576(r4);r3 As==00, 0xf9d8(r4)
    4b20:	25 3c       	jmp	$+76     	;abs 0x4b6c
      x16e[j] = key[j+64];
    4b22:	1f 44 d8 f9 	mov	-1576(r4),r15	;0xf9d8(r4)
    4b26:	3f 50 40 00 	add	#64,	r15	;#0x0040
    4b2a:	0f 5f       	rla	r15		
    4b2c:	0f 5f       	rla	r15		
    4b2e:	0f 5f       	rla	r15		
    4b30:	1f 54 6e ff 	add	-146(r4),r15	;0xff6e(r4)
    4b34:	2c 4f       	mov	@r15,	r12	
    4b36:	1d 4f 02 00 	mov	2(r15),	r13	;0x0002(r15)
    4b3a:	1e 4f 04 00 	mov	4(r15),	r14	;0x0004(r15)
    4b3e:	1f 4f 06 00 	mov	6(r15),	r15	;0x0006(r15)
    4b42:	1b 44 d8 f9 	mov	-1576(r4),r11	;0xf9d8(r4)
    4b46:	0b 5b       	rla	r11		
    4b48:	0b 5b       	rla	r11		
    4b4a:	0b 5b       	rla	r11		
    4b4c:	39 40 d6 f9 	mov	#-1578,	r9	;#0xf9d6
    4b50:	09 54       	add	r4,	r9	
    4b52:	0b 59       	add	r9,	r11	
    4b54:	3b 50 54 04 	add	#1108,	r11	;#0x0454
    4b58:	8b 4c 00 00 	mov	r12,	0(r11)	;0x0000(r11)
    4b5c:	8b 4d 02 00 	mov	r13,	2(r11)	;0x0002(r11)
    4b60:	8b 4e 04 00 	mov	r14,	4(r11)	;0x0004(r11)
    4b64:	8b 4f 06 00 	mov	r15,	6(r11)	;0x0006(r11)
      x16b[j] = key[j+16];
    for(j=0;j<16;++j)
      x16c[j] = key[j+32];
    for(j=0;j<16;++j)
      x16d[j] = key[j+48];
    for(j=0;j<16;++j)
    4b68:	94 53 d8 f9 	inc	-1576(r4)	;0xf9d8(r4)
    4b6c:	b4 90 10 00 	cmp	#16,	-1576(r4);#0x0010, 0xf9d8(r4)
    4b70:	d8 f9 
    4b72:	d7 3b       	jl	$-80     	;abs 0x4b22
      x16e[j] = key[j+64];
    
    s16a[0] = T[4];
    4b74:	1c 44 4a ff 	mov	-182(r4),r12	;0xff4a(r4)
    4b78:	1d 44 4c ff 	mov	-180(r4),r13	;0xff4c(r4)
    4b7c:	1e 44 4e ff 	mov	-178(r4),r14	;0xff4e(r4)
    4b80:	1f 44 50 ff 	mov	-176(r4),r15	;0xff50(r4)
    4b84:	84 4c aa fe 	mov	r12,	-342(r4);0xfeaa(r4)
    4b88:	84 4d ac fe 	mov	r13,	-340(r4);0xfeac(r4)
    4b8c:	84 4e ae fe 	mov	r14,	-338(r4);0xfeae(r4)
    4b90:	84 4f b0 fe 	mov	r15,	-336(r4);0xfeb0(r4)
    s16a[1] = T[5];
    4b94:	1c 44 52 ff 	mov	-174(r4),r12	;0xff52(r4)
    4b98:	1d 44 54 ff 	mov	-172(r4),r13	;0xff54(r4)
    4b9c:	1e 44 56 ff 	mov	-170(r4),r14	;0xff56(r4)
    4ba0:	1f 44 58 ff 	mov	-168(r4),r15	;0xff58(r4)
    4ba4:	84 4c b2 fe 	mov	r12,	-334(r4);0xfeb2(r4)
    4ba8:	84 4d b4 fe 	mov	r13,	-332(r4);0xfeb4(r4)
    4bac:	84 4e b6 fe 	mov	r14,	-330(r4);0xfeb6(r4)
    4bb0:	84 4f b8 fe 	mov	r15,	-328(r4);0xfeb8(r4)
    s16a[2] = T[6];
    4bb4:	1c 44 5a ff 	mov	-166(r4),r12	;0xff5a(r4)
    4bb8:	1d 44 5c ff 	mov	-164(r4),r13	;0xff5c(r4)
    4bbc:	1e 44 5e ff 	mov	-162(r4),r14	;0xff5e(r4)
    4bc0:	1f 44 60 ff 	mov	-160(r4),r15	;0xff60(r4)
    4bc4:	84 4c ba fe 	mov	r12,	-326(r4);0xfeba(r4)
    4bc8:	84 4d bc fe 	mov	r13,	-324(r4);0xfebc(r4)
    4bcc:	84 4e be fe 	mov	r14,	-322(r4);0xfebe(r4)
    4bd0:	84 4f c0 fe 	mov	r15,	-320(r4);0xfec0(r4)
    s16a[3] = T[7];
    4bd4:	1c 44 62 ff 	mov	-158(r4),r12	;0xff62(r4)
    4bd8:	1d 44 64 ff 	mov	-156(r4),r13	;0xff64(r4)
    4bdc:	1e 44 66 ff 	mov	-154(r4),r14	;0xff66(r4)
    4be0:	1f 44 68 ff 	mov	-152(r4),r15	;0xff68(r4)
    4be4:	84 4c c2 fe 	mov	r12,	-318(r4);0xfec2(r4)
    4be8:	84 4d c4 fe 	mov	r13,	-316(r4);0xfec4(r4)
    4bec:	84 4e c6 fe 	mov	r14,	-314(r4);0xfec6(r4)
    4bf0:	84 4f c8 fe 	mov	r15,	-312(r4);0xfec8(r4)

    x4f[3] = mux16_1(x16e, s16a);
    4bf4:	0e 44       	mov	r4,	r14	
    4bf6:	3e 50 aa fe 	add	#-342,	r14	;#0xfeaa
    4bfa:	0f 44       	mov	r4,	r15	
    4bfc:	3f 50 2a fe 	add	#-470,	r15	;#0xfe2a
    4c00:	b0 12 22 43 	call	#0x4322	
    4c04:	84 4c e2 fe 	mov	r12,	-286(r4);0xfee2(r4)
    4c08:	84 4d e4 fe 	mov	r13,	-284(r4);0xfee4(r4)
    4c0c:	84 4e e6 fe 	mov	r14,	-282(r4);0xfee6(r4)
    4c10:	84 4f e8 fe 	mov	r15,	-280(r4);0xfee8(r4)
    x4f[2] = mux16_1(x16d, s16a);
    4c14:	0e 44       	mov	r4,	r14	
    4c16:	3e 50 aa fe 	add	#-342,	r14	;#0xfeaa
    4c1a:	0f 44       	mov	r4,	r15	
    4c1c:	3f 50 aa fd 	add	#-598,	r15	;#0xfdaa
    4c20:	b0 12 22 43 	call	#0x4322	
    4c24:	84 4c da fe 	mov	r12,	-294(r4);0xfeda(r4)
    4c28:	84 4d dc fe 	mov	r13,	-292(r4);0xfedc(r4)
    4c2c:	84 4e de fe 	mov	r14,	-290(r4);0xfede(r4)
    4c30:	84 4f e0 fe 	mov	r15,	-288(r4);0xfee0(r4)
    x4f[1] = mux16_1(x16c, s16a);
    4c34:	0e 44       	mov	r4,	r14	
    4c36:	3e 50 aa fe 	add	#-342,	r14	;#0xfeaa
    4c3a:	0f 44       	mov	r4,	r15	
    4c3c:	3f 50 2a fd 	add	#-726,	r15	;#0xfd2a
    4c40:	b0 12 22 43 	call	#0x4322	
    4c44:	84 4c d2 fe 	mov	r12,	-302(r4);0xfed2(r4)
    4c48:	84 4d d4 fe 	mov	r13,	-300(r4);0xfed4(r4)
    4c4c:	84 4e d6 fe 	mov	r14,	-298(r4);0xfed6(r4)
    4c50:	84 4f d8 fe 	mov	r15,	-296(r4);0xfed8(r4)
    x4f[0] = mux16_1(x16b, s16a);
    4c54:	0e 44       	mov	r4,	r14	
    4c56:	3e 50 aa fe 	add	#-342,	r14	;#0xfeaa
    4c5a:	0f 44       	mov	r4,	r15	
    4c5c:	3f 50 aa fc 	add	#-854,	r15	;#0xfcaa
    4c60:	b0 12 22 43 	call	#0x4322	
    4c64:	84 4c ca fe 	mov	r12,	-310(r4);0xfeca(r4)
    4c68:	84 4d cc fe 	mov	r13,	-308(r4);0xfecc(r4)
    4c6c:	84 4e ce fe 	mov	r14,	-306(r4);0xfece(r4)
    4c70:	84 4f d0 fe 	mov	r15,	-304(r4);0xfed0(r4)
 
    x4g[3] = mux16_1(x16d, s16a);
    4c74:	0e 44       	mov	r4,	r14	
    4c76:	3e 50 aa fe 	add	#-342,	r14	;#0xfeaa
    4c7a:	0f 44       	mov	r4,	r15	
    4c7c:	3f 50 aa fd 	add	#-598,	r15	;#0xfdaa
    4c80:	b0 12 22 43 	call	#0x4322	
    4c84:	84 4c 02 ff 	mov	r12,	-254(r4);0xff02(r4)
    4c88:	84 4d 04 ff 	mov	r13,	-252(r4);0xff04(r4)
    4c8c:	84 4e 06 ff 	mov	r14,	-250(r4);0xff06(r4)
    4c90:	84 4f 08 ff 	mov	r15,	-248(r4);0xff08(r4)
    x4g[2] = mux16_1(x16c, s16a);
    4c94:	0e 44       	mov	r4,	r14	
    4c96:	3e 50 aa fe 	add	#-342,	r14	;#0xfeaa
    4c9a:	0f 44       	mov	r4,	r15	
    4c9c:	3f 50 2a fd 	add	#-726,	r15	;#0xfd2a
    4ca0:	b0 12 22 43 	call	#0x4322	
    4ca4:	84 4c fa fe 	mov	r12,	-262(r4);0xfefa(r4)
    4ca8:	84 4d fc fe 	mov	r13,	-260(r4);0xfefc(r4)
    4cac:	84 4e fe fe 	mov	r14,	-258(r4);0xfefe(r4)
    4cb0:	84 4f 00 ff 	mov	r15,	-256(r4);0xff00(r4)
    x4g[1] = mux16_1(x16b, s16a);
    4cb4:	0e 44       	mov	r4,	r14	
    4cb6:	3e 50 aa fe 	add	#-342,	r14	;#0xfeaa
    4cba:	0f 44       	mov	r4,	r15	
    4cbc:	3f 50 aa fc 	add	#-854,	r15	;#0xfcaa
    4cc0:	b0 12 22 43 	call	#0x4322	
    4cc4:	84 4c f2 fe 	mov	r12,	-270(r4);0xfef2(r4)
    4cc8:	84 4d f4 fe 	mov	r13,	-268(r4);0xfef4(r4)
    4ccc:	84 4e f6 fe 	mov	r14,	-266(r4);0xfef6(r4)
    4cd0:	84 4f f8 fe 	mov	r15,	-264(r4);0xfef8(r4)
    x4g[0] = mux16_1(x16a, s16a);
    4cd4:	0e 44       	mov	r4,	r14	
    4cd6:	3e 50 aa fe 	add	#-342,	r14	;#0xfeaa
    4cda:	0f 44       	mov	r4,	r15	
    4cdc:	3f 50 2a fc 	add	#-982,	r15	;#0xfc2a
    4ce0:	b0 12 22 43 	call	#0x4322	
    4ce4:	84 4c ea fe 	mov	r12,	-278(r4);0xfeea(r4)
    4ce8:	84 4d ec fe 	mov	r13,	-276(r4);0xfeec(r4)
    4cec:	84 4e ee fe 	mov	r14,	-274(r4);0xfeee(r4)
    4cf0:	84 4f f0 fe 	mov	r15,	-272(r4);0xfef0(r4)
   
    s4f[0] = T[0];
    4cf4:	1c 44 2a ff 	mov	-214(r4),r12	;0xff2a(r4)
    4cf8:	1d 44 2c ff 	mov	-212(r4),r13	;0xff2c(r4)
    4cfc:	1e 44 2e ff 	mov	-210(r4),r14	;0xff2e(r4)
    4d00:	1f 44 30 ff 	mov	-208(r4),r15	;0xff30(r4)
    4d04:	84 4c 0a ff 	mov	r12,	-246(r4);0xff0a(r4)
    4d08:	84 4d 0c ff 	mov	r13,	-244(r4);0xff0c(r4)
    4d0c:	84 4e 0e ff 	mov	r14,	-242(r4);0xff0e(r4)
    4d10:	84 4f 10 ff 	mov	r15,	-240(r4);0xff10(r4)
    s4f[1] = T[1];
    4d14:	1c 44 32 ff 	mov	-206(r4),r12	;0xff32(r4)
    4d18:	1d 44 34 ff 	mov	-204(r4),r13	;0xff34(r4)
    4d1c:	1e 44 36 ff 	mov	-202(r4),r14	;0xff36(r4)
    4d20:	1f 44 38 ff 	mov	-200(r4),r15	;0xff38(r4)
    4d24:	84 4c 12 ff 	mov	r12,	-238(r4);0xff12(r4)
    4d28:	84 4d 14 ff 	mov	r13,	-236(r4);0xff14(r4)
    4d2c:	84 4e 16 ff 	mov	r14,	-234(r4);0xff16(r4)
    4d30:	84 4f 18 ff 	mov	r15,	-232(r4);0xff18(r4)
    s4g[0] = ~T[0];
    4d34:	1c 44 2a ff 	mov	-214(r4),r12	;0xff2a(r4)
    4d38:	1d 44 2c ff 	mov	-212(r4),r13	;0xff2c(r4)
    4d3c:	1e 44 2e ff 	mov	-210(r4),r14	;0xff2e(r4)
    4d40:	1f 44 30 ff 	mov	-208(r4),r15	;0xff30(r4)
    4d44:	3c e3       	inv	r12		
    4d46:	3d e3       	inv	r13		
    4d48:	3e e3       	inv	r14		
    4d4a:	3f e3       	inv	r15		
    4d4c:	84 4c 1a ff 	mov	r12,	-230(r4);0xff1a(r4)
    4d50:	84 4d 1c ff 	mov	r13,	-228(r4);0xff1c(r4)
    4d54:	84 4e 1e ff 	mov	r14,	-226(r4);0xff1e(r4)
    4d58:	84 4f 20 ff 	mov	r15,	-224(r4);0xff20(r4)
    s4g[1] = ~T[1];
    4d5c:	1c 44 32 ff 	mov	-206(r4),r12	;0xff32(r4)
    4d60:	1d 44 34 ff 	mov	-204(r4),r13	;0xff34(r4)
    4d64:	1e 44 36 ff 	mov	-202(r4),r14	;0xff36(r4)
    4d68:	1f 44 38 ff 	mov	-200(r4),r15	;0xff38(r4)
    4d6c:	3c e3       	inv	r12		
    4d6e:	3d e3       	inv	r13		
    4d70:	3e e3       	inv	r14		
    4d72:	3f e3       	inv	r15		
    4d74:	84 4c 22 ff 	mov	r12,	-222(r4);0xff22(r4)
    4d78:	84 4d 24 ff 	mov	r13,	-220(r4);0xff24(r4)
    4d7c:	84 4e 26 ff 	mov	r14,	-218(r4);0xff26(r4)
    4d80:	84 4f 28 ff 	mov	r15,	-216(r4);0xff28(r4)
		     
    a0 = mux16_1(x16a, s16a);
    4d84:	0e 44       	mov	r4,	r14	
    4d86:	3e 50 aa fe 	add	#-342,	r14	;#0xfeaa
    4d8a:	0f 44       	mov	r4,	r15	
    4d8c:	3f 50 2a fc 	add	#-982,	r15	;#0xfc2a
    4d90:	b0 12 22 43 	call	#0x4322	
    4d94:	84 4c ea f9 	mov	r12,	-1558(r4);0xf9ea(r4)
    4d98:	84 4d ec f9 	mov	r13,	-1556(r4);0xf9ec(r4)
    4d9c:	84 4e ee f9 	mov	r14,	-1554(r4);0xf9ee(r4)
    4da0:	84 4f f0 f9 	mov	r15,	-1552(r4);0xf9f0(r4)
    a4 = mux16_1(x16e, s16a);
    4da4:	0e 44       	mov	r4,	r14	
    4da6:	3e 50 aa fe 	add	#-342,	r14	;#0xfeaa
    4daa:	0f 44       	mov	r4,	r15	
    4dac:	3f 50 2a fe 	add	#-470,	r15	;#0xfe2a
    4db0:	b0 12 22 43 	call	#0x4322	
    4db4:	84 4c f2 f9 	mov	r12,	-1550(r4);0xf9f2(r4)
    4db8:	84 4d f4 f9 	mov	r13,	-1548(r4);0xf9f4(r4)
    4dbc:	84 4e f6 f9 	mov	r14,	-1546(r4);0xf9f6(r4)
    4dc0:	84 4f f8 f9 	mov	r15,	-1544(r4);0xf9f8(r4)

    ka[i] = (~T[3] & ~T[2] & a0) ^ ((T[3] |  T[2]) & mux4_1(x4f, s4f));
    4dc4:	18 44 42 ff 	mov	-190(r4),r8	;0xff42(r4)
    4dc8:	19 44 44 ff 	mov	-188(r4),r9	;0xff44(r4)
    4dcc:	1a 44 46 ff 	mov	-186(r4),r10	;0xff46(r4)
    4dd0:	1b 44 48 ff 	mov	-184(r4),r11	;0xff48(r4)
    4dd4:	1c 44 3a ff 	mov	-198(r4),r12	;0xff3a(r4)
    4dd8:	1d 44 3c ff 	mov	-196(r4),r13	;0xff3c(r4)
    4ddc:	1e 44 3e ff 	mov	-194(r4),r14	;0xff3e(r4)
    4de0:	1f 44 40 ff 	mov	-192(r4),r15	;0xff40(r4)
    4de4:	0c d8       	bis	r8,	r12	
    4de6:	0d d9       	bis	r9,	r13	
    4de8:	0e da       	bis	r10,	r14	
    4dea:	0f db       	bis	r11,	r15	
    4dec:	3c e3       	inv	r12		
    4dee:	3d e3       	inv	r13		
    4df0:	3e e3       	inv	r14		
    4df2:	3f e3       	inv	r15		
    4df4:	08 4c       	mov	r12,	r8	
    4df6:	09 4d       	mov	r13,	r9	
    4df8:	0a 4e       	mov	r14,	r10	
    4dfa:	0b 4f       	mov	r15,	r11	
    4dfc:	18 f4 ea f9 	and	-1558(r4),r8	;0xf9ea(r4)
    4e00:	19 f4 ec f9 	and	-1556(r4),r9	;0xf9ec(r4)
    4e04:	1a f4 ee f9 	and	-1554(r4),r10	;0xf9ee(r4)
    4e08:	1b f4 f0 f9 	and	-1552(r4),r11	;0xf9f0(r4)
    4e0c:	84 48 76 ff 	mov	r8,	-138(r4);0xff76(r4)
    4e10:	84 49 78 ff 	mov	r9,	-136(r4);0xff78(r4)
    4e14:	84 4a 7a ff 	mov	r10,	-134(r4);0xff7a(r4)
    4e18:	84 4b 7c ff 	mov	r11,	-132(r4);0xff7c(r4)
    4e1c:	18 44 42 ff 	mov	-190(r4),r8	;0xff42(r4)
    4e20:	19 44 44 ff 	mov	-188(r4),r9	;0xff44(r4)
    4e24:	1a 44 46 ff 	mov	-186(r4),r10	;0xff46(r4)
    4e28:	1b 44 48 ff 	mov	-184(r4),r11	;0xff48(r4)
    4e2c:	1c 44 3a ff 	mov	-198(r4),r12	;0xff3a(r4)
    4e30:	1d 44 3c ff 	mov	-196(r4),r13	;0xff3c(r4)
    4e34:	1e 44 3e ff 	mov	-194(r4),r14	;0xff3e(r4)
    4e38:	1f 44 40 ff 	mov	-192(r4),r15	;0xff40(r4)
    4e3c:	08 dc       	bis	r12,	r8	
    4e3e:	09 dd       	bis	r13,	r9	
    4e40:	0a de       	bis	r14,	r10	
    4e42:	0b df       	bis	r15,	r11	
    4e44:	0f 44       	mov	r4,	r15	
    4e46:	3f 50 0a ff 	add	#-246,	r15	;#0xff0a
    4e4a:	0d 44       	mov	r4,	r13	
    4e4c:	3d 50 ca fe 	add	#-310,	r13	;#0xfeca
    4e50:	0e 4f       	mov	r15,	r14	
    4e52:	0f 4d       	mov	r13,	r15	
    4e54:	b0 12 04 41 	call	#0x4104	
    4e58:	0c f8       	and	r8,	r12	
    4e5a:	0d f9       	and	r9,	r13	
    4e5c:	0e fa       	and	r10,	r14	
    4e5e:	0f fb       	and	r11,	r15	
    4e60:	1c e4 76 ff 	xor	-138(r4),r12	;0xff76(r4)
    4e64:	1d e4 78 ff 	xor	-136(r4),r13	;0xff78(r4)
    4e68:	1e e4 7a ff 	xor	-134(r4),r14	;0xff7a(r4)
    4e6c:	1f e4 7c ff 	xor	-132(r4),r15	;0xff7c(r4)
    4e70:	1a 44 dc f9 	mov	-1572(r4),r10	;0xf9dc(r4)
    4e74:	1b 44 d6 f9 	mov	-1578(r4),r11	;0xf9d6(r4)
    4e78:	0b 5b       	rla	r11		
    4e7a:	0b 5b       	rla	r11		
    4e7c:	0b 5b       	rla	r11		
    4e7e:	0b 5a       	add	r10,	r11	
    4e80:	8b 4c 00 00 	mov	r12,	0(r11)	;0x0000(r11)
    4e84:	8b 4d 02 00 	mov	r13,	2(r11)	;0x0002(r11)
    4e88:	8b 4e 04 00 	mov	r14,	4(r11)	;0x0004(r11)
    4e8c:	8b 4f 06 00 	mov	r15,	6(r11)	;0x0006(r11)
    kb[i] = (~T[3] &  T[2] & a4) ^ ((T[3] | ~T[2]) & mux4_1(x4g, s4g));
    4e90:	1c 44 42 ff 	mov	-190(r4),r12	;0xff42(r4)
    4e94:	1d 44 44 ff 	mov	-188(r4),r13	;0xff44(r4)
    4e98:	1e 44 46 ff 	mov	-186(r4),r14	;0xff46(r4)
    4e9c:	1f 44 48 ff 	mov	-184(r4),r15	;0xff48(r4)
    4ea0:	3c e3       	inv	r12		
    4ea2:	3d e3       	inv	r13		
    4ea4:	3e e3       	inv	r14		
    4ea6:	3f e3       	inv	r15		
    4ea8:	18 44 3a ff 	mov	-198(r4),r8	;0xff3a(r4)
    4eac:	19 44 3c ff 	mov	-196(r4),r9	;0xff3c(r4)
    4eb0:	1a 44 3e ff 	mov	-194(r4),r10	;0xff3e(r4)
    4eb4:	1b 44 40 ff 	mov	-192(r4),r11	;0xff40(r4)
    4eb8:	0c f8       	and	r8,	r12	
    4eba:	0d f9       	and	r9,	r13	
    4ebc:	0e fa       	and	r10,	r14	
    4ebe:	0f fb       	and	r11,	r15	
    4ec0:	08 4c       	mov	r12,	r8	
    4ec2:	09 4d       	mov	r13,	r9	
    4ec4:	0a 4e       	mov	r14,	r10	
    4ec6:	0b 4f       	mov	r15,	r11	
    4ec8:	18 f4 f2 f9 	and	-1550(r4),r8	;0xf9f2(r4)
    4ecc:	19 f4 f4 f9 	and	-1548(r4),r9	;0xf9f4(r4)
    4ed0:	1a f4 f6 f9 	and	-1546(r4),r10	;0xf9f6(r4)
    4ed4:	1b f4 f8 f9 	and	-1544(r4),r11	;0xf9f8(r4)
    4ed8:	84 48 7e ff 	mov	r8,	-130(r4);0xff7e(r4)
    4edc:	84 49 80 ff 	mov	r9,	-128(r4);0xff80(r4)
    4ee0:	84 4a 82 ff 	mov	r10,	-126(r4);0xff82(r4)
    4ee4:	84 4b 84 ff 	mov	r11,	-124(r4);0xff84(r4)
    4ee8:	18 44 42 ff 	mov	-190(r4),r8	;0xff42(r4)
    4eec:	19 44 44 ff 	mov	-188(r4),r9	;0xff44(r4)
    4ef0:	1a 44 46 ff 	mov	-186(r4),r10	;0xff46(r4)
    4ef4:	1b 44 48 ff 	mov	-184(r4),r11	;0xff48(r4)
    4ef8:	1c 44 3a ff 	mov	-198(r4),r12	;0xff3a(r4)
    4efc:	1d 44 3c ff 	mov	-196(r4),r13	;0xff3c(r4)
    4f00:	1e 44 3e ff 	mov	-194(r4),r14	;0xff3e(r4)
    4f04:	1f 44 40 ff 	mov	-192(r4),r15	;0xff40(r4)
    4f08:	3c e3       	inv	r12		
    4f0a:	3d e3       	inv	r13		
    4f0c:	3e e3       	inv	r14		
    4f0e:	3f e3       	inv	r15		
    4f10:	08 dc       	bis	r12,	r8	
    4f12:	09 dd       	bis	r13,	r9	
    4f14:	0a de       	bis	r14,	r10	
    4f16:	0b df       	bis	r15,	r11	
    4f18:	0f 44       	mov	r4,	r15	
    4f1a:	3f 50 1a ff 	add	#-230,	r15	;#0xff1a
    4f1e:	0d 44       	mov	r4,	r13	
    4f20:	3d 50 ea fe 	add	#-278,	r13	;#0xfeea
    4f24:	0e 4f       	mov	r15,	r14	
    4f26:	0f 4d       	mov	r13,	r15	
    4f28:	b0 12 04 41 	call	#0x4104	
    4f2c:	0c f8       	and	r8,	r12	
    4f2e:	0d f9       	and	r9,	r13	
    4f30:	0e fa       	and	r10,	r14	
    4f32:	0f fb       	and	r11,	r15	
    4f34:	1c e4 7e ff 	xor	-130(r4),r12	;0xff7e(r4)
    4f38:	1d e4 80 ff 	xor	-128(r4),r13	;0xff80(r4)
    4f3c:	1e e4 82 ff 	xor	-126(r4),r14	;0xff82(r4)
    4f40:	1f e4 84 ff 	xor	-124(r4),r15	;0xff84(r4)
    4f44:	1a 44 e0 f9 	mov	-1568(r4),r10	;0xf9e0(r4)
    4f48:	1b 44 d6 f9 	mov	-1578(r4),r11	;0xf9d6(r4)
    4f4c:	0b 5b       	rla	r11		
    4f4e:	0b 5b       	rla	r11		
    4f50:	0b 5b       	rla	r11		
    4f52:	0b 5a       	add	r10,	r11	
    4f54:	8b 4c 00 00 	mov	r12,	0(r11)	;0x0000(r11)
    4f58:	8b 4d 02 00 	mov	r13,	2(r11)	;0x0002(r11)
    4f5c:	8b 4e 04 00 	mov	r14,	4(r11)	;0x0004(r11)
    4f60:	8b 4f 06 00 	mov	r15,	6(r11)	;0x0006(r11)
    
    fa_2 = L1[X1_64]   ^ L1[X2_64]   ^ (L1[X3_64] & L1[X4_64])     ^ (L1[X5_64] & IR[i])         ^ ka[i];
    4f64:	94 44 ea fa 	mov	-1302(r4),-24(r4)	;0xfaea(r4), 0xffe8(r4)
    4f68:	e8 ff 
    4f6a:	94 44 ec fa 	mov	-1300(r4),-22(r4)	;0xfaec(r4), 0xffea(r4)
    4f6e:	ea ff 
    4f70:	94 44 ee fa 	mov	-1298(r4),-20(r4)	;0xfaee(r4), 0xffec(r4)
    4f74:	ec ff 
    4f76:	94 44 f0 fa 	mov	-1296(r4),-18(r4)	;0xfaf0(r4), 0xffee(r4)
    4f7a:	ee ff 
    4f7c:	1c 44 a2 fa 	mov	-1374(r4),r12	;0xfaa2(r4)
    4f80:	1d 44 a4 fa 	mov	-1372(r4),r13	;0xfaa4(r4)
    4f84:	1e 44 a6 fa 	mov	-1370(r4),r14	;0xfaa6(r4)
    4f88:	1f 44 a8 fa 	mov	-1368(r4),r15	;0xfaa8(r4)
    4f8c:	18 44 e8 ff 	mov	-24(r4),r8	;0xffe8(r4)
    4f90:	19 44 ea ff 	mov	-22(r4),r9	;0xffea(r4)
    4f94:	1a 44 ec ff 	mov	-20(r4),r10	;0xffec(r4)
    4f98:	1b 44 ee ff 	mov	-18(r4),r11	;0xffee(r4)
    4f9c:	08 ec       	xor	r12,	r8	
    4f9e:	09 ed       	xor	r13,	r9	
    4fa0:	0a ee       	xor	r14,	r10	
    4fa2:	0b ef       	xor	r15,	r11	
    4fa4:	84 48 e8 ff 	mov	r8,	-24(r4)	;0xffe8(r4)
    4fa8:	84 49 ea ff 	mov	r9,	-22(r4)	;0xffea(r4)
    4fac:	84 4a ec ff 	mov	r10,	-20(r4)	;0xffec(r4)
    4fb0:	84 4b ee ff 	mov	r11,	-18(r4)	;0xffee(r4)
    4fb4:	94 44 ca fa 	mov	-1334(r4),-122(r4);0xfaca(r4), 0xff86(r4)
    4fb8:	86 ff 
    4fba:	94 44 cc fa 	mov	-1332(r4),-120(r4);0xfacc(r4), 0xff88(r4)
    4fbe:	88 ff 
    4fc0:	94 44 ce fa 	mov	-1330(r4),-118(r4);0xface(r4), 0xff8a(r4)
    4fc4:	8a ff 
    4fc6:	94 44 d0 fa 	mov	-1328(r4),-116(r4);0xfad0(r4), 0xff8c(r4)
    4fca:	8c ff 
    4fcc:	1c 44 82 fa 	mov	-1406(r4),r12	;0xfa82(r4)
    4fd0:	1d 44 84 fa 	mov	-1404(r4),r13	;0xfa84(r4)
    4fd4:	1e 44 86 fa 	mov	-1402(r4),r14	;0xfa86(r4)
    4fd8:	1f 44 88 fa 	mov	-1400(r4),r15	;0xfa88(r4)
    4fdc:	1c f4 86 ff 	and	-122(r4),r12	;0xff86(r4)
    4fe0:	1d f4 88 ff 	and	-120(r4),r13	;0xff88(r4)
    4fe4:	1e f4 8a ff 	and	-118(r4),r14	;0xff8a(r4)
    4fe8:	1f f4 8c ff 	and	-116(r4),r15	;0xff8c(r4)
    4fec:	18 44 e8 ff 	mov	-24(r4),r8	;0xffe8(r4)
    4ff0:	19 44 ea ff 	mov	-22(r4),r9	;0xffea(r4)
    4ff4:	1a 44 ec ff 	mov	-20(r4),r10	;0xffec(r4)
    4ff8:	1b 44 ee ff 	mov	-18(r4),r11	;0xffee(r4)
    4ffc:	08 ec       	xor	r12,	r8	
    4ffe:	09 ed       	xor	r13,	r9	
    5000:	0a ee       	xor	r14,	r10	
    5002:	0b ef       	xor	r15,	r11	
    5004:	84 48 e8 ff 	mov	r8,	-24(r4)	;0xffe8(r4)
    5008:	84 49 ea ff 	mov	r9,	-22(r4)	;0xffea(r4)
    500c:	84 4a ec ff 	mov	r10,	-20(r4)	;0xffec(r4)
    5010:	84 4b ee ff 	mov	r11,	-18(r4)	;0xffee(r4)
    5014:	94 44 72 fa 	mov	-1422(r4),-114(r4);0xfa72(r4), 0xff8e(r4)
    5018:	8e ff 
    501a:	94 44 74 fa 	mov	-1420(r4),-112(r4);0xfa74(r4), 0xff90(r4)
    501e:	90 ff 
    5020:	94 44 76 fa 	mov	-1418(r4),-110(r4);0xfa76(r4), 0xff92(r4)
    5024:	92 ff 
    5026:	94 44 78 fa 	mov	-1416(r4),-108(r4);0xfa78(r4), 0xff94(r4)
    502a:	94 ff 
    502c:	1f 44 d6 f9 	mov	-1578(r4),r15	;0xf9d6(r4)
    5030:	0f 5f       	rla	r15		
    5032:	0f 5f       	rla	r15		
    5034:	0f 5f       	rla	r15		
    5036:	3f 50 d0 6a 	add	#27344,	r15	;#0x6ad0
    503a:	2c 4f       	mov	@r15,	r12	
    503c:	1d 4f 02 00 	mov	2(r15),	r13	;0x0002(r15)
    5040:	1e 4f 04 00 	mov	4(r15),	r14	;0x0004(r15)
    5044:	1f 4f 06 00 	mov	6(r15),	r15	;0x0006(r15)
    5048:	1c f4 8e ff 	and	-114(r4),r12	;0xff8e(r4)
    504c:	1d f4 90 ff 	and	-112(r4),r13	;0xff90(r4)
    5050:	1e f4 92 ff 	and	-110(r4),r14	;0xff92(r4)
    5054:	1f f4 94 ff 	and	-108(r4),r15	;0xff94(r4)
    5058:	18 44 e8 ff 	mov	-24(r4),r8	;0xffe8(r4)
    505c:	19 44 ea ff 	mov	-22(r4),r9	;0xffea(r4)
    5060:	1a 44 ec ff 	mov	-20(r4),r10	;0xffec(r4)
    5064:	1b 44 ee ff 	mov	-18(r4),r11	;0xffee(r4)
    5068:	08 ec       	xor	r12,	r8	
    506a:	09 ed       	xor	r13,	r9	
    506c:	0a ee       	xor	r14,	r10	
    506e:	0b ef       	xor	r15,	r11	
    5070:	84 48 e8 ff 	mov	r8,	-24(r4)	;0xffe8(r4)
    5074:	84 49 ea ff 	mov	r9,	-22(r4)	;0xffea(r4)
    5078:	84 4a ec ff 	mov	r10,	-20(r4)	;0xffec(r4)
    507c:	84 4b ee ff 	mov	r11,	-18(r4)	;0xffee(r4)
    5080:	1e 44 dc f9 	mov	-1572(r4),r14	;0xf9dc(r4)
    5084:	1f 44 d6 f9 	mov	-1578(r4),r15	;0xf9d6(r4)
    5088:	0f 5f       	rla	r15		
    508a:	0f 5f       	rla	r15		
    508c:	0f 5f       	rla	r15		
    508e:	0f 5e       	add	r14,	r15	
    5090:	2c 4f       	mov	@r15,	r12	
    5092:	1d 4f 02 00 	mov	2(r15),	r13	;0x0002(r15)
    5096:	1e 4f 04 00 	mov	4(r15),	r14	;0x0004(r15)
    509a:	1f 4f 06 00 	mov	6(r15),	r15	;0x0006(r15)
    509e:	18 44 e8 ff 	mov	-24(r4),r8	;0xffe8(r4)
    50a2:	19 44 ea ff 	mov	-22(r4),r9	;0xffea(r4)
    50a6:	1a 44 ec ff 	mov	-20(r4),r10	;0xffec(r4)
    50aa:	1b 44 ee ff 	mov	-18(r4),r11	;0xffee(r4)
    50ae:	08 ec       	xor	r12,	r8	
    50b0:	09 ed       	xor	r13,	r9	
    50b2:	0a ee       	xor	r14,	r10	
    50b4:	0b ef       	xor	r15,	r11	
    50b6:	84 48 fa f9 	mov	r8,	-1542(r4);0xf9fa(r4)
    50ba:	84 49 fc f9 	mov	r9,	-1540(r4);0xf9fc(r4)
    50be:	84 4a fe f9 	mov	r10,	-1538(r4);0xf9fe(r4)
    50c2:	84 4b 00 fa 	mov	r11,	-1536(r4);0xfa00(r4)
    fa_1 = L1[X1_64-1] ^ L1[X2_64-1] ^ (L1[X3_64-1] & L1[X4_64-1]) ^ (L1[X5_64-1] & IR[i])       ^ ka[i];
    50c6:	94 44 e2 fa 	mov	-1310(r4),-24(r4)	;0xfae2(r4), 0xffe8(r4)
    50ca:	e8 ff 
    50cc:	94 44 e4 fa 	mov	-1308(r4),-22(r4)	;0xfae4(r4), 0xffea(r4)
    50d0:	ea ff 
    50d2:	94 44 e6 fa 	mov	-1306(r4),-20(r4)	;0xfae6(r4), 0xffec(r4)
    50d6:	ec ff 
    50d8:	94 44 e8 fa 	mov	-1304(r4),-18(r4)	;0xfae8(r4), 0xffee(r4)
    50dc:	ee ff 
    50de:	1c 44 9a fa 	mov	-1382(r4),r12	;0xfa9a(r4)
    50e2:	1d 44 9c fa 	mov	-1380(r4),r13	;0xfa9c(r4)
    50e6:	1e 44 9e fa 	mov	-1378(r4),r14	;0xfa9e(r4)
    50ea:	1f 44 a0 fa 	mov	-1376(r4),r15	;0xfaa0(r4)
    50ee:	18 44 e8 ff 	mov	-24(r4),r8	;0xffe8(r4)
    50f2:	19 44 ea ff 	mov	-22(r4),r9	;0xffea(r4)
    50f6:	1a 44 ec ff 	mov	-20(r4),r10	;0xffec(r4)
    50fa:	1b 44 ee ff 	mov	-18(r4),r11	;0xffee(r4)
    50fe:	08 ec       	xor	r12,	r8	
    5100:	09 ed       	xor	r13,	r9	
    5102:	0a ee       	xor	r14,	r10	
    5104:	0b ef       	xor	r15,	r11	
    5106:	84 48 e8 ff 	mov	r8,	-24(r4)	;0xffe8(r4)
    510a:	84 49 ea ff 	mov	r9,	-22(r4)	;0xffea(r4)
    510e:	84 4a ec ff 	mov	r10,	-20(r4)	;0xffec(r4)
    5112:	84 4b ee ff 	mov	r11,	-18(r4)	;0xffee(r4)
    5116:	94 44 c2 fa 	mov	-1342(r4),-106(r4);0xfac2(r4), 0xff96(r4)
    511a:	96 ff 
    511c:	94 44 c4 fa 	mov	-1340(r4),-104(r4);0xfac4(r4), 0xff98(r4)
    5120:	98 ff 
    5122:	94 44 c6 fa 	mov	-1338(r4),-102(r4);0xfac6(r4), 0xff9a(r4)
    5126:	9a ff 
    5128:	94 44 c8 fa 	mov	-1336(r4),-100(r4);0xfac8(r4), 0xff9c(r4)
    512c:	9c ff 
    512e:	1c 44 7a fa 	mov	-1414(r4),r12	;0xfa7a(r4)
    5132:	1d 44 7c fa 	mov	-1412(r4),r13	;0xfa7c(r4)
    5136:	1e 44 7e fa 	mov	-1410(r4),r14	;0xfa7e(r4)
    513a:	1f 44 80 fa 	mov	-1408(r4),r15	;0xfa80(r4)
    513e:	1c f4 96 ff 	and	-106(r4),r12	;0xff96(r4)
    5142:	1d f4 98 ff 	and	-104(r4),r13	;0xff98(r4)
    5146:	1e f4 9a ff 	and	-102(r4),r14	;0xff9a(r4)
    514a:	1f f4 9c ff 	and	-100(r4),r15	;0xff9c(r4)
    514e:	18 44 e8 ff 	mov	-24(r4),r8	;0xffe8(r4)
    5152:	19 44 ea ff 	mov	-22(r4),r9	;0xffea(r4)
    5156:	1a 44 ec ff 	mov	-20(r4),r10	;0xffec(r4)
    515a:	1b 44 ee ff 	mov	-18(r4),r11	;0xffee(r4)
    515e:	08 ec       	xor	r12,	r8	
    5160:	09 ed       	xor	r13,	r9	
    5162:	0a ee       	xor	r14,	r10	
    5164:	0b ef       	xor	r15,	r11	
    5166:	84 48 e8 ff 	mov	r8,	-24(r4)	;0xffe8(r4)
    516a:	84 49 ea ff 	mov	r9,	-22(r4)	;0xffea(r4)
    516e:	84 4a ec ff 	mov	r10,	-20(r4)	;0xffec(r4)
    5172:	84 4b ee ff 	mov	r11,	-18(r4)	;0xffee(r4)
    5176:	94 44 6a fa 	mov	-1430(r4),-98(r4)	;0xfa6a(r4), 0xff9e(r4)
    517a:	9e ff 
    517c:	94 44 6c fa 	mov	-1428(r4),-96(r4)	;0xfa6c(r4), 0xffa0(r4)
    5180:	a0 ff 
    5182:	94 44 6e fa 	mov	-1426(r4),-94(r4)	;0xfa6e(r4), 0xffa2(r4)
    5186:	a2 ff 
    5188:	94 44 70 fa 	mov	-1424(r4),-92(r4)	;0xfa70(r4), 0xffa4(r4)
    518c:	a4 ff 
    518e:	1f 44 d6 f9 	mov	-1578(r4),r15	;0xf9d6(r4)
    5192:	0f 5f       	rla	r15		
    5194:	0f 5f       	rla	r15		
    5196:	0f 5f       	rla	r15		
    5198:	3f 50 d0 6a 	add	#27344,	r15	;#0x6ad0
    519c:	2c 4f       	mov	@r15,	r12	
    519e:	1d 4f 02 00 	mov	2(r15),	r13	;0x0002(r15)
    51a2:	1e 4f 04 00 	mov	4(r15),	r14	;0x0004(r15)
    51a6:	1f 4f 06 00 	mov	6(r15),	r15	;0x0006(r15)
    51aa:	1c f4 9e ff 	and	-98(r4),r12	;0xff9e(r4)
    51ae:	1d f4 a0 ff 	and	-96(r4),r13	;0xffa0(r4)
    51b2:	1e f4 a2 ff 	and	-94(r4),r14	;0xffa2(r4)
    51b6:	1f f4 a4 ff 	and	-92(r4),r15	;0xffa4(r4)
    51ba:	18 44 e8 ff 	mov	-24(r4),r8	;0xffe8(r4)
    51be:	19 44 ea ff 	mov	-22(r4),r9	;0xffea(r4)
    51c2:	1a 44 ec ff 	mov	-20(r4),r10	;0xffec(r4)
    51c6:	1b 44 ee ff 	mov	-18(r4),r11	;0xffee(r4)
    51ca:	08 ec       	xor	r12,	r8	
    51cc:	09 ed       	xor	r13,	r9	
    51ce:	0a ee       	xor	r14,	r10	
    51d0:	0b ef       	xor	r15,	r11	
    51d2:	84 48 e8 ff 	mov	r8,	-24(r4)	;0xffe8(r4)
    51d6:	84 49 ea ff 	mov	r9,	-22(r4)	;0xffea(r4)
    51da:	84 4a ec ff 	mov	r10,	-20(r4)	;0xffec(r4)
    51de:	84 4b ee ff 	mov	r11,	-18(r4)	;0xffee(r4)
    51e2:	1e 44 dc f9 	mov	-1572(r4),r14	;0xf9dc(r4)
    51e6:	1f 44 d6 f9 	mov	-1578(r4),r15	;0xf9d6(r4)
    51ea:	0f 5f       	rla	r15		
    51ec:	0f 5f       	rla	r15		
    51ee:	0f 5f       	rla	r15		
    51f0:	0f 5e       	add	r14,	r15	
    51f2:	2c 4f       	mov	@r15,	r12	
    51f4:	1d 4f 02 00 	mov	2(r15),	r13	;0x0002(r15)
    51f8:	1e 4f 04 00 	mov	4(r15),	r14	;0x0004(r15)
    51fc:	1f 4f 06 00 	mov	6(r15),	r15	;0x0006(r15)
    5200:	18 44 e8 ff 	mov	-24(r4),r8	;0xffe8(r4)
    5204:	19 44 ea ff 	mov	-22(r4),r9	;0xffea(r4)
    5208:	1a 44 ec ff 	mov	-20(r4),r10	;0xffec(r4)
    520c:	1b 44 ee ff 	mov	-18(r4),r11	;0xffee(r4)
    5210:	08 ec       	xor	r12,	r8	
    5212:	09 ed       	xor	r13,	r9	
    5214:	0a ee       	xor	r14,	r10	
    5216:	0b ef       	xor	r15,	r11	
    5218:	84 48 02 fa 	mov	r8,	-1534(r4);0xfa02(r4)
    521c:	84 49 04 fa 	mov	r9,	-1532(r4);0xfa04(r4)
    5220:	84 4a 06 fa 	mov	r10,	-1530(r4);0xfa06(r4)
    5224:	84 4b 08 fa 	mov	r11,	-1528(r4);0xfa08(r4)
    fa_0 = L1[X1_64-2] ^ L1[X2_64-2] ^ (L1[X3_64-2] & L1[X4_64-2]) ^ (L1[X5_64-2] & IR[i])       ^ ka[i];
    5228:	94 44 da fa 	mov	-1318(r4),-24(r4)	;0xfada(r4), 0xffe8(r4)
    522c:	e8 ff 
    522e:	94 44 dc fa 	mov	-1316(r4),-22(r4)	;0xfadc(r4), 0xffea(r4)
    5232:	ea ff 
    5234:	94 44 de fa 	mov	-1314(r4),-20(r4)	;0xfade(r4), 0xffec(r4)
    5238:	ec ff 
    523a:	94 44 e0 fa 	mov	-1312(r4),-18(r4)	;0xfae0(r4), 0xffee(r4)
    523e:	ee ff 
    5240:	1c 44 92 fa 	mov	-1390(r4),r12	;0xfa92(r4)
    5244:	1d 44 94 fa 	mov	-1388(r4),r13	;0xfa94(r4)
    5248:	1e 44 96 fa 	mov	-1386(r4),r14	;0xfa96(r4)
    524c:	1f 44 98 fa 	mov	-1384(r4),r15	;0xfa98(r4)
    5250:	18 44 e8 ff 	mov	-24(r4),r8	;0xffe8(r4)
    5254:	19 44 ea ff 	mov	-22(r4),r9	;0xffea(r4)
    5258:	1a 44 ec ff 	mov	-20(r4),r10	;0xffec(r4)
    525c:	1b 44 ee ff 	mov	-18(r4),r11	;0xffee(r4)
    5260:	08 ec       	xor	r12,	r8	
    5262:	09 ed       	xor	r13,	r9	
    5264:	0a ee       	xor	r14,	r10	
    5266:	0b ef       	xor	r15,	r11	
    5268:	84 48 e8 ff 	mov	r8,	-24(r4)	;0xffe8(r4)
    526c:	84 49 ea ff 	mov	r9,	-22(r4)	;0xffea(r4)
    5270:	84 4a ec ff 	mov	r10,	-20(r4)	;0xffec(r4)
    5274:	84 4b ee ff 	mov	r11,	-18(r4)	;0xffee(r4)
    5278:	94 44 ba fa 	mov	-1350(r4),-90(r4)	;0xfaba(r4), 0xffa6(r4)
    527c:	a6 ff 
    527e:	94 44 bc fa 	mov	-1348(r4),-88(r4)	;0xfabc(r4), 0xffa8(r4)
    5282:	a8 ff 
    5284:	94 44 be fa 	mov	-1346(r4),-86(r4)	;0xfabe(r4), 0xffaa(r4)
    5288:	aa ff 
    528a:	94 44 c0 fa 	mov	-1344(r4),-84(r4)	;0xfac0(r4), 0xffac(r4)
    528e:	ac ff 
    5290:	1c 44 72 fa 	mov	-1422(r4),r12	;0xfa72(r4)
    5294:	1d 44 74 fa 	mov	-1420(r4),r13	;0xfa74(r4)
    5298:	1e 44 76 fa 	mov	-1418(r4),r14	;0xfa76(r4)
    529c:	1f 44 78 fa 	mov	-1416(r4),r15	;0xfa78(r4)
    52a0:	1c f4 a6 ff 	and	-90(r4),r12	;0xffa6(r4)
    52a4:	1d f4 a8 ff 	and	-88(r4),r13	;0xffa8(r4)
    52a8:	1e f4 aa ff 	and	-86(r4),r14	;0xffaa(r4)
    52ac:	1f f4 ac ff 	and	-84(r4),r15	;0xffac(r4)
    52b0:	18 44 e8 ff 	mov	-24(r4),r8	;0xffe8(r4)
    52b4:	19 44 ea ff 	mov	-22(r4),r9	;0xffea(r4)
    52b8:	1a 44 ec ff 	mov	-20(r4),r10	;0xffec(r4)
    52bc:	1b 44 ee ff 	mov	-18(r4),r11	;0xffee(r4)
    52c0:	08 ec       	xor	r12,	r8	
    52c2:	09 ed       	xor	r13,	r9	
    52c4:	0a ee       	xor	r14,	r10	
    52c6:	0b ef       	xor	r15,	r11	
    52c8:	84 48 e8 ff 	mov	r8,	-24(r4)	;0xffe8(r4)
    52cc:	84 49 ea ff 	mov	r9,	-22(r4)	;0xffea(r4)
    52d0:	84 4a ec ff 	mov	r10,	-20(r4)	;0xffec(r4)
    52d4:	84 4b ee ff 	mov	r11,	-18(r4)	;0xffee(r4)
    52d8:	94 44 62 fa 	mov	-1438(r4),-82(r4)	;0xfa62(r4), 0xffae(r4)
    52dc:	ae ff 
    52de:	94 44 64 fa 	mov	-1436(r4),-80(r4)	;0xfa64(r4), 0xffb0(r4)
    52e2:	b0 ff 
    52e4:	94 44 66 fa 	mov	-1434(r4),-78(r4)	;0xfa66(r4), 0xffb2(r4)
    52e8:	b2 ff 
    52ea:	94 44 68 fa 	mov	-1432(r4),-76(r4)	;0xfa68(r4), 0xffb4(r4)
    52ee:	b4 ff 
    52f0:	1f 44 d6 f9 	mov	-1578(r4),r15	;0xf9d6(r4)
    52f4:	0f 5f       	rla	r15		
    52f6:	0f 5f       	rla	r15		
    52f8:	0f 5f       	rla	r15		
    52fa:	3f 50 d0 6a 	add	#27344,	r15	;#0x6ad0
    52fe:	2c 4f       	mov	@r15,	r12	
    5300:	1d 4f 02 00 	mov	2(r15),	r13	;0x0002(r15)
    5304:	1e 4f 04 00 	mov	4(r15),	r14	;0x0004(r15)
    5308:	1f 4f 06 00 	mov	6(r15),	r15	;0x0006(r15)
    530c:	1c f4 ae ff 	and	-82(r4),r12	;0xffae(r4)
    5310:	1d f4 b0 ff 	and	-80(r4),r13	;0xffb0(r4)
    5314:	1e f4 b2 ff 	and	-78(r4),r14	;0xffb2(r4)
    5318:	1f f4 b4 ff 	and	-76(r4),r15	;0xffb4(r4)
    531c:	18 44 e8 ff 	mov	-24(r4),r8	;0xffe8(r4)
    5320:	19 44 ea ff 	mov	-22(r4),r9	;0xffea(r4)
    5324:	1a 44 ec ff 	mov	-20(r4),r10	;0xffec(r4)
    5328:	1b 44 ee ff 	mov	-18(r4),r11	;0xffee(r4)
    532c:	08 ec       	xor	r12,	r8	
    532e:	09 ed       	xor	r13,	r9	
    5330:	0a ee       	xor	r14,	r10	
    5332:	0b ef       	xor	r15,	r11	
    5334:	84 48 e8 ff 	mov	r8,	-24(r4)	;0xffe8(r4)
    5338:	84 49 ea ff 	mov	r9,	-22(r4)	;0xffea(r4)
    533c:	84 4a ec ff 	mov	r10,	-20(r4)	;0xffec(r4)
    5340:	84 4b ee ff 	mov	r11,	-18(r4)	;0xffee(r4)
    5344:	1e 44 dc f9 	mov	-1572(r4),r14	;0xf9dc(r4)
    5348:	1f 44 d6 f9 	mov	-1578(r4),r15	;0xf9d6(r4)
    534c:	0f 5f       	rla	r15		
    534e:	0f 5f       	rla	r15		
    5350:	0f 5f       	rla	r15		
    5352:	0f 5e       	add	r14,	r15	
    5354:	2c 4f       	mov	@r15,	r12	
    5356:	1d 4f 02 00 	mov	2(r15),	r13	;0x0002(r15)
    535a:	1e 4f 04 00 	mov	4(r15),	r14	;0x0004(r15)
    535e:	1f 4f 06 00 	mov	6(r15),	r15	;0x0006(r15)
    5362:	18 44 e8 ff 	mov	-24(r4),r8	;0xffe8(r4)
    5366:	19 44 ea ff 	mov	-22(r4),r9	;0xffea(r4)
    536a:	1a 44 ec ff 	mov	-20(r4),r10	;0xffec(r4)
    536e:	1b 44 ee ff 	mov	-18(r4),r11	;0xffee(r4)
    5372:	08 ec       	xor	r12,	r8	
    5374:	09 ed       	xor	r13,	r9	
    5376:	0a ee       	xor	r14,	r10	
    5378:	0b ef       	xor	r15,	r11	
    537a:	84 48 0a fa 	mov	r8,	-1526(r4);0xfa0a(r4)
    537e:	84 49 0c fa 	mov	r9,	-1524(r4);0xfa0c(r4)
    5382:	84 4a 0e fa 	mov	r10,	-1522(r4);0xfa0e(r4)
    5386:	84 4b 10 fa 	mov	r11,	-1520(r4);0xfa10(r4)
    fb_2 = L2[Y1_64]   ^ L2[Y2_64]   ^ (L2[Y3_64] & L2[Y4_64])     ^ (L2[Y5_64] & L2[Y6_64])     ^ kb[i];
    538a:	94 44 22 fc 	mov	-990(r4),-24(r4)	;0xfc22(r4), 0xffe8(r4)
    538e:	e8 ff 
    5390:	94 44 24 fc 	mov	-988(r4),-22(r4)	;0xfc24(r4), 0xffea(r4)
    5394:	ea ff 
    5396:	94 44 26 fc 	mov	-986(r4),-20(r4)	;0xfc26(r4), 0xffec(r4)
    539a:	ec ff 
    539c:	94 44 28 fc 	mov	-984(r4),-18(r4)	;0xfc28(r4), 0xffee(r4)
    53a0:	ee ff 
    53a2:	1c 44 ba fb 	mov	-1094(r4),r12	;0xfbba(r4)
    53a6:	1d 44 bc fb 	mov	-1092(r4),r13	;0xfbbc(r4)
    53aa:	1e 44 be fb 	mov	-1090(r4),r14	;0xfbbe(r4)
    53ae:	1f 44 c0 fb 	mov	-1088(r4),r15	;0xfbc0(r4)
    53b2:	18 44 e8 ff 	mov	-24(r4),r8	;0xffe8(r4)
    53b6:	19 44 ea ff 	mov	-22(r4),r9	;0xffea(r4)
    53ba:	1a 44 ec ff 	mov	-20(r4),r10	;0xffec(r4)
    53be:	1b 44 ee ff 	mov	-18(r4),r11	;0xffee(r4)
    53c2:	08 ec       	xor	r12,	r8	
    53c4:	09 ed       	xor	r13,	r9	
    53c6:	0a ee       	xor	r14,	r10	
    53c8:	0b ef       	xor	r15,	r11	
    53ca:	84 48 e8 ff 	mov	r8,	-24(r4)	;0xffe8(r4)
    53ce:	84 49 ea ff 	mov	r9,	-22(r4)	;0xffea(r4)
    53d2:	84 4a ec ff 	mov	r10,	-20(r4)	;0xffec(r4)
    53d6:	84 4b ee ff 	mov	r11,	-18(r4)	;0xffee(r4)
    53da:	94 44 fa fb 	mov	-1030(r4),-74(r4)	;0xfbfa(r4), 0xffb6(r4)
    53de:	b6 ff 
    53e0:	94 44 fc fb 	mov	-1028(r4),-72(r4)	;0xfbfc(r4), 0xffb8(r4)
    53e4:	b8 ff 
    53e6:	94 44 fe fb 	mov	-1026(r4),-70(r4)	;0xfbfe(r4), 0xffba(r4)
    53ea:	ba ff 
    53ec:	94 44 00 fc 	mov	-1024(r4),-68(r4)	;0xfc00(r4), 0xffbc(r4)
    53f0:	bc ff 
    53f2:	1c 44 9a fb 	mov	-1126(r4),r12	;0xfb9a(r4)
    53f6:	1d 44 9c fb 	mov	-1124(r4),r13	;0xfb9c(r4)
    53fa:	1e 44 9e fb 	mov	-1122(r4),r14	;0xfb9e(r4)
    53fe:	1f 44 a0 fb 	mov	-1120(r4),r15	;0xfba0(r4)
    5402:	1c f4 b6 ff 	and	-74(r4),r12	;0xffb6(r4)
    5406:	1d f4 b8 ff 	and	-72(r4),r13	;0xffb8(r4)
    540a:	1e f4 ba ff 	and	-70(r4),r14	;0xffba(r4)
    540e:	1f f4 bc ff 	and	-68(r4),r15	;0xffbc(r4)
    5412:	18 44 e8 ff 	mov	-24(r4),r8	;0xffe8(r4)
    5416:	19 44 ea ff 	mov	-22(r4),r9	;0xffea(r4)
    541a:	1a 44 ec ff 	mov	-20(r4),r10	;0xffec(r4)
    541e:	1b 44 ee ff 	mov	-18(r4),r11	;0xffee(r4)
    5422:	08 ec       	xor	r12,	r8	
    5424:	09 ed       	xor	r13,	r9	
    5426:	0a ee       	xor	r14,	r10	
    5428:	0b ef       	xor	r15,	r11	
    542a:	84 48 e8 ff 	mov	r8,	-24(r4)	;0xffe8(r4)
    542e:	84 49 ea ff 	mov	r9,	-22(r4)	;0xffea(r4)
    5432:	84 4a ec ff 	mov	r10,	-20(r4)	;0xffec(r4)
    5436:	84 4b ee ff 	mov	r11,	-18(r4)	;0xffee(r4)
    543a:	94 44 62 fb 	mov	-1182(r4),-66(r4)	;0xfb62(r4), 0xffbe(r4)
    543e:	be ff 
    5440:	94 44 64 fb 	mov	-1180(r4),-64(r4)	;0xfb64(r4), 0xffc0(r4)
    5444:	c0 ff 
    5446:	94 44 66 fb 	mov	-1178(r4),-62(r4)	;0xfb66(r4), 0xffc2(r4)
    544a:	c2 ff 
    544c:	94 44 68 fb 	mov	-1176(r4),-60(r4)	;0xfb68(r4), 0xffc4(r4)
    5450:	c4 ff 
    5452:	1c 44 3a fb 	mov	-1222(r4),r12	;0xfb3a(r4)
    5456:	1d 44 3c fb 	mov	-1220(r4),r13	;0xfb3c(r4)
    545a:	1e 44 3e fb 	mov	-1218(r4),r14	;0xfb3e(r4)
    545e:	1f 44 40 fb 	mov	-1216(r4),r15	;0xfb40(r4)
    5462:	1c f4 be ff 	and	-66(r4),r12	;0xffbe(r4)
    5466:	1d f4 c0 ff 	and	-64(r4),r13	;0xffc0(r4)
    546a:	1e f4 c2 ff 	and	-62(r4),r14	;0xffc2(r4)
    546e:	1f f4 c4 ff 	and	-60(r4),r15	;0xffc4(r4)
    5472:	18 44 e8 ff 	mov	-24(r4),r8	;0xffe8(r4)
    5476:	19 44 ea ff 	mov	-22(r4),r9	;0xffea(r4)
    547a:	1a 44 ec ff 	mov	-20(r4),r10	;0xffec(r4)
    547e:	1b 44 ee ff 	mov	-18(r4),r11	;0xffee(r4)
    5482:	08 ec       	xor	r12,	r8	
    5484:	09 ed       	xor	r13,	r9	
    5486:	0a ee       	xor	r14,	r10	
    5488:	0b ef       	xor	r15,	r11	
    548a:	84 48 e8 ff 	mov	r8,	-24(r4)	;0xffe8(r4)
    548e:	84 49 ea ff 	mov	r9,	-22(r4)	;0xffea(r4)
    5492:	84 4a ec ff 	mov	r10,	-20(r4)	;0xffec(r4)
    5496:	84 4b ee ff 	mov	r11,	-18(r4)	;0xffee(r4)
    549a:	1e 44 e0 f9 	mov	-1568(r4),r14	;0xf9e0(r4)
    549e:	1f 44 d6 f9 	mov	-1578(r4),r15	;0xf9d6(r4)
    54a2:	0f 5f       	rla	r15		
    54a4:	0f 5f       	rla	r15		
    54a6:	0f 5f       	rla	r15		
    54a8:	0f 5e       	add	r14,	r15	
    54aa:	2c 4f       	mov	@r15,	r12	
    54ac:	1d 4f 02 00 	mov	2(r15),	r13	;0x0002(r15)
    54b0:	1e 4f 04 00 	mov	4(r15),	r14	;0x0004(r15)
    54b4:	1f 4f 06 00 	mov	6(r15),	r15	;0x0006(r15)
    54b8:	18 44 e8 ff 	mov	-24(r4),r8	;0xffe8(r4)
    54bc:	19 44 ea ff 	mov	-22(r4),r9	;0xffea(r4)
    54c0:	1a 44 ec ff 	mov	-20(r4),r10	;0xffec(r4)
    54c4:	1b 44 ee ff 	mov	-18(r4),r11	;0xffee(r4)
    54c8:	08 ec       	xor	r12,	r8	
    54ca:	09 ed       	xor	r13,	r9	
    54cc:	0a ee       	xor	r14,	r10	
    54ce:	0b ef       	xor	r15,	r11	
    54d0:	84 48 12 fa 	mov	r8,	-1518(r4);0xfa12(r4)
    54d4:	84 49 14 fa 	mov	r9,	-1516(r4);0xfa14(r4)
    54d8:	84 4a 16 fa 	mov	r10,	-1514(r4);0xfa16(r4)
    54dc:	84 4b 18 fa 	mov	r11,	-1512(r4);0xfa18(r4)
    fb_1 = L2[Y1_64-1] ^ L2[Y2_64-1] ^ (L2[Y3_64-1] & L2[Y4_64-1]) ^ (L2[Y5_64-1] & L2[Y6_64-1]) ^ kb[i];
    54e0:	94 44 1a fc 	mov	-998(r4),-24(r4)	;0xfc1a(r4), 0xffe8(r4)
    54e4:	e8 ff 
    54e6:	94 44 1c fc 	mov	-996(r4),-22(r4)	;0xfc1c(r4), 0xffea(r4)
    54ea:	ea ff 
    54ec:	94 44 1e fc 	mov	-994(r4),-20(r4)	;0xfc1e(r4), 0xffec(r4)
    54f0:	ec ff 
    54f2:	94 44 20 fc 	mov	-992(r4),-18(r4)	;0xfc20(r4), 0xffee(r4)
    54f6:	ee ff 
    54f8:	1c 44 b2 fb 	mov	-1102(r4),r12	;0xfbb2(r4)
    54fc:	1d 44 b4 fb 	mov	-1100(r4),r13	;0xfbb4(r4)
    5500:	1e 44 b6 fb 	mov	-1098(r4),r14	;0xfbb6(r4)
    5504:	1f 44 b8 fb 	mov	-1096(r4),r15	;0xfbb8(r4)
    5508:	18 44 e8 ff 	mov	-24(r4),r8	;0xffe8(r4)
    550c:	19 44 ea ff 	mov	-22(r4),r9	;0xffea(r4)
    5510:	1a 44 ec ff 	mov	-20(r4),r10	;0xffec(r4)
    5514:	1b 44 ee ff 	mov	-18(r4),r11	;0xffee(r4)
    5518:	08 ec       	xor	r12,	r8	
    551a:	09 ed       	xor	r13,	r9	
    551c:	0a ee       	xor	r14,	r10	
    551e:	0b ef       	xor	r15,	r11	
    5520:	84 48 e8 ff 	mov	r8,	-24(r4)	;0xffe8(r4)
    5524:	84 49 ea ff 	mov	r9,	-22(r4)	;0xffea(r4)
    5528:	84 4a ec ff 	mov	r10,	-20(r4)	;0xffec(r4)
    552c:	84 4b ee ff 	mov	r11,	-18(r4)	;0xffee(r4)
    5530:	94 44 f2 fb 	mov	-1038(r4),-58(r4)	;0xfbf2(r4), 0xffc6(r4)
    5534:	c6 ff 
    5536:	94 44 f4 fb 	mov	-1036(r4),-56(r4)	;0xfbf4(r4), 0xffc8(r4)
    553a:	c8 ff 
    553c:	94 44 f6 fb 	mov	-1034(r4),-54(r4)	;0xfbf6(r4), 0xffca(r4)
    5540:	ca ff 
    5542:	94 44 f8 fb 	mov	-1032(r4),-52(r4)	;0xfbf8(r4), 0xffcc(r4)
    5546:	cc ff 
    5548:	1c 44 92 fb 	mov	-1134(r4),r12	;0xfb92(r4)
    554c:	1d 44 94 fb 	mov	-1132(r4),r13	;0xfb94(r4)
    5550:	1e 44 96 fb 	mov	-1130(r4),r14	;0xfb96(r4)
    5554:	1f 44 98 fb 	mov	-1128(r4),r15	;0xfb98(r4)
    5558:	1c f4 c6 ff 	and	-58(r4),r12	;0xffc6(r4)
    555c:	1d f4 c8 ff 	and	-56(r4),r13	;0xffc8(r4)
    5560:	1e f4 ca ff 	and	-54(r4),r14	;0xffca(r4)
    5564:	1f f4 cc ff 	and	-52(r4),r15	;0xffcc(r4)
    5568:	18 44 e8 ff 	mov	-24(r4),r8	;0xffe8(r4)
    556c:	19 44 ea ff 	mov	-22(r4),r9	;0xffea(r4)
    5570:	1a 44 ec ff 	mov	-20(r4),r10	;0xffec(r4)
    5574:	1b 44 ee ff 	mov	-18(r4),r11	;0xffee(r4)
    5578:	08 ec       	xor	r12,	r8	
    557a:	09 ed       	xor	r13,	r9	
    557c:	0a ee       	xor	r14,	r10	
    557e:	0b ef       	xor	r15,	r11	
    5580:	84 48 e8 ff 	mov	r8,	-24(r4)	;0xffe8(r4)
    5584:	84 49 ea ff 	mov	r9,	-22(r4)	;0xffea(r4)
    5588:	84 4a ec ff 	mov	r10,	-20(r4)	;0xffec(r4)
    558c:	84 4b ee ff 	mov	r11,	-18(r4)	;0xffee(r4)
    5590:	94 44 5a fb 	mov	-1190(r4),-50(r4)	;0xfb5a(r4), 0xffce(r4)
    5594:	ce ff 
    5596:	94 44 5c fb 	mov	-1188(r4),-48(r4)	;0xfb5c(r4), 0xffd0(r4)
    559a:	d0 ff 
    559c:	94 44 5e fb 	mov	-1186(r4),-46(r4)	;0xfb5e(r4), 0xffd2(r4)
    55a0:	d2 ff 
    55a2:	94 44 60 fb 	mov	-1184(r4),-44(r4)	;0xfb60(r4), 0xffd4(r4)
    55a6:	d4 ff 
    55a8:	1c 44 32 fb 	mov	-1230(r4),r12	;0xfb32(r4)
    55ac:	1d 44 34 fb 	mov	-1228(r4),r13	;0xfb34(r4)
    55b0:	1e 44 36 fb 	mov	-1226(r4),r14	;0xfb36(r4)
    55b4:	1f 44 38 fb 	mov	-1224(r4),r15	;0xfb38(r4)
    55b8:	1c f4 ce ff 	and	-50(r4),r12	;0xffce(r4)
    55bc:	1d f4 d0 ff 	and	-48(r4),r13	;0xffd0(r4)
    55c0:	1e f4 d2 ff 	and	-46(r4),r14	;0xffd2(r4)
    55c4:	1f f4 d4 ff 	and	-44(r4),r15	;0xffd4(r4)
    55c8:	18 44 e8 ff 	mov	-24(r4),r8	;0xffe8(r4)
    55cc:	19 44 ea ff 	mov	-22(r4),r9	;0xffea(r4)
    55d0:	1a 44 ec ff 	mov	-20(r4),r10	;0xffec(r4)
    55d4:	1b 44 ee ff 	mov	-18(r4),r11	;0xffee(r4)
    55d8:	08 ec       	xor	r12,	r8	
    55da:	09 ed       	xor	r13,	r9	
    55dc:	0a ee       	xor	r14,	r10	
    55de:	0b ef       	xor	r15,	r11	
    55e0:	84 48 e8 ff 	mov	r8,	-24(r4)	;0xffe8(r4)
    55e4:	84 49 ea ff 	mov	r9,	-22(r4)	;0xffea(r4)
    55e8:	84 4a ec ff 	mov	r10,	-20(r4)	;0xffec(r4)
    55ec:	84 4b ee ff 	mov	r11,	-18(r4)	;0xffee(r4)
    55f0:	1e 44 e0 f9 	mov	-1568(r4),r14	;0xf9e0(r4)
    55f4:	1f 44 d6 f9 	mov	-1578(r4),r15	;0xf9d6(r4)
    55f8:	0f 5f       	rla	r15		
    55fa:	0f 5f       	rla	r15		
    55fc:	0f 5f       	rla	r15		
    55fe:	0f 5e       	add	r14,	r15	
    5600:	2c 4f       	mov	@r15,	r12	
    5602:	1d 4f 02 00 	mov	2(r15),	r13	;0x0002(r15)
    5606:	1e 4f 04 00 	mov	4(r15),	r14	;0x0004(r15)
    560a:	1f 4f 06 00 	mov	6(r15),	r15	;0x0006(r15)
    560e:	18 44 e8 ff 	mov	-24(r4),r8	;0xffe8(r4)
    5612:	19 44 ea ff 	mov	-22(r4),r9	;0xffea(r4)
    5616:	1a 44 ec ff 	mov	-20(r4),r10	;0xffec(r4)
    561a:	1b 44 ee ff 	mov	-18(r4),r11	;0xffee(r4)
    561e:	08 ec       	xor	r12,	r8	
    5620:	09 ed       	xor	r13,	r9	
    5622:	0a ee       	xor	r14,	r10	
    5624:	0b ef       	xor	r15,	r11	
    5626:	84 48 1a fa 	mov	r8,	-1510(r4);0xfa1a(r4)
    562a:	84 49 1c fa 	mov	r9,	-1508(r4);0xfa1c(r4)
    562e:	84 4a 1e fa 	mov	r10,	-1506(r4);0xfa1e(r4)
    5632:	84 4b 20 fa 	mov	r11,	-1504(r4);0xfa20(r4)
    fb_0 = L2[Y1_64-2] ^ L2[Y2_64-2] ^ (L2[Y3_64-2] & L2[Y4_64-2]) ^ (L2[Y5_64-2] & L2[Y6_64-2]) ^ kb[i];
    5636:	94 44 12 fc 	mov	-1006(r4),-24(r4)	;0xfc12(r4), 0xffe8(r4)
    563a:	e8 ff 
    563c:	94 44 14 fc 	mov	-1004(r4),-22(r4)	;0xfc14(r4), 0xffea(r4)
    5640:	ea ff 
    5642:	94 44 16 fc 	mov	-1002(r4),-20(r4)	;0xfc16(r4), 0xffec(r4)
    5646:	ec ff 
    5648:	94 44 18 fc 	mov	-1000(r4),-18(r4)	;0xfc18(r4), 0xffee(r4)
    564c:	ee ff 
    564e:	1c 44 aa fb 	mov	-1110(r4),r12	;0xfbaa(r4)
    5652:	1d 44 ac fb 	mov	-1108(r4),r13	;0xfbac(r4)
    5656:	1e 44 ae fb 	mov	-1106(r4),r14	;0xfbae(r4)
    565a:	1f 44 b0 fb 	mov	-1104(r4),r15	;0xfbb0(r4)
    565e:	18 44 e8 ff 	mov	-24(r4),r8	;0xffe8(r4)
    5662:	19 44 ea ff 	mov	-22(r4),r9	;0xffea(r4)
    5666:	1a 44 ec ff 	mov	-20(r4),r10	;0xffec(r4)
    566a:	1b 44 ee ff 	mov	-18(r4),r11	;0xffee(r4)
    566e:	08 ec       	xor	r12,	r8	
    5670:	09 ed       	xor	r13,	r9	
    5672:	0a ee       	xor	r14,	r10	
    5674:	0b ef       	xor	r15,	r11	
    5676:	84 48 e8 ff 	mov	r8,	-24(r4)	;0xffe8(r4)
    567a:	84 49 ea ff 	mov	r9,	-22(r4)	;0xffea(r4)
    567e:	84 4a ec ff 	mov	r10,	-20(r4)	;0xffec(r4)
    5682:	84 4b ee ff 	mov	r11,	-18(r4)	;0xffee(r4)
    5686:	94 44 ea fb 	mov	-1046(r4),-42(r4)	;0xfbea(r4), 0xffd6(r4)
    568a:	d6 ff 
    568c:	94 44 ec fb 	mov	-1044(r4),-40(r4)	;0xfbec(r4), 0xffd8(r4)
    5690:	d8 ff 
    5692:	94 44 ee fb 	mov	-1042(r4),-38(r4)	;0xfbee(r4), 0xffda(r4)
    5696:	da ff 
    5698:	94 44 f0 fb 	mov	-1040(r4),-36(r4)	;0xfbf0(r4), 0xffdc(r4)
    569c:	dc ff 
    569e:	1c 44 8a fb 	mov	-1142(r4),r12	;0xfb8a(r4)
    56a2:	1d 44 8c fb 	mov	-1140(r4),r13	;0xfb8c(r4)
    56a6:	1e 44 8e fb 	mov	-1138(r4),r14	;0xfb8e(r4)
    56aa:	1f 44 90 fb 	mov	-1136(r4),r15	;0xfb90(r4)
    56ae:	1c f4 d6 ff 	and	-42(r4),r12	;0xffd6(r4)
    56b2:	1d f4 d8 ff 	and	-40(r4),r13	;0xffd8(r4)
    56b6:	1e f4 da ff 	and	-38(r4),r14	;0xffda(r4)
    56ba:	1f f4 dc ff 	and	-36(r4),r15	;0xffdc(r4)
    56be:	18 44 e8 ff 	mov	-24(r4),r8	;0xffe8(r4)
    56c2:	19 44 ea ff 	mov	-22(r4),r9	;0xffea(r4)
    56c6:	1a 44 ec ff 	mov	-20(r4),r10	;0xffec(r4)
    56ca:	1b 44 ee ff 	mov	-18(r4),r11	;0xffee(r4)
    56ce:	08 ec       	xor	r12,	r8	
    56d0:	09 ed       	xor	r13,	r9	
    56d2:	0a ee       	xor	r14,	r10	
    56d4:	0b ef       	xor	r15,	r11	
    56d6:	84 48 e8 ff 	mov	r8,	-24(r4)	;0xffe8(r4)
    56da:	84 49 ea ff 	mov	r9,	-22(r4)	;0xffea(r4)
    56de:	84 4a ec ff 	mov	r10,	-20(r4)	;0xffec(r4)
    56e2:	84 4b ee ff 	mov	r11,	-18(r4)	;0xffee(r4)
    56e6:	94 44 52 fb 	mov	-1198(r4),-34(r4)	;0xfb52(r4), 0xffde(r4)
    56ea:	de ff 
    56ec:	94 44 54 fb 	mov	-1196(r4),-32(r4)	;0xfb54(r4), 0xffe0(r4)
    56f0:	e0 ff 
    56f2:	94 44 56 fb 	mov	-1194(r4),-30(r4)	;0xfb56(r4), 0xffe2(r4)
    56f6:	e2 ff 
    56f8:	94 44 58 fb 	mov	-1192(r4),-28(r4)	;0xfb58(r4), 0xffe4(r4)
    56fc:	e4 ff 
    56fe:	1c 44 2a fb 	mov	-1238(r4),r12	;0xfb2a(r4)
    5702:	1d 44 2c fb 	mov	-1236(r4),r13	;0xfb2c(r4)
    5706:	1e 44 2e fb 	mov	-1234(r4),r14	;0xfb2e(r4)
    570a:	1f 44 30 fb 	mov	-1232(r4),r15	;0xfb30(r4)
    570e:	1c f4 de ff 	and	-34(r4),r12	;0xffde(r4)
    5712:	1d f4 e0 ff 	and	-32(r4),r13	;0xffe0(r4)
    5716:	1e f4 e2 ff 	and	-30(r4),r14	;0xffe2(r4)
    571a:	1f f4 e4 ff 	and	-28(r4),r15	;0xffe4(r4)
    571e:	18 44 e8 ff 	mov	-24(r4),r8	;0xffe8(r4)
    5722:	19 44 ea ff 	mov	-22(r4),r9	;0xffea(r4)
    5726:	1a 44 ec ff 	mov	-20(r4),r10	;0xffec(r4)
    572a:	1b 44 ee ff 	mov	-18(r4),r11	;0xffee(r4)
    572e:	08 ec       	xor	r12,	r8	
    5730:	09 ed       	xor	r13,	r9	
    5732:	0a ee       	xor	r14,	r10	
    5734:	0b ef       	xor	r15,	r11	
    5736:	84 48 e8 ff 	mov	r8,	-24(r4)	;0xffe8(r4)
    573a:	84 49 ea ff 	mov	r9,	-22(r4)	;0xffea(r4)
    573e:	84 4a ec ff 	mov	r10,	-20(r4)	;0xffec(r4)
    5742:	84 4b ee ff 	mov	r11,	-18(r4)	;0xffee(r4)
    5746:	1e 44 e0 f9 	mov	-1568(r4),r14	;0xf9e0(r4)
    574a:	1f 44 d6 f9 	mov	-1578(r4),r15	;0xf9d6(r4)
    574e:	0f 5f       	rla	r15		
    5750:	0f 5f       	rla	r15		
    5752:	0f 5f       	rla	r15		
    5754:	0f 5e       	add	r14,	r15	
    5756:	2c 4f       	mov	@r15,	r12	
    5758:	1d 4f 02 00 	mov	2(r15),	r13	;0x0002(r15)
    575c:	1e 4f 04 00 	mov	4(r15),	r14	;0x0004(r15)
    5760:	1f 4f 06 00 	mov	6(r15),	r15	;0x0006(r15)
    5764:	18 44 e8 ff 	mov	-24(r4),r8	;0xffe8(r4)
    5768:	19 44 ea ff 	mov	-22(r4),r9	;0xffea(r4)
    576c:	1a 44 ec ff 	mov	-20(r4),r10	;0xffec(r4)
    5770:	1b 44 ee ff 	mov	-18(r4),r11	;0xffee(r4)
    5774:	08 ec       	xor	r12,	r8	
    5776:	09 ed       	xor	r13,	r9	
    5778:	0a ee       	xor	r14,	r10	
    577a:	0b ef       	xor	r15,	r11	
    577c:	84 48 22 fa 	mov	r8,	-1502(r4);0xfa22(r4)
    5780:	84 49 24 fa 	mov	r9,	-1500(r4);0xfa24(r4)
    5784:	84 4a 26 fa 	mov	r10,	-1498(r4);0xfa26(r4)
    5788:	84 4b 28 fa 	mov	r11,	-1496(r4);0xfa28(r4)

    for(j=24;j>2;--j)
    578c:	b4 40 18 00 	mov	#24,	-1576(r4);#0x0018, 0xf9d8(r4)
    5790:	d8 f9 
    5792:	29 3c       	jmp	$+84     	;abs 0x57e6
      L1[j] = L1[j-3];
    5794:	1f 44 d8 f9 	mov	-1576(r4),r15	;0xf9d8(r4)
    5798:	3f 50 fd ff 	add	#-3,	r15	;#0xfffd
    579c:	0f 5f       	rla	r15		
    579e:	0f 5f       	rla	r15		
    57a0:	0f 5f       	rla	r15		
    57a2:	39 40 d6 f9 	mov	#-1578,	r9	;#0xf9d6
    57a6:	09 54       	add	r4,	r9	
    57a8:	0f 59       	add	r9,	r15	
    57aa:	3f 50 54 00 	add	#84,	r15	;#0x0054
    57ae:	2c 4f       	mov	@r15,	r12	
    57b0:	1d 4f 02 00 	mov	2(r15),	r13	;0x0002(r15)
    57b4:	1e 4f 04 00 	mov	4(r15),	r14	;0x0004(r15)
    57b8:	1f 4f 06 00 	mov	6(r15),	r15	;0x0006(r15)
    57bc:	1b 44 d8 f9 	mov	-1576(r4),r11	;0xf9d8(r4)
    57c0:	0b 5b       	rla	r11		
    57c2:	0b 5b       	rla	r11		
    57c4:	0b 5b       	rla	r11		
    57c6:	3a 40 d6 f9 	mov	#-1578,	r10	;#0xf9d6
    57ca:	0a 54       	add	r4,	r10	
    57cc:	0b 5a       	add	r10,	r11	
    57ce:	3b 50 54 00 	add	#84,	r11	;#0x0054
    57d2:	8b 4c 00 00 	mov	r12,	0(r11)	;0x0000(r11)
    57d6:	8b 4d 02 00 	mov	r13,	2(r11)	;0x0002(r11)
    57da:	8b 4e 04 00 	mov	r14,	4(r11)	;0x0004(r11)
    57de:	8b 4f 06 00 	mov	r15,	6(r11)	;0x0006(r11)
    fa_0 = L1[X1_64-2] ^ L1[X2_64-2] ^ (L1[X3_64-2] & L1[X4_64-2]) ^ (L1[X5_64-2] & IR[i])       ^ ka[i];
    fb_2 = L2[Y1_64]   ^ L2[Y2_64]   ^ (L2[Y3_64] & L2[Y4_64])     ^ (L2[Y5_64] & L2[Y6_64])     ^ kb[i];
    fb_1 = L2[Y1_64-1] ^ L2[Y2_64-1] ^ (L2[Y3_64-1] & L2[Y4_64-1]) ^ (L2[Y5_64-1] & L2[Y6_64-1]) ^ kb[i];
    fb_0 = L2[Y1_64-2] ^ L2[Y2_64-2] ^ (L2[Y3_64-2] & L2[Y4_64-2]) ^ (L2[Y5_64-2] & L2[Y6_64-2]) ^ kb[i];

    for(j=24;j>2;--j)
    57e2:	b4 53 d8 f9 	add	#-1,	-1576(r4);r3 As==11, 0xf9d8(r4)
    57e6:	b4 90 03 00 	cmp	#3,	-1576(r4);#0x0003, 0xf9d8(r4)
    57ea:	d8 f9 
    57ec:	d3 37       	jge	$-88     	;abs 0x5794
      L1[j] = L1[j-3];
    for(j=38;j>2;--j)
    57ee:	b4 40 26 00 	mov	#38,	-1576(r4);#0x0026, 0xf9d8(r4)
    57f2:	d8 f9 
    57f4:	29 3c       	jmp	$+84     	;abs 0x5848
      L2[j] = L2[j-3];
    57f6:	1f 44 d8 f9 	mov	-1576(r4),r15	;0xf9d8(r4)
    57fa:	3f 50 fd ff 	add	#-3,	r15	;#0xfffd
    57fe:	0f 5f       	rla	r15		
    5800:	0f 5f       	rla	r15		
    5802:	0f 5f       	rla	r15		
    5804:	3b 40 d6 f9 	mov	#-1578,	r11	;#0xf9d6
    5808:	0b 54       	add	r4,	r11	
    580a:	0f 5b       	add	r11,	r15	
    580c:	3f 50 1c 01 	add	#284,	r15	;#0x011c
    5810:	2c 4f       	mov	@r15,	r12	
    5812:	1d 4f 02 00 	mov	2(r15),	r13	;0x0002(r15)
    5816:	1e 4f 04 00 	mov	4(r15),	r14	;0x0004(r15)
    581a:	1f 4f 06 00 	mov	6(r15),	r15	;0x0006(r15)
    581e:	1b 44 d8 f9 	mov	-1576(r4),r11	;0xf9d8(r4)
    5822:	0b 5b       	rla	r11		
    5824:	0b 5b       	rla	r11		
    5826:	0b 5b       	rla	r11		
    5828:	38 40 d6 f9 	mov	#-1578,	r8	;#0xf9d6
    582c:	08 54       	add	r4,	r8	
    582e:	0b 58       	add	r8,	r11	
    5830:	3b 50 1c 01 	add	#284,	r11	;#0x011c
    5834:	8b 4c 00 00 	mov	r12,	0(r11)	;0x0000(r11)
    5838:	8b 4d 02 00 	mov	r13,	2(r11)	;0x0002(r11)
    583c:	8b 4e 04 00 	mov	r14,	4(r11)	;0x0004(r11)
    5840:	8b 4f 06 00 	mov	r15,	6(r11)	;0x0006(r11)
    fb_1 = L2[Y1_64-1] ^ L2[Y2_64-1] ^ (L2[Y3_64-1] & L2[Y4_64-1]) ^ (L2[Y5_64-1] & L2[Y6_64-1]) ^ kb[i];
    fb_0 = L2[Y1_64-2] ^ L2[Y2_64-2] ^ (L2[Y3_64-2] & L2[Y4_64-2]) ^ (L2[Y5_64-2] & L2[Y6_64-2]) ^ kb[i];

    for(j=24;j>2;--j)
      L1[j] = L1[j-3];
    for(j=38;j>2;--j)
    5844:	b4 53 d8 f9 	add	#-1,	-1576(r4);r3 As==11, 0xf9d8(r4)
    5848:	b4 90 03 00 	cmp	#3,	-1576(r4);#0x0003, 0xf9d8(r4)
    584c:	d8 f9 
    584e:	d3 37       	jge	$-88     	;abs 0x57f6
      L2[j] = L2[j-3];
    L1[2] = fb_2;
    5850:	94 44 12 fa 	mov	-1518(r4),-1478(r4);0xfa12(r4), 0xfa3a(r4)
    5854:	3a fa 
    5856:	94 44 14 fa 	mov	-1516(r4),-1476(r4);0xfa14(r4), 0xfa3c(r4)
    585a:	3c fa 
    585c:	94 44 16 fa 	mov	-1514(r4),-1474(r4);0xfa16(r4), 0xfa3e(r4)
    5860:	3e fa 
    5862:	94 44 18 fa 	mov	-1512(r4),-1472(r4);0xfa18(r4), 0xfa40(r4)
    5866:	40 fa 
    L1[1] = fb_1;
    5868:	94 44 1a fa 	mov	-1510(r4),-1486(r4);0xfa1a(r4), 0xfa32(r4)
    586c:	32 fa 
    586e:	94 44 1c fa 	mov	-1508(r4),-1484(r4);0xfa1c(r4), 0xfa34(r4)
    5872:	34 fa 
    5874:	94 44 1e fa 	mov	-1506(r4),-1482(r4);0xfa1e(r4), 0xfa36(r4)
    5878:	36 fa 
    587a:	94 44 20 fa 	mov	-1504(r4),-1480(r4);0xfa20(r4), 0xfa38(r4)
    587e:	38 fa 
    L1[0] = fb_0;
    5880:	94 44 22 fa 	mov	-1502(r4),-1494(r4);0xfa22(r4), 0xfa2a(r4)
    5884:	2a fa 
    5886:	94 44 24 fa 	mov	-1500(r4),-1492(r4);0xfa24(r4), 0xfa2c(r4)
    588a:	2c fa 
    588c:	94 44 26 fa 	mov	-1498(r4),-1490(r4);0xfa26(r4), 0xfa2e(r4)
    5890:	2e fa 
    5892:	94 44 28 fa 	mov	-1496(r4),-1488(r4);0xfa28(r4), 0xfa30(r4)
    5896:	30 fa 
    L2[2] = fa_2;
    5898:	94 44 fa f9 	mov	-1542(r4),-1278(r4);0xf9fa(r4), 0xfb02(r4)
    589c:	02 fb 
    589e:	94 44 fc f9 	mov	-1540(r4),-1276(r4);0xf9fc(r4), 0xfb04(r4)
    58a2:	04 fb 
    58a4:	94 44 fe f9 	mov	-1538(r4),-1274(r4);0xf9fe(r4), 0xfb06(r4)
    58a8:	06 fb 
    58aa:	94 44 00 fa 	mov	-1536(r4),-1272(r4);0xfa00(r4), 0xfb08(r4)
    58ae:	08 fb 
    L2[1] = fa_1;
    58b0:	94 44 02 fa 	mov	-1534(r4),-1286(r4);0xfa02(r4), 0xfafa(r4)
    58b4:	fa fa 
    58b6:	94 44 04 fa 	mov	-1532(r4),-1284(r4);0xfa04(r4), 0xfafc(r4)
    58ba:	fc fa 
    58bc:	94 44 06 fa 	mov	-1530(r4),-1282(r4);0xfa06(r4), 0xfafe(r4)
    58c0:	fe fa 
    58c2:	94 44 08 fa 	mov	-1528(r4),-1280(r4);0xfa08(r4), 0xfb00(r4)
    58c6:	00 fb 
    L2[0] = fa_0;
    58c8:	94 44 0a fa 	mov	-1526(r4),-1294(r4);0xfa0a(r4), 0xfaf2(r4)
    58cc:	f2 fa 
    58ce:	94 44 0c fa 	mov	-1524(r4),-1292(r4);0xfa0c(r4), 0xfaf4(r4)
    58d2:	f4 fa 
    58d4:	94 44 0e fa 	mov	-1522(r4),-1290(r4);0xfa0e(r4), 0xfaf6(r4)
    58d8:	f6 fa 
    58da:	94 44 10 fa 	mov	-1520(r4),-1288(r4);0xfa10(r4), 0xfaf8(r4)
    58de:	f8 fa 
    L1[i] = plain[i+39];

  for(i=0;i<8;++i)
    T[i] = ONES;

  for(i=0;i<rounds;++i) {
    58e0:	94 53 d6 f9 	inc	-1578(r4)	;0xf9d6(r4)
    58e4:	94 94 70 ff 	cmp	-144(r4),-1578(r4);0xff70(r4), 0xf9d6(r4)
    58e8:	d6 f9 
    58ea:	02 34       	jge	$+6      	;abs 0x58f0
    58ec:	30 40 8a 48 	br	#0x488a	
    L2[2] = fa_2;
    L2[1] = fa_1;
    L2[0] = fa_0;
  }

  for(i=0;i<39;++i) 
    58f0:	84 43 d6 f9 	mov	#0,	-1578(r4);r3 As==00, 0xf9d6(r4)
    58f4:	24 3c       	jmp	$+74     	;abs 0x593e
    cipher[i] = L2[i];
    58f6:	1f 44 d6 f9 	mov	-1578(r4),r15	;0xf9d6(r4)
    58fa:	0f 5f       	rla	r15		
    58fc:	0f 5f       	rla	r15		
    58fe:	0f 5f       	rla	r15		
    5900:	1b 44 6c ff 	mov	-148(r4),r11	;0xff6c(r4)
    5904:	0b 5f       	add	r15,	r11	
    5906:	1f 44 d6 f9 	mov	-1578(r4),r15	;0xf9d6(r4)
    590a:	0f 5f       	rla	r15		
    590c:	0f 5f       	rla	r15		
    590e:	0f 5f       	rla	r15		
    5910:	39 40 d6 f9 	mov	#-1578,	r9	;#0xf9d6
    5914:	09 54       	add	r4,	r9	
    5916:	0f 59       	add	r9,	r15	
    5918:	3f 50 1c 01 	add	#284,	r15	;#0x011c
    591c:	2c 4f       	mov	@r15,	r12	
    591e:	1d 4f 02 00 	mov	2(r15),	r13	;0x0002(r15)
    5922:	1e 4f 04 00 	mov	4(r15),	r14	;0x0004(r15)
    5926:	1f 4f 06 00 	mov	6(r15),	r15	;0x0006(r15)
    592a:	8b 4c 00 00 	mov	r12,	0(r11)	;0x0000(r11)
    592e:	8b 4d 02 00 	mov	r13,	2(r11)	;0x0002(r11)
    5932:	8b 4e 04 00 	mov	r14,	4(r11)	;0x0004(r11)
    5936:	8b 4f 06 00 	mov	r15,	6(r11)	;0x0006(r11)
    L2[2] = fa_2;
    L2[1] = fa_1;
    L2[0] = fa_0;
  }

  for(i=0;i<39;++i) 
    593a:	94 53 d6 f9 	inc	-1578(r4)	;0xf9d6(r4)
    593e:	b4 90 27 00 	cmp	#39,	-1578(r4);#0x0027, 0xf9d6(r4)
    5942:	d6 f9 
    5944:	d8 3b       	jl	$-78     	;abs 0x58f6
    cipher[i] = L2[i];
  for(i=0;i<25;++i) 
    5946:	84 43 d6 f9 	mov	#0,	-1578(r4);r3 As==00, 0xf9d6(r4)
    594a:	26 3c       	jmp	$+78     	;abs 0x5998
    cipher[i+39] = L1[i];
    594c:	1f 44 d6 f9 	mov	-1578(r4),r15	;0xf9d6(r4)
    5950:	3f 50 27 00 	add	#39,	r15	;#0x0027
    5954:	0f 5f       	rla	r15		
    5956:	0f 5f       	rla	r15		
    5958:	0f 5f       	rla	r15		
    595a:	1b 44 6c ff 	mov	-148(r4),r11	;0xff6c(r4)
    595e:	0b 5f       	add	r15,	r11	
    5960:	1f 44 d6 f9 	mov	-1578(r4),r15	;0xf9d6(r4)
    5964:	0f 5f       	rla	r15		
    5966:	0f 5f       	rla	r15		
    5968:	0f 5f       	rla	r15		
    596a:	3a 40 d6 f9 	mov	#-1578,	r10	;#0xf9d6
    596e:	0a 54       	add	r4,	r10	
    5970:	0f 5a       	add	r10,	r15	
    5972:	3f 50 54 00 	add	#84,	r15	;#0x0054
    5976:	2c 4f       	mov	@r15,	r12	
    5978:	1d 4f 02 00 	mov	2(r15),	r13	;0x0002(r15)
    597c:	1e 4f 04 00 	mov	4(r15),	r14	;0x0004(r15)
    5980:	1f 4f 06 00 	mov	6(r15),	r15	;0x0006(r15)
    5984:	8b 4c 00 00 	mov	r12,	0(r11)	;0x0000(r11)
    5988:	8b 4d 02 00 	mov	r13,	2(r11)	;0x0002(r11)
    598c:	8b 4e 04 00 	mov	r14,	4(r11)	;0x0004(r11)
    5990:	8b 4f 06 00 	mov	r15,	6(r11)	;0x0006(r11)
    L2[0] = fa_0;
  }

  for(i=0;i<39;++i) 
    cipher[i] = L2[i];
  for(i=0;i<25;++i) 
    5994:	94 53 d6 f9 	inc	-1578(r4)	;0xf9d6(r4)
    5998:	b4 90 19 00 	cmp	#25,	-1578(r4);#0x0019, 0xf9d6(r4)
    599c:	d6 f9 
    599e:	d6 3b       	jl	$-82     	;abs 0x594c
    59a0:	01 45       	mov	r5,	r1	
    cipher[i+39] = L1[i];

}
    59a2:	11 44 e6 ff 	mov	-26(r4),r1	;0xffe6(r4)
    59a6:	31 50 1a 06 	add	#1562,	r1	;#0x061a
    59aa:	34 41       	pop	r4		
    59ac:	35 41       	pop	r5		
    59ae:	36 41       	pop	r6		
    59b0:	37 41       	pop	r7		
    59b2:	38 41       	pop	r8		
    59b4:	39 41       	pop	r9		
    59b6:	3a 41       	pop	r10		
    59b8:	3b 41       	pop	r11		
    59ba:	30 41       	ret			

000059bc <ktantan64_decrypt>:


void ktantan64_decrypt( const u64 cipher[64], u64 plain[64], const u64 key[80], int rounds ) {
    59bc:	0b 12       	push	r11		
    59be:	0a 12       	push	r10		
    59c0:	09 12       	push	r9		
    59c2:	08 12       	push	r8		
    59c4:	07 12       	push	r7		
    59c6:	06 12       	push	r6		
    59c8:	05 12       	push	r5		
    59ca:	04 12       	push	r4		
    59cc:	04 41       	mov	r1,	r4	
    59ce:	34 50 10 00 	add	#16,	r4	;#0x0010
    59d2:	31 50 e6 f9 	add	#-1562,	r1	;#0xf9e6
    59d6:	84 4f 6a ff 	mov	r15,	-150(r4);0xff6a(r4)
    59da:	84 4e 6c ff 	mov	r14,	-148(r4);0xff6c(r4)
    59de:	84 4d 6e ff 	mov	r13,	-146(r4);0xff6e(r4)
    59e2:	84 4c 70 ff 	mov	r12,	-144(r4);0xff70(r4)
  for(i=0;i<39;++i) 
    plain[i] = L2[i];
  for(i=0;i<25;++i) 
    plain[i+39] = L1[i];

}
    59e6:	84 41 e6 ff 	mov	r1,	-26(r4)	;0xffe6(r4)
    cipher[i+39] = L1[i];

}


void ktantan64_decrypt( const u64 cipher[64], u64 plain[64], const u64 key[80], int rounds ) {
    59ea:	0f 41       	mov	r1,	r15	
    59ec:	05 4f       	mov	r15,	r5	

  u64 L1[25], L2[39], fa_2, fa_1, fa_0, fb_2, fb_1, fb_0;
  u64 x16a[16], x16b[16], x16c[16], x16d[16], x16e[16], s16a[4], x4f[4], x4g[4], s4f[2], s4g[2], a0, a4, ka[rounds], kb[rounds], T[8], tmp;
    59ee:	1e 44 70 ff 	mov	-144(r4),r14	;0xff70(r4)
    59f2:	0f 4e       	mov	r14,	r15	
    59f4:	3f 53       	add	#-1,	r15	;r3 As==11
    59f6:	84 4f da f9 	mov	r15,	-1574(r4);0xf9da(r4)
    59fa:	0f 4e       	mov	r14,	r15	
    59fc:	0a 4f       	mov	r15,	r10	
    59fe:	0b 43       	clr	r11		
    5a00:	0f 4e       	mov	r14,	r15	
    5a02:	84 4f 72 ff 	mov	r15,	-142(r4);0xff72(r4)
    5a06:	84 43 74 ff 	mov	#0,	-140(r4);r3 As==00, 0xff74(r4)
    5a0a:	0f 4e       	mov	r14,	r15	
    5a0c:	0f 5f       	rla	r15		
    5a0e:	0f 5f       	rla	r15		
    5a10:	0f 5f       	rla	r15		
    5a12:	1f 53       	inc	r15		
    5a14:	1f 53       	inc	r15		
    5a16:	12 c3       	clrc			
    5a18:	0f 10       	rrc	r15		
    5a1a:	0f 5f       	rla	r15		
    5a1c:	01 8f       	sub	r15,	r1	
    5a1e:	0f 41       	mov	r1,	r15	
    5a20:	1f 53       	inc	r15		
    5a22:	12 c3       	clrc			
    5a24:	0f 10       	rrc	r15		
    5a26:	0f 5f       	rla	r15		
    5a28:	84 4f dc f9 	mov	r15,	-1572(r4);0xf9dc(r4)
    5a2c:	1f 44 70 ff 	mov	-144(r4),r15	;0xff70(r4)
    5a30:	0e 4f       	mov	r15,	r14	
    5a32:	3e 53       	add	#-1,	r14	;r3 As==11
    5a34:	84 4e de f9 	mov	r14,	-1570(r4);0xf9de(r4)
    5a38:	0e 4f       	mov	r15,	r14	
    5a3a:	06 4e       	mov	r14,	r6	
    5a3c:	07 43       	clr	r7		
    5a3e:	0e 4f       	mov	r15,	r14	
    5a40:	08 4e       	mov	r14,	r8	
    5a42:	09 43       	clr	r9		
    5a44:	0f 5f       	rla	r15		
    5a46:	0f 5f       	rla	r15		
    5a48:	0f 5f       	rla	r15		
    5a4a:	1f 53       	inc	r15		
    5a4c:	1f 53       	inc	r15		
    5a4e:	12 c3       	clrc			
    5a50:	0f 10       	rrc	r15		
    5a52:	0f 5f       	rla	r15		
    5a54:	01 8f       	sub	r15,	r1	
    5a56:	0f 41       	mov	r1,	r15	
    5a58:	1f 53       	inc	r15		
    5a5a:	12 c3       	clrc			
    5a5c:	0f 10       	rrc	r15		
    5a5e:	0f 5f       	rla	r15		
    5a60:	84 4f e0 f9 	mov	r15,	-1568(r4);0xf9e0(r4)
  int i,j;

  
  for(i=0;i<39;++i) 
    5a64:	84 43 d6 f9 	mov	#0,	-1578(r4);r3 As==00, 0xf9d6(r4)
    5a68:	23 3c       	jmp	$+72     	;abs 0x5ab0
    L2[i] = cipher[i];
    5a6a:	1f 44 d6 f9 	mov	-1578(r4),r15	;0xf9d6(r4)
    5a6e:	0f 5f       	rla	r15		
    5a70:	0f 5f       	rla	r15		
    5a72:	0f 5f       	rla	r15		
    5a74:	1f 54 6a ff 	add	-150(r4),r15	;0xff6a(r4)
    5a78:	2c 4f       	mov	@r15,	r12	
    5a7a:	1d 4f 02 00 	mov	2(r15),	r13	;0x0002(r15)
    5a7e:	1e 4f 04 00 	mov	4(r15),	r14	;0x0004(r15)
    5a82:	1f 4f 06 00 	mov	6(r15),	r15	;0x0006(r15)
    5a86:	1b 44 d6 f9 	mov	-1578(r4),r11	;0xf9d6(r4)
    5a8a:	0b 5b       	rla	r11		
    5a8c:	0b 5b       	rla	r11		
    5a8e:	0b 5b       	rla	r11		
    5a90:	38 40 d6 f9 	mov	#-1578,	r8	;#0xf9d6
    5a94:	08 54       	add	r4,	r8	
    5a96:	0b 58       	add	r8,	r11	
    5a98:	3b 50 1c 01 	add	#284,	r11	;#0x011c
    5a9c:	8b 4c 00 00 	mov	r12,	0(r11)	;0x0000(r11)
    5aa0:	8b 4d 02 00 	mov	r13,	2(r11)	;0x0002(r11)
    5aa4:	8b 4e 04 00 	mov	r14,	4(r11)	;0x0004(r11)
    5aa8:	8b 4f 06 00 	mov	r15,	6(r11)	;0x0006(r11)
  u64 L1[25], L2[39], fa_2, fa_1, fa_0, fb_2, fb_1, fb_0;
  u64 x16a[16], x16b[16], x16c[16], x16d[16], x16e[16], s16a[4], x4f[4], x4g[4], s4f[2], s4g[2], a0, a4, ka[rounds], kb[rounds], T[8], tmp;
  int i,j;

  
  for(i=0;i<39;++i) 
    5aac:	94 53 d6 f9 	inc	-1578(r4)	;0xf9d6(r4)
    5ab0:	b4 90 27 00 	cmp	#39,	-1578(r4);#0x0027, 0xf9d6(r4)
    5ab4:	d6 f9 
    5ab6:	d9 3b       	jl	$-76     	;abs 0x5a6a
    L2[i] = cipher[i];
  for(i=0;i<25;++i) 
    5ab8:	84 43 d6 f9 	mov	#0,	-1578(r4);r3 As==00, 0xf9d6(r4)
    5abc:	25 3c       	jmp	$+76     	;abs 0x5b08
    L1[i] = cipher[i+39];
    5abe:	1f 44 d6 f9 	mov	-1578(r4),r15	;0xf9d6(r4)
    5ac2:	3f 50 27 00 	add	#39,	r15	;#0x0027
    5ac6:	0f 5f       	rla	r15		
    5ac8:	0f 5f       	rla	r15		
    5aca:	0f 5f       	rla	r15		
    5acc:	1f 54 6a ff 	add	-150(r4),r15	;0xff6a(r4)
    5ad0:	2c 4f       	mov	@r15,	r12	
    5ad2:	1d 4f 02 00 	mov	2(r15),	r13	;0x0002(r15)
    5ad6:	1e 4f 04 00 	mov	4(r15),	r14	;0x0004(r15)
    5ada:	1f 4f 06 00 	mov	6(r15),	r15	;0x0006(r15)
    5ade:	1b 44 d6 f9 	mov	-1578(r4),r11	;0xf9d6(r4)
    5ae2:	0b 5b       	rla	r11		
    5ae4:	0b 5b       	rla	r11		
    5ae6:	0b 5b       	rla	r11		
    5ae8:	39 40 d6 f9 	mov	#-1578,	r9	;#0xf9d6
    5aec:	09 54       	add	r4,	r9	
    5aee:	0b 59       	add	r9,	r11	
    5af0:	3b 50 54 00 	add	#84,	r11	;#0x0054
    5af4:	8b 4c 00 00 	mov	r12,	0(r11)	;0x0000(r11)
    5af8:	8b 4d 02 00 	mov	r13,	2(r11)	;0x0002(r11)
    5afc:	8b 4e 04 00 	mov	r14,	4(r11)	;0x0004(r11)
    5b00:	8b 4f 06 00 	mov	r15,	6(r11)	;0x0006(r11)
  int i,j;

  
  for(i=0;i<39;++i) 
    L2[i] = cipher[i];
  for(i=0;i<25;++i) 
    5b04:	94 53 d6 f9 	inc	-1578(r4)	;0xf9d6(r4)
    5b08:	b4 90 19 00 	cmp	#25,	-1578(r4);#0x0019, 0xf9d6(r4)
    5b0c:	d6 f9 
    5b0e:	d7 3b       	jl	$-80     	;abs 0x5abe
    L1[i] = cipher[i+39];

  for(i=0;i<8;++i)
    5b10:	84 43 d6 f9 	mov	#0,	-1578(r4);r3 As==00, 0xf9d6(r4)
    5b14:	15 3c       	jmp	$+44     	;abs 0x5b40
    T[i] = ONES;
    5b16:	1f 44 d6 f9 	mov	-1578(r4),r15	;0xf9d6(r4)
    5b1a:	0f 5f       	rla	r15		
    5b1c:	0f 5f       	rla	r15		
    5b1e:	0f 5f       	rla	r15		
    5b20:	3a 40 d6 f9 	mov	#-1578,	r10	;#0xf9d6
    5b24:	0a 54       	add	r4,	r10	
    5b26:	0f 5a       	add	r10,	r15	
    5b28:	3f 50 54 05 	add	#1364,	r15	;#0x0554
    5b2c:	bf 43 00 00 	mov	#-1,	0(r15)	;r3 As==11, 0x0000(r15)
    5b30:	bf 43 02 00 	mov	#-1,	2(r15)	;r3 As==11, 0x0002(r15)
    5b34:	bf 43 04 00 	mov	#-1,	4(r15)	;r3 As==11, 0x0004(r15)
    5b38:	bf 43 06 00 	mov	#-1,	6(r15)	;r3 As==11, 0x0006(r15)
  for(i=0;i<39;++i) 
    L2[i] = cipher[i];
  for(i=0;i<25;++i) 
    L1[i] = cipher[i+39];

  for(i=0;i<8;++i)
    5b3c:	94 53 d6 f9 	inc	-1578(r4)	;0xf9d6(r4)
    5b40:	b4 92 d6 f9 	cmp	#8,	-1578(r4);r2 As==11, 0xf9d6(r4)
    5b44:	e8 3b       	jl	$-46     	;abs 0x5b16
    T[i] = ONES;

  for(i=0;i<rounds;++i) {
    5b46:	84 43 d6 f9 	mov	#0,	-1578(r4);r3 As==00, 0xf9d6(r4)
    5b4a:	30 40 2c 62 	br	#0x622c	

    tmp = T[7] ^ T[6] ^ T[4] ^ T[2]; 
    5b4e:	94 44 62 ff 	mov	-158(r4),-24(r4)	;0xff62(r4), 0xffe8(r4)
    5b52:	e8 ff 
    5b54:	94 44 64 ff 	mov	-156(r4),-22(r4)	;0xff64(r4), 0xffea(r4)
    5b58:	ea ff 
    5b5a:	94 44 66 ff 	mov	-154(r4),-20(r4)	;0xff66(r4), 0xffec(r4)
    5b5e:	ec ff 
    5b60:	94 44 68 ff 	mov	-152(r4),-18(r4)	;0xff68(r4), 0xffee(r4)
    5b64:	ee ff 
    5b66:	1c 44 5a ff 	mov	-166(r4),r12	;0xff5a(r4)
    5b6a:	1d 44 5c ff 	mov	-164(r4),r13	;0xff5c(r4)
    5b6e:	1e 44 5e ff 	mov	-162(r4),r14	;0xff5e(r4)
    5b72:	1f 44 60 ff 	mov	-160(r4),r15	;0xff60(r4)
    5b76:	18 44 e8 ff 	mov	-24(r4),r8	;0xffe8(r4)
    5b7a:	19 44 ea ff 	mov	-22(r4),r9	;0xffea(r4)
    5b7e:	1a 44 ec ff 	mov	-20(r4),r10	;0xffec(r4)
    5b82:	1b 44 ee ff 	mov	-18(r4),r11	;0xffee(r4)
    5b86:	08 ec       	xor	r12,	r8	
    5b88:	09 ed       	xor	r13,	r9	
    5b8a:	0a ee       	xor	r14,	r10	
    5b8c:	0b ef       	xor	r15,	r11	
    5b8e:	84 48 e8 ff 	mov	r8,	-24(r4)	;0xffe8(r4)
    5b92:	84 49 ea ff 	mov	r9,	-22(r4)	;0xffea(r4)
    5b96:	84 4a ec ff 	mov	r10,	-20(r4)	;0xffec(r4)
    5b9a:	84 4b ee ff 	mov	r11,	-18(r4)	;0xffee(r4)
    5b9e:	1c 44 4a ff 	mov	-182(r4),r12	;0xff4a(r4)
    5ba2:	1d 44 4c ff 	mov	-180(r4),r13	;0xff4c(r4)
    5ba6:	1e 44 4e ff 	mov	-178(r4),r14	;0xff4e(r4)
    5baa:	1f 44 50 ff 	mov	-176(r4),r15	;0xff50(r4)
    5bae:	18 44 e8 ff 	mov	-24(r4),r8	;0xffe8(r4)
    5bb2:	19 44 ea ff 	mov	-22(r4),r9	;0xffea(r4)
    5bb6:	1a 44 ec ff 	mov	-20(r4),r10	;0xffec(r4)
    5bba:	1b 44 ee ff 	mov	-18(r4),r11	;0xffee(r4)
    5bbe:	08 ec       	xor	r12,	r8	
    5bc0:	09 ed       	xor	r13,	r9	
    5bc2:	0a ee       	xor	r14,	r10	
    5bc4:	0b ef       	xor	r15,	r11	
    5bc6:	84 48 e8 ff 	mov	r8,	-24(r4)	;0xffe8(r4)
    5bca:	84 49 ea ff 	mov	r9,	-22(r4)	;0xffea(r4)
    5bce:	84 4a ec ff 	mov	r10,	-20(r4)	;0xffec(r4)
    5bd2:	84 4b ee ff 	mov	r11,	-18(r4)	;0xffee(r4)
    5bd6:	1c 44 3a ff 	mov	-198(r4),r12	;0xff3a(r4)
    5bda:	1d 44 3c ff 	mov	-196(r4),r13	;0xff3c(r4)
    5bde:	1e 44 3e ff 	mov	-194(r4),r14	;0xff3e(r4)
    5be2:	1f 44 40 ff 	mov	-192(r4),r15	;0xff40(r4)
    5be6:	18 44 e8 ff 	mov	-24(r4),r8	;0xffe8(r4)
    5bea:	19 44 ea ff 	mov	-22(r4),r9	;0xffea(r4)
    5bee:	1a 44 ec ff 	mov	-20(r4),r10	;0xffec(r4)
    5bf2:	1b 44 ee ff 	mov	-18(r4),r11	;0xffee(r4)
    5bf6:	08 ec       	xor	r12,	r8	
    5bf8:	09 ed       	xor	r13,	r9	
    5bfa:	0a ee       	xor	r14,	r10	
    5bfc:	0b ef       	xor	r15,	r11	
    5bfe:	84 48 e2 f9 	mov	r8,	-1566(r4);0xf9e2(r4)
    5c02:	84 49 e4 f9 	mov	r9,	-1564(r4);0xf9e4(r4)
    5c06:	84 4a e6 f9 	mov	r10,	-1562(r4);0xf9e6(r4)
    5c0a:	84 4b e8 f9 	mov	r11,	-1560(r4);0xf9e8(r4)
    for(j=7;j>0;--j)
    5c0e:	b4 40 07 00 	mov	#7,	-1576(r4);#0x0007, 0xf9d8(r4)
    5c12:	d8 f9 
    5c14:	28 3c       	jmp	$+82     	;abs 0x5c66
    T[j] = T[j-1];
    5c16:	1f 44 d8 f9 	mov	-1576(r4),r15	;0xf9d8(r4)
    5c1a:	3f 53       	add	#-1,	r15	;r3 As==11
    5c1c:	0f 5f       	rla	r15		
    5c1e:	0f 5f       	rla	r15		
    5c20:	0f 5f       	rla	r15		
    5c22:	39 40 d6 f9 	mov	#-1578,	r9	;#0xf9d6
    5c26:	09 54       	add	r4,	r9	
    5c28:	0f 59       	add	r9,	r15	
    5c2a:	3f 50 54 05 	add	#1364,	r15	;#0x0554
    5c2e:	2c 4f       	mov	@r15,	r12	
    5c30:	1d 4f 02 00 	mov	2(r15),	r13	;0x0002(r15)
    5c34:	1e 4f 04 00 	mov	4(r15),	r14	;0x0004(r15)
    5c38:	1f 4f 06 00 	mov	6(r15),	r15	;0x0006(r15)
    5c3c:	1b 44 d8 f9 	mov	-1576(r4),r11	;0xf9d8(r4)
    5c40:	0b 5b       	rla	r11		
    5c42:	0b 5b       	rla	r11		
    5c44:	0b 5b       	rla	r11		
    5c46:	3a 40 d6 f9 	mov	#-1578,	r10	;#0xf9d6
    5c4a:	0a 54       	add	r4,	r10	
    5c4c:	0b 5a       	add	r10,	r11	
    5c4e:	3b 50 54 05 	add	#1364,	r11	;#0x0554
    5c52:	8b 4c 00 00 	mov	r12,	0(r11)	;0x0000(r11)
    5c56:	8b 4d 02 00 	mov	r13,	2(r11)	;0x0002(r11)
    5c5a:	8b 4e 04 00 	mov	r14,	4(r11)	;0x0004(r11)
    5c5e:	8b 4f 06 00 	mov	r15,	6(r11)	;0x0006(r11)
    T[i] = ONES;

  for(i=0;i<rounds;++i) {

    tmp = T[7] ^ T[6] ^ T[4] ^ T[2]; 
    for(j=7;j>0;--j)
    5c62:	b4 53 d8 f9 	add	#-1,	-1576(r4);r3 As==11, 0xf9d8(r4)
    5c66:	94 93 d8 f9 	cmp	#1,	-1576(r4);r3 As==01, 0xf9d8(r4)
    5c6a:	d5 37       	jge	$-84     	;abs 0x5c16
    T[j] = T[j-1];
    T[0] = tmp;
    5c6c:	94 44 e2 f9 	mov	-1566(r4),-214(r4);0xf9e2(r4), 0xff2a(r4)
    5c70:	2a ff 
    5c72:	94 44 e4 f9 	mov	-1564(r4),-212(r4);0xf9e4(r4), 0xff2c(r4)
    5c76:	2c ff 
    5c78:	94 44 e6 f9 	mov	-1562(r4),-210(r4);0xf9e6(r4), 0xff2e(r4)
    5c7c:	2e ff 
    5c7e:	94 44 e8 f9 	mov	-1560(r4),-208(r4);0xf9e8(r4), 0xff30(r4)
    5c82:	30 ff 

    for(j=0;j<16;++j)
    5c84:	84 43 d8 f9 	mov	#0,	-1576(r4);r3 As==00, 0xf9d8(r4)
    5c88:	23 3c       	jmp	$+72     	;abs 0x5cd0
      x16a[j] = key[j];
    5c8a:	1f 44 d8 f9 	mov	-1576(r4),r15	;0xf9d8(r4)
    5c8e:	0f 5f       	rla	r15		
    5c90:	0f 5f       	rla	r15		
    5c92:	0f 5f       	rla	r15		
    5c94:	1f 54 6e ff 	add	-146(r4),r15	;0xff6e(r4)
    5c98:	2c 4f       	mov	@r15,	r12	
    5c9a:	1d 4f 02 00 	mov	2(r15),	r13	;0x0002(r15)
    5c9e:	1e 4f 04 00 	mov	4(r15),	r14	;0x0004(r15)
    5ca2:	1f 4f 06 00 	mov	6(r15),	r15	;0x0006(r15)
    5ca6:	1b 44 d8 f9 	mov	-1576(r4),r11	;0xf9d8(r4)
    5caa:	0b 5b       	rla	r11		
    5cac:	0b 5b       	rla	r11		
    5cae:	0b 5b       	rla	r11		
    5cb0:	38 40 d6 f9 	mov	#-1578,	r8	;#0xf9d6
    5cb4:	08 54       	add	r4,	r8	
    5cb6:	0b 58       	add	r8,	r11	
    5cb8:	3b 50 54 02 	add	#596,	r11	;#0x0254
    5cbc:	8b 4c 00 00 	mov	r12,	0(r11)	;0x0000(r11)
    5cc0:	8b 4d 02 00 	mov	r13,	2(r11)	;0x0002(r11)
    5cc4:	8b 4e 04 00 	mov	r14,	4(r11)	;0x0004(r11)
    5cc8:	8b 4f 06 00 	mov	r15,	6(r11)	;0x0006(r11)
    tmp = T[7] ^ T[6] ^ T[4] ^ T[2]; 
    for(j=7;j>0;--j)
    T[j] = T[j-1];
    T[0] = tmp;

    for(j=0;j<16;++j)
    5ccc:	94 53 d8 f9 	inc	-1576(r4)	;0xf9d8(r4)
    5cd0:	b4 90 10 00 	cmp	#16,	-1576(r4);#0x0010, 0xf9d8(r4)
    5cd4:	d8 f9 
    5cd6:	d9 3b       	jl	$-76     	;abs 0x5c8a
      x16a[j] = key[j];
    for(j=0;j<16;++j)
    5cd8:	84 43 d8 f9 	mov	#0,	-1576(r4);r3 As==00, 0xf9d8(r4)
    5cdc:	25 3c       	jmp	$+76     	;abs 0x5d28
      x16b[j] = key[j+16];
    5cde:	1f 44 d8 f9 	mov	-1576(r4),r15	;0xf9d8(r4)
    5ce2:	3f 50 10 00 	add	#16,	r15	;#0x0010
    5ce6:	0f 5f       	rla	r15		
    5ce8:	0f 5f       	rla	r15		
    5cea:	0f 5f       	rla	r15		
    5cec:	1f 54 6e ff 	add	-146(r4),r15	;0xff6e(r4)
    5cf0:	2c 4f       	mov	@r15,	r12	
    5cf2:	1d 4f 02 00 	mov	2(r15),	r13	;0x0002(r15)
    5cf6:	1e 4f 04 00 	mov	4(r15),	r14	;0x0004(r15)
    5cfa:	1f 4f 06 00 	mov	6(r15),	r15	;0x0006(r15)
    5cfe:	1b 44 d8 f9 	mov	-1576(r4),r11	;0xf9d8(r4)
    5d02:	0b 5b       	rla	r11		
    5d04:	0b 5b       	rla	r11		
    5d06:	0b 5b       	rla	r11		
    5d08:	39 40 d6 f9 	mov	#-1578,	r9	;#0xf9d6
    5d0c:	09 54       	add	r4,	r9	
    5d0e:	0b 59       	add	r9,	r11	
    5d10:	3b 50 d4 02 	add	#724,	r11	;#0x02d4
    5d14:	8b 4c 00 00 	mov	r12,	0(r11)	;0x0000(r11)
    5d18:	8b 4d 02 00 	mov	r13,	2(r11)	;0x0002(r11)
    5d1c:	8b 4e 04 00 	mov	r14,	4(r11)	;0x0004(r11)
    5d20:	8b 4f 06 00 	mov	r15,	6(r11)	;0x0006(r11)
    T[j] = T[j-1];
    T[0] = tmp;

    for(j=0;j<16;++j)
      x16a[j] = key[j];
    for(j=0;j<16;++j)
    5d24:	94 53 d8 f9 	inc	-1576(r4)	;0xf9d8(r4)
    5d28:	b4 90 10 00 	cmp	#16,	-1576(r4);#0x0010, 0xf9d8(r4)
    5d2c:	d8 f9 
    5d2e:	d7 3b       	jl	$-80     	;abs 0x5cde
      x16b[j] = key[j+16];
    for(j=0;j<16;++j)
    5d30:	84 43 d8 f9 	mov	#0,	-1576(r4);r3 As==00, 0xf9d8(r4)
    5d34:	25 3c       	jmp	$+76     	;abs 0x5d80
      x16c[j] = key[j+32];
    5d36:	1f 44 d8 f9 	mov	-1576(r4),r15	;0xf9d8(r4)
    5d3a:	3f 50 20 00 	add	#32,	r15	;#0x0020
    5d3e:	0f 5f       	rla	r15		
    5d40:	0f 5f       	rla	r15		
    5d42:	0f 5f       	rla	r15		
    5d44:	1f 54 6e ff 	add	-146(r4),r15	;0xff6e(r4)
    5d48:	2c 4f       	mov	@r15,	r12	
    5d4a:	1d 4f 02 00 	mov	2(r15),	r13	;0x0002(r15)
    5d4e:	1e 4f 04 00 	mov	4(r15),	r14	;0x0004(r15)
    5d52:	1f 4f 06 00 	mov	6(r15),	r15	;0x0006(r15)
    5d56:	1b 44 d8 f9 	mov	-1576(r4),r11	;0xf9d8(r4)
    5d5a:	0b 5b       	rla	r11		
    5d5c:	0b 5b       	rla	r11		
    5d5e:	0b 5b       	rla	r11		
    5d60:	3a 40 d6 f9 	mov	#-1578,	r10	;#0xf9d6
    5d64:	0a 54       	add	r4,	r10	
    5d66:	0b 5a       	add	r10,	r11	
    5d68:	3b 50 54 03 	add	#852,	r11	;#0x0354
    5d6c:	8b 4c 00 00 	mov	r12,	0(r11)	;0x0000(r11)
    5d70:	8b 4d 02 00 	mov	r13,	2(r11)	;0x0002(r11)
    5d74:	8b 4e 04 00 	mov	r14,	4(r11)	;0x0004(r11)
    5d78:	8b 4f 06 00 	mov	r15,	6(r11)	;0x0006(r11)

    for(j=0;j<16;++j)
      x16a[j] = key[j];
    for(j=0;j<16;++j)
      x16b[j] = key[j+16];
    for(j=0;j<16;++j)
    5d7c:	94 53 d8 f9 	inc	-1576(r4)	;0xf9d8(r4)
    5d80:	b4 90 10 00 	cmp	#16,	-1576(r4);#0x0010, 0xf9d8(r4)
    5d84:	d8 f9 
    5d86:	d7 3b       	jl	$-80     	;abs 0x5d36
      x16c[j] = key[j+32];
    for(j=0;j<16;++j)
    5d88:	84 43 d8 f9 	mov	#0,	-1576(r4);r3 As==00, 0xf9d8(r4)
    5d8c:	25 3c       	jmp	$+76     	;abs 0x5dd8
      x16d[j] = key[j+48];
    5d8e:	1f 44 d8 f9 	mov	-1576(r4),r15	;0xf9d8(r4)
    5d92:	3f 50 30 00 	add	#48,	r15	;#0x0030
    5d96:	0f 5f       	rla	r15		
    5d98:	0f 5f       	rla	r15		
    5d9a:	0f 5f       	rla	r15		
    5d9c:	1f 54 6e ff 	add	-146(r4),r15	;0xff6e(r4)
    5da0:	2c 4f       	mov	@r15,	r12	
    5da2:	1d 4f 02 00 	mov	2(r15),	r13	;0x0002(r15)
    5da6:	1e 4f 04 00 	mov	4(r15),	r14	;0x0004(r15)
    5daa:	1f 4f 06 00 	mov	6(r15),	r15	;0x0006(r15)
    5dae:	1b 44 d8 f9 	mov	-1576(r4),r11	;0xf9d8(r4)
    5db2:	0b 5b       	rla	r11		
    5db4:	0b 5b       	rla	r11		
    5db6:	0b 5b       	rla	r11		
    5db8:	38 40 d6 f9 	mov	#-1578,	r8	;#0xf9d6
    5dbc:	08 54       	add	r4,	r8	
    5dbe:	0b 58       	add	r8,	r11	
    5dc0:	3b 50 d4 03 	add	#980,	r11	;#0x03d4
    5dc4:	8b 4c 00 00 	mov	r12,	0(r11)	;0x0000(r11)
    5dc8:	8b 4d 02 00 	mov	r13,	2(r11)	;0x0002(r11)
    5dcc:	8b 4e 04 00 	mov	r14,	4(r11)	;0x0004(r11)
    5dd0:	8b 4f 06 00 	mov	r15,	6(r11)	;0x0006(r11)
      x16a[j] = key[j];
    for(j=0;j<16;++j)
      x16b[j] = key[j+16];
    for(j=0;j<16;++j)
      x16c[j] = key[j+32];
    for(j=0;j<16;++j)
    5dd4:	94 53 d8 f9 	inc	-1576(r4)	;0xf9d8(r4)
    5dd8:	b4 90 10 00 	cmp	#16,	-1576(r4);#0x0010, 0xf9d8(r4)
    5ddc:	d8 f9 
    5dde:	d7 3b       	jl	$-80     	;abs 0x5d8e
      x16d[j] = key[j+48];
    for(j=0;j<16;++j)
    5de0:	84 43 d8 f9 	mov	#0,	-1576(r4);r3 As==00, 0xf9d8(r4)
    5de4:	25 3c       	jmp	$+76     	;abs 0x5e30
      x16e[j] = key[j+64];
    5de6:	1f 44 d8 f9 	mov	-1576(r4),r15	;0xf9d8(r4)
    5dea:	3f 50 40 00 	add	#64,	r15	;#0x0040
    5dee:	0f 5f       	rla	r15		
    5df0:	0f 5f       	rla	r15		
    5df2:	0f 5f       	rla	r15		
    5df4:	1f 54 6e ff 	add	-146(r4),r15	;0xff6e(r4)
    5df8:	2c 4f       	mov	@r15,	r12	
    5dfa:	1d 4f 02 00 	mov	2(r15),	r13	;0x0002(r15)
    5dfe:	1e 4f 04 00 	mov	4(r15),	r14	;0x0004(r15)
    5e02:	1f 4f 06 00 	mov	6(r15),	r15	;0x0006(r15)
    5e06:	1b 44 d8 f9 	mov	-1576(r4),r11	;0xf9d8(r4)
    5e0a:	0b 5b       	rla	r11		
    5e0c:	0b 5b       	rla	r11		
    5e0e:	0b 5b       	rla	r11		
    5e10:	39 40 d6 f9 	mov	#-1578,	r9	;#0xf9d6
    5e14:	09 54       	add	r4,	r9	
    5e16:	0b 59       	add	r9,	r11	
    5e18:	3b 50 54 04 	add	#1108,	r11	;#0x0454
    5e1c:	8b 4c 00 00 	mov	r12,	0(r11)	;0x0000(r11)
    5e20:	8b 4d 02 00 	mov	r13,	2(r11)	;0x0002(r11)
    5e24:	8b 4e 04 00 	mov	r14,	4(r11)	;0x0004(r11)
    5e28:	8b 4f 06 00 	mov	r15,	6(r11)	;0x0006(r11)
      x16b[j] = key[j+16];
    for(j=0;j<16;++j)
      x16c[j] = key[j+32];
    for(j=0;j<16;++j)
      x16d[j] = key[j+48];
    for(j=0;j<16;++j)
    5e2c:	94 53 d8 f9 	inc	-1576(r4)	;0xf9d8(r4)
    5e30:	b4 90 10 00 	cmp	#16,	-1576(r4);#0x0010, 0xf9d8(r4)
    5e34:	d8 f9 
    5e36:	d7 3b       	jl	$-80     	;abs 0x5de6
      x16e[j] = key[j+64];
    
    s16a[0] = T[4];
    5e38:	1c 44 4a ff 	mov	-182(r4),r12	;0xff4a(r4)
    5e3c:	1d 44 4c ff 	mov	-180(r4),r13	;0xff4c(r4)
    5e40:	1e 44 4e ff 	mov	-178(r4),r14	;0xff4e(r4)
    5e44:	1f 44 50 ff 	mov	-176(r4),r15	;0xff50(r4)
    5e48:	84 4c aa fe 	mov	r12,	-342(r4);0xfeaa(r4)
    5e4c:	84 4d ac fe 	mov	r13,	-340(r4);0xfeac(r4)
    5e50:	84 4e ae fe 	mov	r14,	-338(r4);0xfeae(r4)
    5e54:	84 4f b0 fe 	mov	r15,	-336(r4);0xfeb0(r4)
    s16a[1] = T[5];
    5e58:	1c 44 52 ff 	mov	-174(r4),r12	;0xff52(r4)
    5e5c:	1d 44 54 ff 	mov	-172(r4),r13	;0xff54(r4)
    5e60:	1e 44 56 ff 	mov	-170(r4),r14	;0xff56(r4)
    5e64:	1f 44 58 ff 	mov	-168(r4),r15	;0xff58(r4)
    5e68:	84 4c b2 fe 	mov	r12,	-334(r4);0xfeb2(r4)
    5e6c:	84 4d b4 fe 	mov	r13,	-332(r4);0xfeb4(r4)
    5e70:	84 4e b6 fe 	mov	r14,	-330(r4);0xfeb6(r4)
    5e74:	84 4f b8 fe 	mov	r15,	-328(r4);0xfeb8(r4)
    s16a[2] = T[6];
    5e78:	1c 44 5a ff 	mov	-166(r4),r12	;0xff5a(r4)
    5e7c:	1d 44 5c ff 	mov	-164(r4),r13	;0xff5c(r4)
    5e80:	1e 44 5e ff 	mov	-162(r4),r14	;0xff5e(r4)
    5e84:	1f 44 60 ff 	mov	-160(r4),r15	;0xff60(r4)
    5e88:	84 4c ba fe 	mov	r12,	-326(r4);0xfeba(r4)
    5e8c:	84 4d bc fe 	mov	r13,	-324(r4);0xfebc(r4)
    5e90:	84 4e be fe 	mov	r14,	-322(r4);0xfebe(r4)
    5e94:	84 4f c0 fe 	mov	r15,	-320(r4);0xfec0(r4)
    s16a[3] = T[7];
    5e98:	1c 44 62 ff 	mov	-158(r4),r12	;0xff62(r4)
    5e9c:	1d 44 64 ff 	mov	-156(r4),r13	;0xff64(r4)
    5ea0:	1e 44 66 ff 	mov	-154(r4),r14	;0xff66(r4)
    5ea4:	1f 44 68 ff 	mov	-152(r4),r15	;0xff68(r4)
    5ea8:	84 4c c2 fe 	mov	r12,	-318(r4);0xfec2(r4)
    5eac:	84 4d c4 fe 	mov	r13,	-316(r4);0xfec4(r4)
    5eb0:	84 4e c6 fe 	mov	r14,	-314(r4);0xfec6(r4)
    5eb4:	84 4f c8 fe 	mov	r15,	-312(r4);0xfec8(r4)

    x4f[3] = mux16_1(x16e, s16a);
    5eb8:	0e 44       	mov	r4,	r14	
    5eba:	3e 50 aa fe 	add	#-342,	r14	;#0xfeaa
    5ebe:	0f 44       	mov	r4,	r15	
    5ec0:	3f 50 2a fe 	add	#-470,	r15	;#0xfe2a
    5ec4:	b0 12 22 43 	call	#0x4322	
    5ec8:	84 4c e2 fe 	mov	r12,	-286(r4);0xfee2(r4)
    5ecc:	84 4d e4 fe 	mov	r13,	-284(r4);0xfee4(r4)
    5ed0:	84 4e e6 fe 	mov	r14,	-282(r4);0xfee6(r4)
    5ed4:	84 4f e8 fe 	mov	r15,	-280(r4);0xfee8(r4)
    x4f[2] = mux16_1(x16d, s16a);
    5ed8:	0e 44       	mov	r4,	r14	
    5eda:	3e 50 aa fe 	add	#-342,	r14	;#0xfeaa
    5ede:	0f 44       	mov	r4,	r15	
    5ee0:	3f 50 aa fd 	add	#-598,	r15	;#0xfdaa
    5ee4:	b0 12 22 43 	call	#0x4322	
    5ee8:	84 4c da fe 	mov	r12,	-294(r4);0xfeda(r4)
    5eec:	84 4d dc fe 	mov	r13,	-292(r4);0xfedc(r4)
    5ef0:	84 4e de fe 	mov	r14,	-290(r4);0xfede(r4)
    5ef4:	84 4f e0 fe 	mov	r15,	-288(r4);0xfee0(r4)
    x4f[1] = mux16_1(x16c, s16a);
    5ef8:	0e 44       	mov	r4,	r14	
    5efa:	3e 50 aa fe 	add	#-342,	r14	;#0xfeaa
    5efe:	0f 44       	mov	r4,	r15	
    5f00:	3f 50 2a fd 	add	#-726,	r15	;#0xfd2a
    5f04:	b0 12 22 43 	call	#0x4322	
    5f08:	84 4c d2 fe 	mov	r12,	-302(r4);0xfed2(r4)
    5f0c:	84 4d d4 fe 	mov	r13,	-300(r4);0xfed4(r4)
    5f10:	84 4e d6 fe 	mov	r14,	-298(r4);0xfed6(r4)
    5f14:	84 4f d8 fe 	mov	r15,	-296(r4);0xfed8(r4)
    x4f[0] = mux16_1(x16b, s16a);
    5f18:	0e 44       	mov	r4,	r14	
    5f1a:	3e 50 aa fe 	add	#-342,	r14	;#0xfeaa
    5f1e:	0f 44       	mov	r4,	r15	
    5f20:	3f 50 aa fc 	add	#-854,	r15	;#0xfcaa
    5f24:	b0 12 22 43 	call	#0x4322	
    5f28:	84 4c ca fe 	mov	r12,	-310(r4);0xfeca(r4)
    5f2c:	84 4d cc fe 	mov	r13,	-308(r4);0xfecc(r4)
    5f30:	84 4e ce fe 	mov	r14,	-306(r4);0xfece(r4)
    5f34:	84 4f d0 fe 	mov	r15,	-304(r4);0xfed0(r4)
 
    x4g[3] = mux16_1(x16d, s16a);
    5f38:	0e 44       	mov	r4,	r14	
    5f3a:	3e 50 aa fe 	add	#-342,	r14	;#0xfeaa
    5f3e:	0f 44       	mov	r4,	r15	
    5f40:	3f 50 aa fd 	add	#-598,	r15	;#0xfdaa
    5f44:	b0 12 22 43 	call	#0x4322	
    5f48:	84 4c 02 ff 	mov	r12,	-254(r4);0xff02(r4)
    5f4c:	84 4d 04 ff 	mov	r13,	-252(r4);0xff04(r4)
    5f50:	84 4e 06 ff 	mov	r14,	-250(r4);0xff06(r4)
    5f54:	84 4f 08 ff 	mov	r15,	-248(r4);0xff08(r4)
    x4g[2] = mux16_1(x16c, s16a);
    5f58:	0e 44       	mov	r4,	r14	
    5f5a:	3e 50 aa fe 	add	#-342,	r14	;#0xfeaa
    5f5e:	0f 44       	mov	r4,	r15	
    5f60:	3f 50 2a fd 	add	#-726,	r15	;#0xfd2a
    5f64:	b0 12 22 43 	call	#0x4322	
    5f68:	84 4c fa fe 	mov	r12,	-262(r4);0xfefa(r4)
    5f6c:	84 4d fc fe 	mov	r13,	-260(r4);0xfefc(r4)
    5f70:	84 4e fe fe 	mov	r14,	-258(r4);0xfefe(r4)
    5f74:	84 4f 00 ff 	mov	r15,	-256(r4);0xff00(r4)
    x4g[1] = mux16_1(x16b, s16a);
    5f78:	0e 44       	mov	r4,	r14	
    5f7a:	3e 50 aa fe 	add	#-342,	r14	;#0xfeaa
    5f7e:	0f 44       	mov	r4,	r15	
    5f80:	3f 50 aa fc 	add	#-854,	r15	;#0xfcaa
    5f84:	b0 12 22 43 	call	#0x4322	
    5f88:	84 4c f2 fe 	mov	r12,	-270(r4);0xfef2(r4)
    5f8c:	84 4d f4 fe 	mov	r13,	-268(r4);0xfef4(r4)
    5f90:	84 4e f6 fe 	mov	r14,	-266(r4);0xfef6(r4)
    5f94:	84 4f f8 fe 	mov	r15,	-264(r4);0xfef8(r4)
    x4g[0] = mux16_1(x16a, s16a);
    5f98:	0e 44       	mov	r4,	r14	
    5f9a:	3e 50 aa fe 	add	#-342,	r14	;#0xfeaa
    5f9e:	0f 44       	mov	r4,	r15	
    5fa0:	3f 50 2a fc 	add	#-982,	r15	;#0xfc2a
    5fa4:	b0 12 22 43 	call	#0x4322	
    5fa8:	84 4c ea fe 	mov	r12,	-278(r4);0xfeea(r4)
    5fac:	84 4d ec fe 	mov	r13,	-276(r4);0xfeec(r4)
    5fb0:	84 4e ee fe 	mov	r14,	-274(r4);0xfeee(r4)
    5fb4:	84 4f f0 fe 	mov	r15,	-272(r4);0xfef0(r4)
   
    s4f[0] = T[0];
    5fb8:	1c 44 2a ff 	mov	-214(r4),r12	;0xff2a(r4)
    5fbc:	1d 44 2c ff 	mov	-212(r4),r13	;0xff2c(r4)
    5fc0:	1e 44 2e ff 	mov	-210(r4),r14	;0xff2e(r4)
    5fc4:	1f 44 30 ff 	mov	-208(r4),r15	;0xff30(r4)
    5fc8:	84 4c 0a ff 	mov	r12,	-246(r4);0xff0a(r4)
    5fcc:	84 4d 0c ff 	mov	r13,	-244(r4);0xff0c(r4)
    5fd0:	84 4e 0e ff 	mov	r14,	-242(r4);0xff0e(r4)
    5fd4:	84 4f 10 ff 	mov	r15,	-240(r4);0xff10(r4)
    s4f[1] = T[1];
    5fd8:	1c 44 32 ff 	mov	-206(r4),r12	;0xff32(r4)
    5fdc:	1d 44 34 ff 	mov	-204(r4),r13	;0xff34(r4)
    5fe0:	1e 44 36 ff 	mov	-202(r4),r14	;0xff36(r4)
    5fe4:	1f 44 38 ff 	mov	-200(r4),r15	;0xff38(r4)
    5fe8:	84 4c 12 ff 	mov	r12,	-238(r4);0xff12(r4)
    5fec:	84 4d 14 ff 	mov	r13,	-236(r4);0xff14(r4)
    5ff0:	84 4e 16 ff 	mov	r14,	-234(r4);0xff16(r4)
    5ff4:	84 4f 18 ff 	mov	r15,	-232(r4);0xff18(r4)
    s4g[0] = ~T[0];
    5ff8:	1c 44 2a ff 	mov	-214(r4),r12	;0xff2a(r4)
    5ffc:	1d 44 2c ff 	mov	-212(r4),r13	;0xff2c(r4)
    6000:	1e 44 2e ff 	mov	-210(r4),r14	;0xff2e(r4)
    6004:	1f 44 30 ff 	mov	-208(r4),r15	;0xff30(r4)
    6008:	3c e3       	inv	r12		
    600a:	3d e3       	inv	r13		
    600c:	3e e3       	inv	r14		
    600e:	3f e3       	inv	r15		
    6010:	84 4c 1a ff 	mov	r12,	-230(r4);0xff1a(r4)
    6014:	84 4d 1c ff 	mov	r13,	-228(r4);0xff1c(r4)
    6018:	84 4e 1e ff 	mov	r14,	-226(r4);0xff1e(r4)
    601c:	84 4f 20 ff 	mov	r15,	-224(r4);0xff20(r4)
    s4g[1] = ~T[1];
    6020:	1c 44 32 ff 	mov	-206(r4),r12	;0xff32(r4)
    6024:	1d 44 34 ff 	mov	-204(r4),r13	;0xff34(r4)
    6028:	1e 44 36 ff 	mov	-202(r4),r14	;0xff36(r4)
    602c:	1f 44 38 ff 	mov	-200(r4),r15	;0xff38(r4)
    6030:	3c e3       	inv	r12		
    6032:	3d e3       	inv	r13		
    6034:	3e e3       	inv	r14		
    6036:	3f e3       	inv	r15		
    6038:	84 4c 22 ff 	mov	r12,	-222(r4);0xff22(r4)
    603c:	84 4d 24 ff 	mov	r13,	-220(r4);0xff24(r4)
    6040:	84 4e 26 ff 	mov	r14,	-218(r4);0xff26(r4)
    6044:	84 4f 28 ff 	mov	r15,	-216(r4);0xff28(r4)
		     
    a0 = mux16_1(x16a, s16a);
    6048:	0e 44       	mov	r4,	r14	
    604a:	3e 50 aa fe 	add	#-342,	r14	;#0xfeaa
    604e:	0f 44       	mov	r4,	r15	
    6050:	3f 50 2a fc 	add	#-982,	r15	;#0xfc2a
    6054:	b0 12 22 43 	call	#0x4322	
    6058:	84 4c ea f9 	mov	r12,	-1558(r4);0xf9ea(r4)
    605c:	84 4d ec f9 	mov	r13,	-1556(r4);0xf9ec(r4)
    6060:	84 4e ee f9 	mov	r14,	-1554(r4);0xf9ee(r4)
    6064:	84 4f f0 f9 	mov	r15,	-1552(r4);0xf9f0(r4)
    a4 = mux16_1(x16e, s16a);
    6068:	0e 44       	mov	r4,	r14	
    606a:	3e 50 aa fe 	add	#-342,	r14	;#0xfeaa
    606e:	0f 44       	mov	r4,	r15	
    6070:	3f 50 2a fe 	add	#-470,	r15	;#0xfe2a
    6074:	b0 12 22 43 	call	#0x4322	
    6078:	84 4c f2 f9 	mov	r12,	-1550(r4);0xf9f2(r4)
    607c:	84 4d f4 f9 	mov	r13,	-1548(r4);0xf9f4(r4)
    6080:	84 4e f6 f9 	mov	r14,	-1546(r4);0xf9f6(r4)
    6084:	84 4f f8 f9 	mov	r15,	-1544(r4);0xf9f8(r4)

    ka[i] = (~T[3] & ~T[2] & a0) ^ ((T[3] |  T[2]) & mux4_1(x4f, s4f));
    6088:	18 44 42 ff 	mov	-190(r4),r8	;0xff42(r4)
    608c:	19 44 44 ff 	mov	-188(r4),r9	;0xff44(r4)
    6090:	1a 44 46 ff 	mov	-186(r4),r10	;0xff46(r4)
    6094:	1b 44 48 ff 	mov	-184(r4),r11	;0xff48(r4)
    6098:	1c 44 3a ff 	mov	-198(r4),r12	;0xff3a(r4)
    609c:	1d 44 3c ff 	mov	-196(r4),r13	;0xff3c(r4)
    60a0:	1e 44 3e ff 	mov	-194(r4),r14	;0xff3e(r4)
    60a4:	1f 44 40 ff 	mov	-192(r4),r15	;0xff40(r4)
    60a8:	0c d8       	bis	r8,	r12	
    60aa:	0d d9       	bis	r9,	r13	
    60ac:	0e da       	bis	r10,	r14	
    60ae:	0f db       	bis	r11,	r15	
    60b0:	3c e3       	inv	r12		
    60b2:	3d e3       	inv	r13		
    60b4:	3e e3       	inv	r14		
    60b6:	3f e3       	inv	r15		
    60b8:	08 4c       	mov	r12,	r8	
    60ba:	09 4d       	mov	r13,	r9	
    60bc:	0a 4e       	mov	r14,	r10	
    60be:	0b 4f       	mov	r15,	r11	
    60c0:	18 f4 ea f9 	and	-1558(r4),r8	;0xf9ea(r4)
    60c4:	19 f4 ec f9 	and	-1556(r4),r9	;0xf9ec(r4)
    60c8:	1a f4 ee f9 	and	-1554(r4),r10	;0xf9ee(r4)
    60cc:	1b f4 f0 f9 	and	-1552(r4),r11	;0xf9f0(r4)
    60d0:	84 48 76 ff 	mov	r8,	-138(r4);0xff76(r4)
    60d4:	84 49 78 ff 	mov	r9,	-136(r4);0xff78(r4)
    60d8:	84 4a 7a ff 	mov	r10,	-134(r4);0xff7a(r4)
    60dc:	84 4b 7c ff 	mov	r11,	-132(r4);0xff7c(r4)
    60e0:	18 44 42 ff 	mov	-190(r4),r8	;0xff42(r4)
    60e4:	19 44 44 ff 	mov	-188(r4),r9	;0xff44(r4)
    60e8:	1a 44 46 ff 	mov	-186(r4),r10	;0xff46(r4)
    60ec:	1b 44 48 ff 	mov	-184(r4),r11	;0xff48(r4)
    60f0:	1c 44 3a ff 	mov	-198(r4),r12	;0xff3a(r4)
    60f4:	1d 44 3c ff 	mov	-196(r4),r13	;0xff3c(r4)
    60f8:	1e 44 3e ff 	mov	-194(r4),r14	;0xff3e(r4)
    60fc:	1f 44 40 ff 	mov	-192(r4),r15	;0xff40(r4)
    6100:	08 dc       	bis	r12,	r8	
    6102:	09 dd       	bis	r13,	r9	
    6104:	0a de       	bis	r14,	r10	
    6106:	0b df       	bis	r15,	r11	
    6108:	0f 44       	mov	r4,	r15	
    610a:	3f 50 0a ff 	add	#-246,	r15	;#0xff0a
    610e:	0d 44       	mov	r4,	r13	
    6110:	3d 50 ca fe 	add	#-310,	r13	;#0xfeca
    6114:	0e 4f       	mov	r15,	r14	
    6116:	0f 4d       	mov	r13,	r15	
    6118:	b0 12 04 41 	call	#0x4104	
    611c:	0c f8       	and	r8,	r12	
    611e:	0d f9       	and	r9,	r13	
    6120:	0e fa       	and	r10,	r14	
    6122:	0f fb       	and	r11,	r15	
    6124:	1c e4 76 ff 	xor	-138(r4),r12	;0xff76(r4)
    6128:	1d e4 78 ff 	xor	-136(r4),r13	;0xff78(r4)
    612c:	1e e4 7a ff 	xor	-134(r4),r14	;0xff7a(r4)
    6130:	1f e4 7c ff 	xor	-132(r4),r15	;0xff7c(r4)
    6134:	1a 44 dc f9 	mov	-1572(r4),r10	;0xf9dc(r4)
    6138:	1b 44 d6 f9 	mov	-1578(r4),r11	;0xf9d6(r4)
    613c:	0b 5b       	rla	r11		
    613e:	0b 5b       	rla	r11		
    6140:	0b 5b       	rla	r11		
    6142:	0b 5a       	add	r10,	r11	
    6144:	8b 4c 00 00 	mov	r12,	0(r11)	;0x0000(r11)
    6148:	8b 4d 02 00 	mov	r13,	2(r11)	;0x0002(r11)
    614c:	8b 4e 04 00 	mov	r14,	4(r11)	;0x0004(r11)
    6150:	8b 4f 06 00 	mov	r15,	6(r11)	;0x0006(r11)
    kb[i] = (~T[3] &  T[2] & a4) ^ ((T[3] | ~T[2]) & mux4_1(x4g, s4g));
    6154:	1c 44 42 ff 	mov	-190(r4),r12	;0xff42(r4)
    6158:	1d 44 44 ff 	mov	-188(r4),r13	;0xff44(r4)
    615c:	1e 44 46 ff 	mov	-186(r4),r14	;0xff46(r4)
    6160:	1f 44 48 ff 	mov	-184(r4),r15	;0xff48(r4)
    6164:	3c e3       	inv	r12		
    6166:	3d e3       	inv	r13		
    6168:	3e e3       	inv	r14		
    616a:	3f e3       	inv	r15		
    616c:	18 44 3a ff 	mov	-198(r4),r8	;0xff3a(r4)
    6170:	19 44 3c ff 	mov	-196(r4),r9	;0xff3c(r4)
    6174:	1a 44 3e ff 	mov	-194(r4),r10	;0xff3e(r4)
    6178:	1b 44 40 ff 	mov	-192(r4),r11	;0xff40(r4)
    617c:	0c f8       	and	r8,	r12	
    617e:	0d f9       	and	r9,	r13	
    6180:	0e fa       	and	r10,	r14	
    6182:	0f fb       	and	r11,	r15	
    6184:	08 4c       	mov	r12,	r8	
    6186:	09 4d       	mov	r13,	r9	
    6188:	0a 4e       	mov	r14,	r10	
    618a:	0b 4f       	mov	r15,	r11	
    618c:	18 f4 f2 f9 	and	-1550(r4),r8	;0xf9f2(r4)
    6190:	19 f4 f4 f9 	and	-1548(r4),r9	;0xf9f4(r4)
    6194:	1a f4 f6 f9 	and	-1546(r4),r10	;0xf9f6(r4)
    6198:	1b f4 f8 f9 	and	-1544(r4),r11	;0xf9f8(r4)
    619c:	84 48 7e ff 	mov	r8,	-130(r4);0xff7e(r4)
    61a0:	84 49 80 ff 	mov	r9,	-128(r4);0xff80(r4)
    61a4:	84 4a 82 ff 	mov	r10,	-126(r4);0xff82(r4)
    61a8:	84 4b 84 ff 	mov	r11,	-124(r4);0xff84(r4)
    61ac:	18 44 42 ff 	mov	-190(r4),r8	;0xff42(r4)
    61b0:	19 44 44 ff 	mov	-188(r4),r9	;0xff44(r4)
    61b4:	1a 44 46 ff 	mov	-186(r4),r10	;0xff46(r4)
    61b8:	1b 44 48 ff 	mov	-184(r4),r11	;0xff48(r4)
    61bc:	1c 44 3a ff 	mov	-198(r4),r12	;0xff3a(r4)
    61c0:	1d 44 3c ff 	mov	-196(r4),r13	;0xff3c(r4)
    61c4:	1e 44 3e ff 	mov	-194(r4),r14	;0xff3e(r4)
    61c8:	1f 44 40 ff 	mov	-192(r4),r15	;0xff40(r4)
    61cc:	3c e3       	inv	r12		
    61ce:	3d e3       	inv	r13		
    61d0:	3e e3       	inv	r14		
    61d2:	3f e3       	inv	r15		
    61d4:	08 dc       	bis	r12,	r8	
    61d6:	09 dd       	bis	r13,	r9	
    61d8:	0a de       	bis	r14,	r10	
    61da:	0b df       	bis	r15,	r11	
    61dc:	0f 44       	mov	r4,	r15	
    61de:	3f 50 1a ff 	add	#-230,	r15	;#0xff1a
    61e2:	0d 44       	mov	r4,	r13	
    61e4:	3d 50 ea fe 	add	#-278,	r13	;#0xfeea
    61e8:	0e 4f       	mov	r15,	r14	
    61ea:	0f 4d       	mov	r13,	r15	
    61ec:	b0 12 04 41 	call	#0x4104	
    61f0:	0c f8       	and	r8,	r12	
    61f2:	0d f9       	and	r9,	r13	
    61f4:	0e fa       	and	r10,	r14	
    61f6:	0f fb       	and	r11,	r15	
    61f8:	1c e4 7e ff 	xor	-130(r4),r12	;0xff7e(r4)
    61fc:	1d e4 80 ff 	xor	-128(r4),r13	;0xff80(r4)
    6200:	1e e4 82 ff 	xor	-126(r4),r14	;0xff82(r4)
    6204:	1f e4 84 ff 	xor	-124(r4),r15	;0xff84(r4)
    6208:	1a 44 e0 f9 	mov	-1568(r4),r10	;0xf9e0(r4)
    620c:	1b 44 d6 f9 	mov	-1578(r4),r11	;0xf9d6(r4)
    6210:	0b 5b       	rla	r11		
    6212:	0b 5b       	rla	r11		
    6214:	0b 5b       	rla	r11		
    6216:	0b 5a       	add	r10,	r11	
    6218:	8b 4c 00 00 	mov	r12,	0(r11)	;0x0000(r11)
    621c:	8b 4d 02 00 	mov	r13,	2(r11)	;0x0002(r11)
    6220:	8b 4e 04 00 	mov	r14,	4(r11)	;0x0004(r11)
    6224:	8b 4f 06 00 	mov	r15,	6(r11)	;0x0006(r11)
    L1[i] = cipher[i+39];

  for(i=0;i<8;++i)
    T[i] = ONES;

  for(i=0;i<rounds;++i) {
    6228:	94 53 d6 f9 	inc	-1578(r4)	;0xf9d6(r4)
    622c:	94 94 70 ff 	cmp	-144(r4),-1578(r4);0xff70(r4), 0xf9d6(r4)
    6230:	d6 f9 
    6232:	02 34       	jge	$+6      	;abs 0x6238
    6234:	30 40 4e 5b 	br	#0x5b4e	

    ka[i] = (~T[3] & ~T[2] & a0) ^ ((T[3] |  T[2]) & mux4_1(x4f, s4f));
    kb[i] = (~T[3] &  T[2] & a4) ^ ((T[3] | ~T[2]) & mux4_1(x4g, s4g));
  }

  for(i=rounds-1;i>=0;--i) {
    6238:	19 44 70 ff 	mov	-144(r4),r9	;0xff70(r4)
    623c:	39 53       	add	#-1,	r9	;r3 As==11
    623e:	84 49 d6 f9 	mov	r9,	-1578(r4);0xf9d6(r4)
    6242:	30 40 f2 68 	br	#0x68f2	

    fb_2 = L1[2];    
    6246:	94 44 3a fa 	mov	-1478(r4),-1542(r4);0xfa3a(r4), 0xf9fa(r4)
    624a:	fa f9 
    624c:	94 44 3c fa 	mov	-1476(r4),-1540(r4);0xfa3c(r4), 0xf9fc(r4)
    6250:	fc f9 
    6252:	94 44 3e fa 	mov	-1474(r4),-1538(r4);0xfa3e(r4), 0xf9fe(r4)
    6256:	fe f9 
    6258:	94 44 40 fa 	mov	-1472(r4),-1536(r4);0xfa40(r4), 0xfa00(r4)
    625c:	00 fa 
    fb_1 = L1[1];    
    625e:	94 44 32 fa 	mov	-1486(r4),-1534(r4);0xfa32(r4), 0xfa02(r4)
    6262:	02 fa 
    6264:	94 44 34 fa 	mov	-1484(r4),-1532(r4);0xfa34(r4), 0xfa04(r4)
    6268:	04 fa 
    626a:	94 44 36 fa 	mov	-1482(r4),-1530(r4);0xfa36(r4), 0xfa06(r4)
    626e:	06 fa 
    6270:	94 44 38 fa 	mov	-1480(r4),-1528(r4);0xfa38(r4), 0xfa08(r4)
    6274:	08 fa 
    fb_0 = L1[0];    
    6276:	94 44 2a fa 	mov	-1494(r4),-1526(r4);0xfa2a(r4), 0xfa0a(r4)
    627a:	0a fa 
    627c:	94 44 2c fa 	mov	-1492(r4),-1524(r4);0xfa2c(r4), 0xfa0c(r4)
    6280:	0c fa 
    6282:	94 44 2e fa 	mov	-1490(r4),-1522(r4);0xfa2e(r4), 0xfa0e(r4)
    6286:	0e fa 
    6288:	94 44 30 fa 	mov	-1488(r4),-1520(r4);0xfa30(r4), 0xfa10(r4)
    628c:	10 fa 
    fa_2 = L2[2];
    628e:	94 44 02 fb 	mov	-1278(r4),-1518(r4);0xfb02(r4), 0xfa12(r4)
    6292:	12 fa 
    6294:	94 44 04 fb 	mov	-1276(r4),-1516(r4);0xfb04(r4), 0xfa14(r4)
    6298:	14 fa 
    629a:	94 44 06 fb 	mov	-1274(r4),-1514(r4);0xfb06(r4), 0xfa16(r4)
    629e:	16 fa 
    62a0:	94 44 08 fb 	mov	-1272(r4),-1512(r4);0xfb08(r4), 0xfa18(r4)
    62a4:	18 fa 
    fa_1 = L2[1];
    62a6:	94 44 fa fa 	mov	-1286(r4),-1510(r4);0xfafa(r4), 0xfa1a(r4)
    62aa:	1a fa 
    62ac:	94 44 fc fa 	mov	-1284(r4),-1508(r4);0xfafc(r4), 0xfa1c(r4)
    62b0:	1c fa 
    62b2:	94 44 fe fa 	mov	-1282(r4),-1506(r4);0xfafe(r4), 0xfa1e(r4)
    62b6:	1e fa 
    62b8:	94 44 00 fb 	mov	-1280(r4),-1504(r4);0xfb00(r4), 0xfa20(r4)
    62bc:	20 fa 
    fa_0 = L2[0];
    62be:	94 44 f2 fa 	mov	-1294(r4),-1502(r4);0xfaf2(r4), 0xfa22(r4)
    62c2:	22 fa 
    62c4:	94 44 f4 fa 	mov	-1292(r4),-1500(r4);0xfaf4(r4), 0xfa24(r4)
    62c8:	24 fa 
    62ca:	94 44 f6 fa 	mov	-1290(r4),-1498(r4);0xfaf6(r4), 0xfa26(r4)
    62ce:	26 fa 
    62d0:	94 44 f8 fa 	mov	-1288(r4),-1496(r4);0xfaf8(r4), 0xfa28(r4)
    62d4:	28 fa 
    for(j=0;j<22;++j)
    62d6:	84 43 d8 f9 	mov	#0,	-1576(r4);r3 As==00, 0xf9d8(r4)
    62da:	29 3c       	jmp	$+84     	;abs 0x632e
      L1[j] = L1[j+3];
    62dc:	1f 44 d8 f9 	mov	-1576(r4),r15	;0xf9d8(r4)
    62e0:	3f 50 03 00 	add	#3,	r15	;#0x0003
    62e4:	0f 5f       	rla	r15		
    62e6:	0f 5f       	rla	r15		
    62e8:	0f 5f       	rla	r15		
    62ea:	3a 40 d6 f9 	mov	#-1578,	r10	;#0xf9d6
    62ee:	0a 54       	add	r4,	r10	
    62f0:	0f 5a       	add	r10,	r15	
    62f2:	3f 50 54 00 	add	#84,	r15	;#0x0054
    62f6:	2c 4f       	mov	@r15,	r12	
    62f8:	1d 4f 02 00 	mov	2(r15),	r13	;0x0002(r15)
    62fc:	1e 4f 04 00 	mov	4(r15),	r14	;0x0004(r15)
    6300:	1f 4f 06 00 	mov	6(r15),	r15	;0x0006(r15)
    6304:	1b 44 d8 f9 	mov	-1576(r4),r11	;0xf9d8(r4)
    6308:	0b 5b       	rla	r11		
    630a:	0b 5b       	rla	r11		
    630c:	0b 5b       	rla	r11		
    630e:	38 40 d6 f9 	mov	#-1578,	r8	;#0xf9d6
    6312:	08 54       	add	r4,	r8	
    6314:	0b 58       	add	r8,	r11	
    6316:	3b 50 54 00 	add	#84,	r11	;#0x0054
    631a:	8b 4c 00 00 	mov	r12,	0(r11)	;0x0000(r11)
    631e:	8b 4d 02 00 	mov	r13,	2(r11)	;0x0002(r11)
    6322:	8b 4e 04 00 	mov	r14,	4(r11)	;0x0004(r11)
    6326:	8b 4f 06 00 	mov	r15,	6(r11)	;0x0006(r11)
    fb_1 = L1[1];    
    fb_0 = L1[0];    
    fa_2 = L2[2];
    fa_1 = L2[1];
    fa_0 = L2[0];
    for(j=0;j<22;++j)
    632a:	94 53 d8 f9 	inc	-1576(r4)	;0xf9d8(r4)
    632e:	b4 90 16 00 	cmp	#22,	-1576(r4);#0x0016, 0xf9d8(r4)
    6332:	d8 f9 
    6334:	d3 3b       	jl	$-88     	;abs 0x62dc
      L1[j] = L1[j+3];
    for(j=0;j<36;++j)
    6336:	84 43 d8 f9 	mov	#0,	-1576(r4);r3 As==00, 0xf9d8(r4)
    633a:	29 3c       	jmp	$+84     	;abs 0x638e
      L2[j] = L2[j+3];
    633c:	1f 44 d8 f9 	mov	-1576(r4),r15	;0xf9d8(r4)
    6340:	3f 50 03 00 	add	#3,	r15	;#0x0003
    6344:	0f 5f       	rla	r15		
    6346:	0f 5f       	rla	r15		
    6348:	0f 5f       	rla	r15		
    634a:	39 40 d6 f9 	mov	#-1578,	r9	;#0xf9d6
    634e:	09 54       	add	r4,	r9	
    6350:	0f 59       	add	r9,	r15	
    6352:	3f 50 1c 01 	add	#284,	r15	;#0x011c
    6356:	2c 4f       	mov	@r15,	r12	
    6358:	1d 4f 02 00 	mov	2(r15),	r13	;0x0002(r15)
    635c:	1e 4f 04 00 	mov	4(r15),	r14	;0x0004(r15)
    6360:	1f 4f 06 00 	mov	6(r15),	r15	;0x0006(r15)
    6364:	1b 44 d8 f9 	mov	-1576(r4),r11	;0xf9d8(r4)
    6368:	0b 5b       	rla	r11		
    636a:	0b 5b       	rla	r11		
    636c:	0b 5b       	rla	r11		
    636e:	3a 40 d6 f9 	mov	#-1578,	r10	;#0xf9d6
    6372:	0a 54       	add	r4,	r10	
    6374:	0b 5a       	add	r10,	r11	
    6376:	3b 50 1c 01 	add	#284,	r11	;#0x011c
    637a:	8b 4c 00 00 	mov	r12,	0(r11)	;0x0000(r11)
    637e:	8b 4d 02 00 	mov	r13,	2(r11)	;0x0002(r11)
    6382:	8b 4e 04 00 	mov	r14,	4(r11)	;0x0004(r11)
    6386:	8b 4f 06 00 	mov	r15,	6(r11)	;0x0006(r11)
    fa_2 = L2[2];
    fa_1 = L2[1];
    fa_0 = L2[0];
    for(j=0;j<22;++j)
      L1[j] = L1[j+3];
    for(j=0;j<36;++j)
    638a:	94 53 d8 f9 	inc	-1576(r4)	;0xf9d8(r4)
    638e:	b4 90 24 00 	cmp	#36,	-1576(r4);#0x0024, 0xf9d8(r4)
    6392:	d8 f9 
    6394:	d3 3b       	jl	$-88     	;abs 0x633c
      L2[j] = L2[j+3];

    L1[X1_64]   = fa_2 ^ L1[X2_64]   ^ (L1[X3_64] & L1[X4_64])     ^ (L1[X5_64] & IR[i])         ^ ka[i];
    6396:	1c 44 a2 fa 	mov	-1374(r4),r12	;0xfaa2(r4)
    639a:	1d 44 a4 fa 	mov	-1372(r4),r13	;0xfaa4(r4)
    639e:	1e 44 a6 fa 	mov	-1370(r4),r14	;0xfaa6(r4)
    63a2:	1f 44 a8 fa 	mov	-1368(r4),r15	;0xfaa8(r4)
    63a6:	08 4c       	mov	r12,	r8	
    63a8:	09 4d       	mov	r13,	r9	
    63aa:	0a 4e       	mov	r14,	r10	
    63ac:	0b 4f       	mov	r15,	r11	
    63ae:	18 e4 12 fa 	xor	-1518(r4),r8	;0xfa12(r4)
    63b2:	19 e4 14 fa 	xor	-1516(r4),r9	;0xfa14(r4)
    63b6:	1a e4 16 fa 	xor	-1514(r4),r10	;0xfa16(r4)
    63ba:	1b e4 18 fa 	xor	-1512(r4),r11	;0xfa18(r4)
    63be:	94 44 ca fa 	mov	-1334(r4),-122(r4);0xfaca(r4), 0xff86(r4)
    63c2:	86 ff 
    63c4:	94 44 cc fa 	mov	-1332(r4),-120(r4);0xfacc(r4), 0xff88(r4)
    63c8:	88 ff 
    63ca:	94 44 ce fa 	mov	-1330(r4),-118(r4);0xface(r4), 0xff8a(r4)
    63ce:	8a ff 
    63d0:	94 44 d0 fa 	mov	-1328(r4),-116(r4);0xfad0(r4), 0xff8c(r4)
    63d4:	8c ff 
    63d6:	1c 44 82 fa 	mov	-1406(r4),r12	;0xfa82(r4)
    63da:	1d 44 84 fa 	mov	-1404(r4),r13	;0xfa84(r4)
    63de:	1e 44 86 fa 	mov	-1402(r4),r14	;0xfa86(r4)
    63e2:	1f 44 88 fa 	mov	-1400(r4),r15	;0xfa88(r4)
    63e6:	1c f4 86 ff 	and	-122(r4),r12	;0xff86(r4)
    63ea:	1d f4 88 ff 	and	-120(r4),r13	;0xff88(r4)
    63ee:	1e f4 8a ff 	and	-118(r4),r14	;0xff8a(r4)
    63f2:	1f f4 8c ff 	and	-116(r4),r15	;0xff8c(r4)
    63f6:	08 ec       	xor	r12,	r8	
    63f8:	09 ed       	xor	r13,	r9	
    63fa:	0a ee       	xor	r14,	r10	
    63fc:	0b ef       	xor	r15,	r11	
    63fe:	94 44 72 fa 	mov	-1422(r4),-114(r4);0xfa72(r4), 0xff8e(r4)
    6402:	8e ff 
    6404:	94 44 74 fa 	mov	-1420(r4),-112(r4);0xfa74(r4), 0xff90(r4)
    6408:	90 ff 
    640a:	94 44 76 fa 	mov	-1418(r4),-110(r4);0xfa76(r4), 0xff92(r4)
    640e:	92 ff 
    6410:	94 44 78 fa 	mov	-1416(r4),-108(r4);0xfa78(r4), 0xff94(r4)
    6414:	94 ff 
    6416:	1f 44 d6 f9 	mov	-1578(r4),r15	;0xf9d6(r4)
    641a:	0f 5f       	rla	r15		
    641c:	0f 5f       	rla	r15		
    641e:	0f 5f       	rla	r15		
    6420:	3f 50 d0 6a 	add	#27344,	r15	;#0x6ad0
    6424:	2c 4f       	mov	@r15,	r12	
    6426:	1d 4f 02 00 	mov	2(r15),	r13	;0x0002(r15)
    642a:	1e 4f 04 00 	mov	4(r15),	r14	;0x0004(r15)
    642e:	1f 4f 06 00 	mov	6(r15),	r15	;0x0006(r15)
    6432:	1c f4 8e ff 	and	-114(r4),r12	;0xff8e(r4)
    6436:	1d f4 90 ff 	and	-112(r4),r13	;0xff90(r4)
    643a:	1e f4 92 ff 	and	-110(r4),r14	;0xff92(r4)
    643e:	1f f4 94 ff 	and	-108(r4),r15	;0xff94(r4)
    6442:	08 ec       	xor	r12,	r8	
    6444:	09 ed       	xor	r13,	r9	
    6446:	0a ee       	xor	r14,	r10	
    6448:	0b ef       	xor	r15,	r11	
    644a:	1e 44 dc f9 	mov	-1572(r4),r14	;0xf9dc(r4)
    644e:	1f 44 d6 f9 	mov	-1578(r4),r15	;0xf9d6(r4)
    6452:	0f 5f       	rla	r15		
    6454:	0f 5f       	rla	r15		
    6456:	0f 5f       	rla	r15		
    6458:	0f 5e       	add	r14,	r15	
    645a:	2c 4f       	mov	@r15,	r12	
    645c:	1d 4f 02 00 	mov	2(r15),	r13	;0x0002(r15)
    6460:	1e 4f 04 00 	mov	4(r15),	r14	;0x0004(r15)
    6464:	1f 4f 06 00 	mov	6(r15),	r15	;0x0006(r15)
    6468:	0c e8       	xor	r8,	r12	
    646a:	0d e9       	xor	r9,	r13	
    646c:	0e ea       	xor	r10,	r14	
    646e:	0f eb       	xor	r11,	r15	
    6470:	84 4c ea fa 	mov	r12,	-1302(r4);0xfaea(r4)
    6474:	84 4d ec fa 	mov	r13,	-1300(r4);0xfaec(r4)
    6478:	84 4e ee fa 	mov	r14,	-1298(r4);0xfaee(r4)
    647c:	84 4f f0 fa 	mov	r15,	-1296(r4);0xfaf0(r4)
    L1[X1_64-1] = fa_1 ^ L1[X2_64-1] ^ (L1[X3_64-1] & L1[X4_64-1]) ^ (L1[X5_64-1] & IR[i])       ^ ka[i];
    6480:	1c 44 9a fa 	mov	-1382(r4),r12	;0xfa9a(r4)
    6484:	1d 44 9c fa 	mov	-1380(r4),r13	;0xfa9c(r4)
    6488:	1e 44 9e fa 	mov	-1378(r4),r14	;0xfa9e(r4)
    648c:	1f 44 a0 fa 	mov	-1376(r4),r15	;0xfaa0(r4)
    6490:	08 4c       	mov	r12,	r8	
    6492:	09 4d       	mov	r13,	r9	
    6494:	0a 4e       	mov	r14,	r10	
    6496:	0b 4f       	mov	r15,	r11	
    6498:	18 e4 1a fa 	xor	-1510(r4),r8	;0xfa1a(r4)
    649c:	19 e4 1c fa 	xor	-1508(r4),r9	;0xfa1c(r4)
    64a0:	1a e4 1e fa 	xor	-1506(r4),r10	;0xfa1e(r4)
    64a4:	1b e4 20 fa 	xor	-1504(r4),r11	;0xfa20(r4)
    64a8:	94 44 c2 fa 	mov	-1342(r4),-106(r4);0xfac2(r4), 0xff96(r4)
    64ac:	96 ff 
    64ae:	94 44 c4 fa 	mov	-1340(r4),-104(r4);0xfac4(r4), 0xff98(r4)
    64b2:	98 ff 
    64b4:	94 44 c6 fa 	mov	-1338(r4),-102(r4);0xfac6(r4), 0xff9a(r4)
    64b8:	9a ff 
    64ba:	94 44 c8 fa 	mov	-1336(r4),-100(r4);0xfac8(r4), 0xff9c(r4)
    64be:	9c ff 
    64c0:	1c 44 7a fa 	mov	-1414(r4),r12	;0xfa7a(r4)
    64c4:	1d 44 7c fa 	mov	-1412(r4),r13	;0xfa7c(r4)
    64c8:	1e 44 7e fa 	mov	-1410(r4),r14	;0xfa7e(r4)
    64cc:	1f 44 80 fa 	mov	-1408(r4),r15	;0xfa80(r4)
    64d0:	1c f4 96 ff 	and	-106(r4),r12	;0xff96(r4)
    64d4:	1d f4 98 ff 	and	-104(r4),r13	;0xff98(r4)
    64d8:	1e f4 9a ff 	and	-102(r4),r14	;0xff9a(r4)
    64dc:	1f f4 9c ff 	and	-100(r4),r15	;0xff9c(r4)
    64e0:	08 ec       	xor	r12,	r8	
    64e2:	09 ed       	xor	r13,	r9	
    64e4:	0a ee       	xor	r14,	r10	
    64e6:	0b ef       	xor	r15,	r11	
    64e8:	94 44 6a fa 	mov	-1430(r4),-98(r4)	;0xfa6a(r4), 0xff9e(r4)
    64ec:	9e ff 
    64ee:	94 44 6c fa 	mov	-1428(r4),-96(r4)	;0xfa6c(r4), 0xffa0(r4)
    64f2:	a0 ff 
    64f4:	94 44 6e fa 	mov	-1426(r4),-94(r4)	;0xfa6e(r4), 0xffa2(r4)
    64f8:	a2 ff 
    64fa:	94 44 70 fa 	mov	-1424(r4),-92(r4)	;0xfa70(r4), 0xffa4(r4)
    64fe:	a4 ff 
    6500:	1f 44 d6 f9 	mov	-1578(r4),r15	;0xf9d6(r4)
    6504:	0f 5f       	rla	r15		
    6506:	0f 5f       	rla	r15		
    6508:	0f 5f       	rla	r15		
    650a:	3f 50 d0 6a 	add	#27344,	r15	;#0x6ad0
    650e:	2c 4f       	mov	@r15,	r12	
    6510:	1d 4f 02 00 	mov	2(r15),	r13	;0x0002(r15)
    6514:	1e 4f 04 00 	mov	4(r15),	r14	;0x0004(r15)
    6518:	1f 4f 06 00 	mov	6(r15),	r15	;0x0006(r15)
    651c:	1c f4 9e ff 	and	-98(r4),r12	;0xff9e(r4)
    6520:	1d f4 a0 ff 	and	-96(r4),r13	;0xffa0(r4)
    6524:	1e f4 a2 ff 	and	-94(r4),r14	;0xffa2(r4)
    6528:	1f f4 a4 ff 	and	-92(r4),r15	;0xffa4(r4)
    652c:	08 ec       	xor	r12,	r8	
    652e:	09 ed       	xor	r13,	r9	
    6530:	0a ee       	xor	r14,	r10	
    6532:	0b ef       	xor	r15,	r11	
    6534:	1e 44 dc f9 	mov	-1572(r4),r14	;0xf9dc(r4)
    6538:	1f 44 d6 f9 	mov	-1578(r4),r15	;0xf9d6(r4)
    653c:	0f 5f       	rla	r15		
    653e:	0f 5f       	rla	r15		
    6540:	0f 5f       	rla	r15		
    6542:	0f 5e       	add	r14,	r15	
    6544:	2c 4f       	mov	@r15,	r12	
    6546:	1d 4f 02 00 	mov	2(r15),	r13	;0x0002(r15)
    654a:	1e 4f 04 00 	mov	4(r15),	r14	;0x0004(r15)
    654e:	1f 4f 06 00 	mov	6(r15),	r15	;0x0006(r15)
    6552:	0c e8       	xor	r8,	r12	
    6554:	0d e9       	xor	r9,	r13	
    6556:	0e ea       	xor	r10,	r14	
    6558:	0f eb       	xor	r11,	r15	
    655a:	84 4c e2 fa 	mov	r12,	-1310(r4);0xfae2(r4)
    655e:	84 4d e4 fa 	mov	r13,	-1308(r4);0xfae4(r4)
    6562:	84 4e e6 fa 	mov	r14,	-1306(r4);0xfae6(r4)
    6566:	84 4f e8 fa 	mov	r15,	-1304(r4);0xfae8(r4)
    L1[X1_64-2] = fa_0 ^ L1[X2_64-2] ^ (L1[X3_64-2] & L1[X4_64-2]) ^ (L1[X5_64-2] & IR[i])       ^ ka[i];
    656a:	1c 44 92 fa 	mov	-1390(r4),r12	;0xfa92(r4)
    656e:	1d 44 94 fa 	mov	-1388(r4),r13	;0xfa94(r4)
    6572:	1e 44 96 fa 	mov	-1386(r4),r14	;0xfa96(r4)
    6576:	1f 44 98 fa 	mov	-1384(r4),r15	;0xfa98(r4)
    657a:	08 4c       	mov	r12,	r8	
    657c:	09 4d       	mov	r13,	r9	
    657e:	0a 4e       	mov	r14,	r10	
    6580:	0b 4f       	mov	r15,	r11	
    6582:	18 e4 22 fa 	xor	-1502(r4),r8	;0xfa22(r4)
    6586:	19 e4 24 fa 	xor	-1500(r4),r9	;0xfa24(r4)
    658a:	1a e4 26 fa 	xor	-1498(r4),r10	;0xfa26(r4)
    658e:	1b e4 28 fa 	xor	-1496(r4),r11	;0xfa28(r4)
    6592:	94 44 ba fa 	mov	-1350(r4),-90(r4)	;0xfaba(r4), 0xffa6(r4)
    6596:	a6 ff 
    6598:	94 44 bc fa 	mov	-1348(r4),-88(r4)	;0xfabc(r4), 0xffa8(r4)
    659c:	a8 ff 
    659e:	94 44 be fa 	mov	-1346(r4),-86(r4)	;0xfabe(r4), 0xffaa(r4)
    65a2:	aa ff 
    65a4:	94 44 c0 fa 	mov	-1344(r4),-84(r4)	;0xfac0(r4), 0xffac(r4)
    65a8:	ac ff 
    65aa:	1c 44 72 fa 	mov	-1422(r4),r12	;0xfa72(r4)
    65ae:	1d 44 74 fa 	mov	-1420(r4),r13	;0xfa74(r4)
    65b2:	1e 44 76 fa 	mov	-1418(r4),r14	;0xfa76(r4)
    65b6:	1f 44 78 fa 	mov	-1416(r4),r15	;0xfa78(r4)
    65ba:	1c f4 a6 ff 	and	-90(r4),r12	;0xffa6(r4)
    65be:	1d f4 a8 ff 	and	-88(r4),r13	;0xffa8(r4)
    65c2:	1e f4 aa ff 	and	-86(r4),r14	;0xffaa(r4)
    65c6:	1f f4 ac ff 	and	-84(r4),r15	;0xffac(r4)
    65ca:	08 ec       	xor	r12,	r8	
    65cc:	09 ed       	xor	r13,	r9	
    65ce:	0a ee       	xor	r14,	r10	
    65d0:	0b ef       	xor	r15,	r11	
    65d2:	94 44 62 fa 	mov	-1438(r4),-82(r4)	;0xfa62(r4), 0xffae(r4)
    65d6:	ae ff 
    65d8:	94 44 64 fa 	mov	-1436(r4),-80(r4)	;0xfa64(r4), 0xffb0(r4)
    65dc:	b0 ff 
    65de:	94 44 66 fa 	mov	-1434(r4),-78(r4)	;0xfa66(r4), 0xffb2(r4)
    65e2:	b2 ff 
    65e4:	94 44 68 fa 	mov	-1432(r4),-76(r4)	;0xfa68(r4), 0xffb4(r4)
    65e8:	b4 ff 
    65ea:	1f 44 d6 f9 	mov	-1578(r4),r15	;0xf9d6(r4)
    65ee:	0f 5f       	rla	r15		
    65f0:	0f 5f       	rla	r15		
    65f2:	0f 5f       	rla	r15		
    65f4:	3f 50 d0 6a 	add	#27344,	r15	;#0x6ad0
    65f8:	2c 4f       	mov	@r15,	r12	
    65fa:	1d 4f 02 00 	mov	2(r15),	r13	;0x0002(r15)
    65fe:	1e 4f 04 00 	mov	4(r15),	r14	;0x0004(r15)
    6602:	1f 4f 06 00 	mov	6(r15),	r15	;0x0006(r15)
    6606:	1c f4 ae ff 	and	-82(r4),r12	;0xffae(r4)
    660a:	1d f4 b0 ff 	and	-80(r4),r13	;0xffb0(r4)
    660e:	1e f4 b2 ff 	and	-78(r4),r14	;0xffb2(r4)
    6612:	1f f4 b4 ff 	and	-76(r4),r15	;0xffb4(r4)
    6616:	08 ec       	xor	r12,	r8	
    6618:	09 ed       	xor	r13,	r9	
    661a:	0a ee       	xor	r14,	r10	
    661c:	0b ef       	xor	r15,	r11	
    661e:	1e 44 dc f9 	mov	-1572(r4),r14	;0xf9dc(r4)
    6622:	1f 44 d6 f9 	mov	-1578(r4),r15	;0xf9d6(r4)
    6626:	0f 5f       	rla	r15		
    6628:	0f 5f       	rla	r15		
    662a:	0f 5f       	rla	r15		
    662c:	0f 5e       	add	r14,	r15	
    662e:	2c 4f       	mov	@r15,	r12	
    6630:	1d 4f 02 00 	mov	2(r15),	r13	;0x0002(r15)
    6634:	1e 4f 04 00 	mov	4(r15),	r14	;0x0004(r15)
    6638:	1f 4f 06 00 	mov	6(r15),	r15	;0x0006(r15)
    663c:	0c e8       	xor	r8,	r12	
    663e:	0d e9       	xor	r9,	r13	
    6640:	0e ea       	xor	r10,	r14	
    6642:	0f eb       	xor	r11,	r15	
    6644:	84 4c da fa 	mov	r12,	-1318(r4);0xfada(r4)
    6648:	84 4d dc fa 	mov	r13,	-1316(r4);0xfadc(r4)
    664c:	84 4e de fa 	mov	r14,	-1314(r4);0xfade(r4)
    6650:	84 4f e0 fa 	mov	r15,	-1312(r4);0xfae0(r4)
    L2[Y1_64]   = fb_2 ^ L2[Y2_64]   ^ (L2[Y3_64] & L2[Y4_64])     ^ (L2[Y5_64] & L2[Y6_64])     ^ kb[i];
    6654:	1c 44 ba fb 	mov	-1094(r4),r12	;0xfbba(r4)
    6658:	1d 44 bc fb 	mov	-1092(r4),r13	;0xfbbc(r4)
    665c:	1e 44 be fb 	mov	-1090(r4),r14	;0xfbbe(r4)
    6660:	1f 44 c0 fb 	mov	-1088(r4),r15	;0xfbc0(r4)
    6664:	08 4c       	mov	r12,	r8	
    6666:	09 4d       	mov	r13,	r9	
    6668:	0a 4e       	mov	r14,	r10	
    666a:	0b 4f       	mov	r15,	r11	
    666c:	18 e4 fa f9 	xor	-1542(r4),r8	;0xf9fa(r4)
    6670:	19 e4 fc f9 	xor	-1540(r4),r9	;0xf9fc(r4)
    6674:	1a e4 fe f9 	xor	-1538(r4),r10	;0xf9fe(r4)
    6678:	1b e4 00 fa 	xor	-1536(r4),r11	;0xfa00(r4)
    667c:	94 44 fa fb 	mov	-1030(r4),-74(r4)	;0xfbfa(r4), 0xffb6(r4)
    6680:	b6 ff 
    6682:	94 44 fc fb 	mov	-1028(r4),-72(r4)	;0xfbfc(r4), 0xffb8(r4)
    6686:	b8 ff 
    6688:	94 44 fe fb 	mov	-1026(r4),-70(r4)	;0xfbfe(r4), 0xffba(r4)
    668c:	ba ff 
    668e:	94 44 00 fc 	mov	-1024(r4),-68(r4)	;0xfc00(r4), 0xffbc(r4)
    6692:	bc ff 
    6694:	1c 44 9a fb 	mov	-1126(r4),r12	;0xfb9a(r4)
    6698:	1d 44 9c fb 	mov	-1124(r4),r13	;0xfb9c(r4)
    669c:	1e 44 9e fb 	mov	-1122(r4),r14	;0xfb9e(r4)
    66a0:	1f 44 a0 fb 	mov	-1120(r4),r15	;0xfba0(r4)
    66a4:	1c f4 b6 ff 	and	-74(r4),r12	;0xffb6(r4)
    66a8:	1d f4 b8 ff 	and	-72(r4),r13	;0xffb8(r4)
    66ac:	1e f4 ba ff 	and	-70(r4),r14	;0xffba(r4)
    66b0:	1f f4 bc ff 	and	-68(r4),r15	;0xffbc(r4)
    66b4:	08 ec       	xor	r12,	r8	
    66b6:	09 ed       	xor	r13,	r9	
    66b8:	0a ee       	xor	r14,	r10	
    66ba:	0b ef       	xor	r15,	r11	
    66bc:	94 44 62 fb 	mov	-1182(r4),-66(r4)	;0xfb62(r4), 0xffbe(r4)
    66c0:	be ff 
    66c2:	94 44 64 fb 	mov	-1180(r4),-64(r4)	;0xfb64(r4), 0xffc0(r4)
    66c6:	c0 ff 
    66c8:	94 44 66 fb 	mov	-1178(r4),-62(r4)	;0xfb66(r4), 0xffc2(r4)
    66cc:	c2 ff 
    66ce:	94 44 68 fb 	mov	-1176(r4),-60(r4)	;0xfb68(r4), 0xffc4(r4)
    66d2:	c4 ff 
    66d4:	1c 44 3a fb 	mov	-1222(r4),r12	;0xfb3a(r4)
    66d8:	1d 44 3c fb 	mov	-1220(r4),r13	;0xfb3c(r4)
    66dc:	1e 44 3e fb 	mov	-1218(r4),r14	;0xfb3e(r4)
    66e0:	1f 44 40 fb 	mov	-1216(r4),r15	;0xfb40(r4)
    66e4:	1c f4 be ff 	and	-66(r4),r12	;0xffbe(r4)
    66e8:	1d f4 c0 ff 	and	-64(r4),r13	;0xffc0(r4)
    66ec:	1e f4 c2 ff 	and	-62(r4),r14	;0xffc2(r4)
    66f0:	1f f4 c4 ff 	and	-60(r4),r15	;0xffc4(r4)
    66f4:	08 ec       	xor	r12,	r8	
    66f6:	09 ed       	xor	r13,	r9	
    66f8:	0a ee       	xor	r14,	r10	
    66fa:	0b ef       	xor	r15,	r11	
    66fc:	1e 44 e0 f9 	mov	-1568(r4),r14	;0xf9e0(r4)
    6700:	1f 44 d6 f9 	mov	-1578(r4),r15	;0xf9d6(r4)
    6704:	0f 5f       	rla	r15		
    6706:	0f 5f       	rla	r15		
    6708:	0f 5f       	rla	r15		
    670a:	0f 5e       	add	r14,	r15	
    670c:	2c 4f       	mov	@r15,	r12	
    670e:	1d 4f 02 00 	mov	2(r15),	r13	;0x0002(r15)
    6712:	1e 4f 04 00 	mov	4(r15),	r14	;0x0004(r15)
    6716:	1f 4f 06 00 	mov	6(r15),	r15	;0x0006(r15)
    671a:	0c e8       	xor	r8,	r12	
    671c:	0d e9       	xor	r9,	r13	
    671e:	0e ea       	xor	r10,	r14	
    6720:	0f eb       	xor	r11,	r15	
    6722:	84 4c 22 fc 	mov	r12,	-990(r4);0xfc22(r4)
    6726:	84 4d 24 fc 	mov	r13,	-988(r4);0xfc24(r4)
    672a:	84 4e 26 fc 	mov	r14,	-986(r4);0xfc26(r4)
    672e:	84 4f 28 fc 	mov	r15,	-984(r4);0xfc28(r4)
    L2[Y1_64-1] = fb_1 ^ L2[Y2_64-1] ^ (L2[Y3_64-1] & L2[Y4_64-1]) ^ (L2[Y5_64-1] & L2[Y6_64-1]) ^ kb[i];
    6732:	1c 44 b2 fb 	mov	-1102(r4),r12	;0xfbb2(r4)
    6736:	1d 44 b4 fb 	mov	-1100(r4),r13	;0xfbb4(r4)
    673a:	1e 44 b6 fb 	mov	-1098(r4),r14	;0xfbb6(r4)
    673e:	1f 44 b8 fb 	mov	-1096(r4),r15	;0xfbb8(r4)
    6742:	08 4c       	mov	r12,	r8	
    6744:	09 4d       	mov	r13,	r9	
    6746:	0a 4e       	mov	r14,	r10	
    6748:	0b 4f       	mov	r15,	r11	
    674a:	18 e4 02 fa 	xor	-1534(r4),r8	;0xfa02(r4)
    674e:	19 e4 04 fa 	xor	-1532(r4),r9	;0xfa04(r4)
    6752:	1a e4 06 fa 	xor	-1530(r4),r10	;0xfa06(r4)
    6756:	1b e4 08 fa 	xor	-1528(r4),r11	;0xfa08(r4)
    675a:	94 44 f2 fb 	mov	-1038(r4),-58(r4)	;0xfbf2(r4), 0xffc6(r4)
    675e:	c6 ff 
    6760:	94 44 f4 fb 	mov	-1036(r4),-56(r4)	;0xfbf4(r4), 0xffc8(r4)
    6764:	c8 ff 
    6766:	94 44 f6 fb 	mov	-1034(r4),-54(r4)	;0xfbf6(r4), 0xffca(r4)
    676a:	ca ff 
    676c:	94 44 f8 fb 	mov	-1032(r4),-52(r4)	;0xfbf8(r4), 0xffcc(r4)
    6770:	cc ff 
    6772:	1c 44 92 fb 	mov	-1134(r4),r12	;0xfb92(r4)
    6776:	1d 44 94 fb 	mov	-1132(r4),r13	;0xfb94(r4)
    677a:	1e 44 96 fb 	mov	-1130(r4),r14	;0xfb96(r4)
    677e:	1f 44 98 fb 	mov	-1128(r4),r15	;0xfb98(r4)
    6782:	1c f4 c6 ff 	and	-58(r4),r12	;0xffc6(r4)
    6786:	1d f4 c8 ff 	and	-56(r4),r13	;0xffc8(r4)
    678a:	1e f4 ca ff 	and	-54(r4),r14	;0xffca(r4)
    678e:	1f f4 cc ff 	and	-52(r4),r15	;0xffcc(r4)
    6792:	08 ec       	xor	r12,	r8	
    6794:	09 ed       	xor	r13,	r9	
    6796:	0a ee       	xor	r14,	r10	
    6798:	0b ef       	xor	r15,	r11	
    679a:	94 44 5a fb 	mov	-1190(r4),-50(r4)	;0xfb5a(r4), 0xffce(r4)
    679e:	ce ff 
    67a0:	94 44 5c fb 	mov	-1188(r4),-48(r4)	;0xfb5c(r4), 0xffd0(r4)
    67a4:	d0 ff 
    67a6:	94 44 5e fb 	mov	-1186(r4),-46(r4)	;0xfb5e(r4), 0xffd2(r4)
    67aa:	d2 ff 
    67ac:	94 44 60 fb 	mov	-1184(r4),-44(r4)	;0xfb60(r4), 0xffd4(r4)
    67b0:	d4 ff 
    67b2:	1c 44 32 fb 	mov	-1230(r4),r12	;0xfb32(r4)
    67b6:	1d 44 34 fb 	mov	-1228(r4),r13	;0xfb34(r4)
    67ba:	1e 44 36 fb 	mov	-1226(r4),r14	;0xfb36(r4)
    67be:	1f 44 38 fb 	mov	-1224(r4),r15	;0xfb38(r4)
    67c2:	1c f4 ce ff 	and	-50(r4),r12	;0xffce(r4)
    67c6:	1d f4 d0 ff 	and	-48(r4),r13	;0xffd0(r4)
    67ca:	1e f4 d2 ff 	and	-46(r4),r14	;0xffd2(r4)
    67ce:	1f f4 d4 ff 	and	-44(r4),r15	;0xffd4(r4)
    67d2:	08 ec       	xor	r12,	r8	
    67d4:	09 ed       	xor	r13,	r9	
    67d6:	0a ee       	xor	r14,	r10	
    67d8:	0b ef       	xor	r15,	r11	
    67da:	1e 44 e0 f9 	mov	-1568(r4),r14	;0xf9e0(r4)
    67de:	1f 44 d6 f9 	mov	-1578(r4),r15	;0xf9d6(r4)
    67e2:	0f 5f       	rla	r15		
    67e4:	0f 5f       	rla	r15		
    67e6:	0f 5f       	rla	r15		
    67e8:	0f 5e       	add	r14,	r15	
    67ea:	2c 4f       	mov	@r15,	r12	
    67ec:	1d 4f 02 00 	mov	2(r15),	r13	;0x0002(r15)
    67f0:	1e 4f 04 00 	mov	4(r15),	r14	;0x0004(r15)
    67f4:	1f 4f 06 00 	mov	6(r15),	r15	;0x0006(r15)
    67f8:	0c e8       	xor	r8,	r12	
    67fa:	0d e9       	xor	r9,	r13	
    67fc:	0e ea       	xor	r10,	r14	
    67fe:	0f eb       	xor	r11,	r15	
    6800:	84 4c 1a fc 	mov	r12,	-998(r4);0xfc1a(r4)
    6804:	84 4d 1c fc 	mov	r13,	-996(r4);0xfc1c(r4)
    6808:	84 4e 1e fc 	mov	r14,	-994(r4);0xfc1e(r4)
    680c:	84 4f 20 fc 	mov	r15,	-992(r4);0xfc20(r4)
    L2[Y1_64-2] = fb_0 ^ L2[Y2_64-2] ^ (L2[Y3_64-2] & L2[Y4_64-2]) ^ (L2[Y5_64-2] & L2[Y6_64-2]) ^ kb[i];
    6810:	1c 44 aa fb 	mov	-1110(r4),r12	;0xfbaa(r4)
    6814:	1d 44 ac fb 	mov	-1108(r4),r13	;0xfbac(r4)
    6818:	1e 44 ae fb 	mov	-1106(r4),r14	;0xfbae(r4)
    681c:	1f 44 b0 fb 	mov	-1104(r4),r15	;0xfbb0(r4)
    6820:	08 4c       	mov	r12,	r8	
    6822:	09 4d       	mov	r13,	r9	
    6824:	0a 4e       	mov	r14,	r10	
    6826:	0b 4f       	mov	r15,	r11	
    6828:	18 e4 0a fa 	xor	-1526(r4),r8	;0xfa0a(r4)
    682c:	19 e4 0c fa 	xor	-1524(r4),r9	;0xfa0c(r4)
    6830:	1a e4 0e fa 	xor	-1522(r4),r10	;0xfa0e(r4)
    6834:	1b e4 10 fa 	xor	-1520(r4),r11	;0xfa10(r4)
    6838:	94 44 ea fb 	mov	-1046(r4),-42(r4)	;0xfbea(r4), 0xffd6(r4)
    683c:	d6 ff 
    683e:	94 44 ec fb 	mov	-1044(r4),-40(r4)	;0xfbec(r4), 0xffd8(r4)
    6842:	d8 ff 
    6844:	94 44 ee fb 	mov	-1042(r4),-38(r4)	;0xfbee(r4), 0xffda(r4)
    6848:	da ff 
    684a:	94 44 f0 fb 	mov	-1040(r4),-36(r4)	;0xfbf0(r4), 0xffdc(r4)
    684e:	dc ff 
    6850:	1c 44 8a fb 	mov	-1142(r4),r12	;0xfb8a(r4)
    6854:	1d 44 8c fb 	mov	-1140(r4),r13	;0xfb8c(r4)
    6858:	1e 44 8e fb 	mov	-1138(r4),r14	;0xfb8e(r4)
    685c:	1f 44 90 fb 	mov	-1136(r4),r15	;0xfb90(r4)
    6860:	1c f4 d6 ff 	and	-42(r4),r12	;0xffd6(r4)
    6864:	1d f4 d8 ff 	and	-40(r4),r13	;0xffd8(r4)
    6868:	1e f4 da ff 	and	-38(r4),r14	;0xffda(r4)
    686c:	1f f4 dc ff 	and	-36(r4),r15	;0xffdc(r4)
    6870:	08 ec       	xor	r12,	r8	
    6872:	09 ed       	xor	r13,	r9	
    6874:	0a ee       	xor	r14,	r10	
    6876:	0b ef       	xor	r15,	r11	
    6878:	94 44 52 fb 	mov	-1198(r4),-34(r4)	;0xfb52(r4), 0xffde(r4)
    687c:	de ff 
    687e:	94 44 54 fb 	mov	-1196(r4),-32(r4)	;0xfb54(r4), 0xffe0(r4)
    6882:	e0 ff 
    6884:	94 44 56 fb 	mov	-1194(r4),-30(r4)	;0xfb56(r4), 0xffe2(r4)
    6888:	e2 ff 
    688a:	94 44 58 fb 	mov	-1192(r4),-28(r4)	;0xfb58(r4), 0xffe4(r4)
    688e:	e4 ff 
    6890:	1c 44 2a fb 	mov	-1238(r4),r12	;0xfb2a(r4)
    6894:	1d 44 2c fb 	mov	-1236(r4),r13	;0xfb2c(r4)
    6898:	1e 44 2e fb 	mov	-1234(r4),r14	;0xfb2e(r4)
    689c:	1f 44 30 fb 	mov	-1232(r4),r15	;0xfb30(r4)
    68a0:	1c f4 de ff 	and	-34(r4),r12	;0xffde(r4)
    68a4:	1d f4 e0 ff 	and	-32(r4),r13	;0xffe0(r4)
    68a8:	1e f4 e2 ff 	and	-30(r4),r14	;0xffe2(r4)
    68ac:	1f f4 e4 ff 	and	-28(r4),r15	;0xffe4(r4)
    68b0:	08 ec       	xor	r12,	r8	
    68b2:	09 ed       	xor	r13,	r9	
    68b4:	0a ee       	xor	r14,	r10	
    68b6:	0b ef       	xor	r15,	r11	
    68b8:	1e 44 e0 f9 	mov	-1568(r4),r14	;0xf9e0(r4)
    68bc:	1f 44 d6 f9 	mov	-1578(r4),r15	;0xf9d6(r4)
    68c0:	0f 5f       	rla	r15		
    68c2:	0f 5f       	rla	r15		
    68c4:	0f 5f       	rla	r15		
    68c6:	0f 5e       	add	r14,	r15	
    68c8:	2c 4f       	mov	@r15,	r12	
    68ca:	1d 4f 02 00 	mov	2(r15),	r13	;0x0002(r15)
    68ce:	1e 4f 04 00 	mov	4(r15),	r14	;0x0004(r15)
    68d2:	1f 4f 06 00 	mov	6(r15),	r15	;0x0006(r15)
    68d6:	0c e8       	xor	r8,	r12	
    68d8:	0d e9       	xor	r9,	r13	
    68da:	0e ea       	xor	r10,	r14	
    68dc:	0f eb       	xor	r11,	r15	
    68de:	84 4c 12 fc 	mov	r12,	-1006(r4);0xfc12(r4)
    68e2:	84 4d 14 fc 	mov	r13,	-1004(r4);0xfc14(r4)
    68e6:	84 4e 16 fc 	mov	r14,	-1002(r4);0xfc16(r4)
    68ea:	84 4f 18 fc 	mov	r15,	-1000(r4);0xfc18(r4)

    ka[i] = (~T[3] & ~T[2] & a0) ^ ((T[3] |  T[2]) & mux4_1(x4f, s4f));
    kb[i] = (~T[3] &  T[2] & a4) ^ ((T[3] | ~T[2]) & mux4_1(x4g, s4g));
  }

  for(i=rounds-1;i>=0;--i) {
    68ee:	b4 53 d6 f9 	add	#-1,	-1578(r4);r3 As==11, 0xf9d6(r4)
    68f2:	84 93 d6 f9 	tst	-1578(r4)	;0xf9d6(r4)
    68f6:	02 38       	jl	$+6      	;abs 0x68fc
    68f8:	30 40 46 62 	br	#0x6246	
    L2[Y1_64-1] = fb_1 ^ L2[Y2_64-1] ^ (L2[Y3_64-1] & L2[Y4_64-1]) ^ (L2[Y5_64-1] & L2[Y6_64-1]) ^ kb[i];
    L2[Y1_64-2] = fb_0 ^ L2[Y2_64-2] ^ (L2[Y3_64-2] & L2[Y4_64-2]) ^ (L2[Y5_64-2] & L2[Y6_64-2]) ^ kb[i];

  }
  
  for(i=0;i<39;++i) 
    68fc:	84 43 d6 f9 	mov	#0,	-1578(r4);r3 As==00, 0xf9d6(r4)
    6900:	24 3c       	jmp	$+74     	;abs 0x694a
    plain[i] = L2[i];
    6902:	1f 44 d6 f9 	mov	-1578(r4),r15	;0xf9d6(r4)
    6906:	0f 5f       	rla	r15		
    6908:	0f 5f       	rla	r15		
    690a:	0f 5f       	rla	r15		
    690c:	1b 44 6c ff 	mov	-148(r4),r11	;0xff6c(r4)
    6910:	0b 5f       	add	r15,	r11	
    6912:	1f 44 d6 f9 	mov	-1578(r4),r15	;0xf9d6(r4)
    6916:	0f 5f       	rla	r15		
    6918:	0f 5f       	rla	r15		
    691a:	0f 5f       	rla	r15		
    691c:	3e 40 d6 f9 	mov	#-1578,	r14	;#0xf9d6
    6920:	0e 54       	add	r4,	r14	
    6922:	0f 5e       	add	r14,	r15	
    6924:	3f 50 1c 01 	add	#284,	r15	;#0x011c
    6928:	2c 4f       	mov	@r15,	r12	
    692a:	1d 4f 02 00 	mov	2(r15),	r13	;0x0002(r15)
    692e:	1e 4f 04 00 	mov	4(r15),	r14	;0x0004(r15)
    6932:	1f 4f 06 00 	mov	6(r15),	r15	;0x0006(r15)
    6936:	8b 4c 00 00 	mov	r12,	0(r11)	;0x0000(r11)
    693a:	8b 4d 02 00 	mov	r13,	2(r11)	;0x0002(r11)
    693e:	8b 4e 04 00 	mov	r14,	4(r11)	;0x0004(r11)
    6942:	8b 4f 06 00 	mov	r15,	6(r11)	;0x0006(r11)
    L2[Y1_64-1] = fb_1 ^ L2[Y2_64-1] ^ (L2[Y3_64-1] & L2[Y4_64-1]) ^ (L2[Y5_64-1] & L2[Y6_64-1]) ^ kb[i];
    L2[Y1_64-2] = fb_0 ^ L2[Y2_64-2] ^ (L2[Y3_64-2] & L2[Y4_64-2]) ^ (L2[Y5_64-2] & L2[Y6_64-2]) ^ kb[i];

  }
  
  for(i=0;i<39;++i) 
    6946:	94 53 d6 f9 	inc	-1578(r4)	;0xf9d6(r4)
    694a:	b4 90 27 00 	cmp	#39,	-1578(r4);#0x0027, 0xf9d6(r4)
    694e:	d6 f9 
    6950:	d8 3b       	jl	$-78     	;abs 0x6902
    plain[i] = L2[i];
  for(i=0;i<25;++i) 
    6952:	84 43 d6 f9 	mov	#0,	-1578(r4);r3 As==00, 0xf9d6(r4)
    6956:	26 3c       	jmp	$+78     	;abs 0x69a4
    plain[i+39] = L1[i];
    6958:	1f 44 d6 f9 	mov	-1578(r4),r15	;0xf9d6(r4)
    695c:	3f 50 27 00 	add	#39,	r15	;#0x0027
    6960:	0f 5f       	rla	r15		
    6962:	0f 5f       	rla	r15		
    6964:	0f 5f       	rla	r15		
    6966:	1b 44 6c ff 	mov	-148(r4),r11	;0xff6c(r4)
    696a:	0b 5f       	add	r15,	r11	
    696c:	1f 44 d6 f9 	mov	-1578(r4),r15	;0xf9d6(r4)
    6970:	0f 5f       	rla	r15		
    6972:	0f 5f       	rla	r15		
    6974:	0f 5f       	rla	r15		
    6976:	38 40 d6 f9 	mov	#-1578,	r8	;#0xf9d6
    697a:	08 54       	add	r4,	r8	
    697c:	0f 58       	add	r8,	r15	
    697e:	3f 50 54 00 	add	#84,	r15	;#0x0054
    6982:	2c 4f       	mov	@r15,	r12	
    6984:	1d 4f 02 00 	mov	2(r15),	r13	;0x0002(r15)
    6988:	1e 4f 04 00 	mov	4(r15),	r14	;0x0004(r15)
    698c:	1f 4f 06 00 	mov	6(r15),	r15	;0x0006(r15)
    6990:	8b 4c 00 00 	mov	r12,	0(r11)	;0x0000(r11)
    6994:	8b 4d 02 00 	mov	r13,	2(r11)	;0x0002(r11)
    6998:	8b 4e 04 00 	mov	r14,	4(r11)	;0x0004(r11)
    699c:	8b 4f 06 00 	mov	r15,	6(r11)	;0x0006(r11)

  }
  
  for(i=0;i<39;++i) 
    plain[i] = L2[i];
  for(i=0;i<25;++i) 
    69a0:	94 53 d6 f9 	inc	-1578(r4)	;0xf9d6(r4)
    69a4:	b4 90 19 00 	cmp	#25,	-1578(r4);#0x0019, 0xf9d6(r4)
    69a8:	d6 f9 
    69aa:	d6 3b       	jl	$-82     	;abs 0x6958
    69ac:	01 45       	mov	r5,	r1	
    plain[i+39] = L1[i];

}
    69ae:	11 44 e6 ff 	mov	-26(r4),r1	;0xffe6(r4)
    69b2:	31 50 1a 06 	add	#1562,	r1	;#0x061a
    69b6:	34 41       	pop	r4		
    69b8:	35 41       	pop	r5		
    69ba:	36 41       	pop	r6		
    69bc:	37 41       	pop	r7		
    69be:	38 41       	pop	r8		
    69c0:	39 41       	pop	r9		
    69c2:	3a 41       	pop	r10		
    69c4:	3b 41       	pop	r11		
    69c6:	30 41       	ret			

000069c8 <delay>:
/**************************************************/
/********************* DELAY **********************/
/**************************************************/

void delay(unsigned int d) 
{
    69c8:	04 12       	push	r4		
    69ca:	04 41       	mov	r1,	r4	
    69cc:	24 53       	incd	r4		
    69ce:	31 50 fa ff 	add	#-6,	r1	;#0xfffa
    69d2:	84 4f fc ff 	mov	r15,	-4(r4)	;0xfffc(r4)
  unsigned int i,j;
  for(j=0; j < 0xff; j++)
    69d6:	84 43 fa ff 	mov	#0,	-6(r4)	;r3 As==00, 0xfffa(r4)
    69da:	0d 3c       	jmp	$+28     	;abs 0x69f6
    {
      for (i = 0; i<d; i++) 
    69dc:	84 43 f8 ff 	mov	#0,	-8(r4)	;r3 As==00, 0xfff8(r4)
    69e0:	04 3c       	jmp	$+10     	;abs 0x69ea
	{
	  nop();
    69e2:	03 43       	nop			
	  nop();
    69e4:	03 43       	nop			
void delay(unsigned int d) 
{
  unsigned int i,j;
  for(j=0; j < 0xff; j++)
    {
      for (i = 0; i<d; i++) 
    69e6:	94 53 f8 ff 	inc	-8(r4)		;0xfff8(r4)
    69ea:	94 94 fc ff 	cmp	-4(r4),	-8(r4)	;0xfffc(r4), 0xfff8(r4)
    69ee:	f8 ff 
    69f0:	f8 2b       	jnc	$-14     	;abs 0x69e2
/**************************************************/

void delay(unsigned int d) 
{
  unsigned int i,j;
  for(j=0; j < 0xff; j++)
    69f2:	94 53 fa ff 	inc	-6(r4)		;0xfffa(r4)
    69f6:	b4 90 ff 00 	cmp	#255,	-6(r4)	;#0x00ff, 0xfffa(r4)
    69fa:	fa ff 
    69fc:	ef 2b       	jnc	$-32     	;abs 0x69dc
	{
	  nop();
	  nop();
	}
    }
}
    69fe:	31 50 06 00 	add	#6,	r1	;#0x0006
    6a02:	34 41       	pop	r4		
    6a04:	30 41       	ret			

00006a06 <uart1_init>:

#define UART1_BIT_RX (1 << UART1_PIN_RX)
#define UART1_BIT_TX (1 << UART1_PIN_TX)

int uart1_init()
{
    6a06:	04 12       	push	r4		
    6a08:	04 41       	mov	r1,	r4	
    6a0a:	24 53       	incd	r4		

  WDTCTL = WDTPW + WDTHOLD;
    6a0c:	b2 40 80 5a 	mov	#23168,	&0x0120	;#0x5a80
    6a10:	20 01 

  P1IE   = 0x00;        // Interrupt enable
    6a12:	c2 43 25 00 	mov.b	#0,	&0x0025	;r3 As==00
  P2IE   = 0x00;        // 0:disable 1:enable
    6a16:	c2 43 2d 00 	mov.b	#0,	&0x002d	;r3 As==00

  //Init of MSP430 Usart1 pins
  P3SEL |= (UART1_BIT_RX | UART1_BIT_TX);
    6a1a:	5f 42 1b 00 	mov.b	&0x001b,r15	
    6a1e:	7f d0 c0 ff 	bis.b	#-64,	r15	;#0xffc0
    6a22:	c2 4f 1b 00 	mov.b	r15,	&0x001b	

  //Init of USART1 Module
  U1ME  |= UTXE1|URXE1;           //Enable USART1 transmiter and receiver (UART mode)
    6a26:	5f 42 05 00 	mov.b	&0x0005,r15	
    6a2a:	7f d0 30 00 	bis.b	#48,	r15	;#0x0030
    6a2e:	c2 4f 05 00 	mov.b	r15,	&0x0005	
  
  U1CTL  = SWRST;                 //reset
    6a32:	d2 43 78 00 	mov.b	#1,	&0x0078	;r3 As==01
  U1CTL  = CHAR;                  //init & release reset
    6a36:	f2 40 10 00 	mov.b	#16,	&0x0078	;#0x0010
    6a3a:	78 00 
  
  U1TCTL = SSEL1 | TXEPT;        //use SMCLK 
    6a3c:	f2 40 21 00 	mov.b	#33,	&0x0079	;#0x0021
    6a40:	79 00 
  U1RCTL = 0;
    6a42:	c2 43 7a 00 	mov.b	#0,	&0x007a	;r3 As==00
  // 38400 @ SMCLK 1MHz
#define U1BR1_INIT        0
#define U1BR0_INIT        0x1B
#define U1MCTL_INIT       0x03
  
  U1BR1  = U1BR1_INIT;
    6a46:	c2 43 7d 00 	mov.b	#0,	&0x007d	;r3 As==00
  U1BR0  = U1BR0_INIT;
    6a4a:	f2 40 1b 00 	mov.b	#27,	&0x007c	;#0x001b
    6a4e:	7c 00 
  U1MCTL = U1MCTL_INIT;
    6a50:	f2 40 03 00 	mov.b	#3,	&0x007b	;#0x0003
    6a54:	7b 00 

  delay(0x800);
    6a56:	3f 40 00 08 	mov	#2048,	r15	;#0x0800
    6a5a:	b0 12 c8 69 	call	#0x69c8	
  return 0;
    6a5e:	0f 43       	clr	r15		
}
    6a60:	34 41       	pop	r4		
    6a62:	30 41       	ret			

00006a64 <uart1_putchar>:

int uart1_putchar(int c)
{
    6a64:	04 12       	push	r4		
    6a66:	04 41       	mov	r1,	r4	
    6a68:	24 53       	incd	r4		
    6a6a:	21 83       	decd	r1		
    6a6c:	84 4f fc ff 	mov	r15,	-4(r4)	;0xfffc(r4)
  U1TXBUF = c;
    6a70:	1f 44 fc ff 	mov	-4(r4),	r15	;0xfffc(r4)
    6a74:	4f 4f       	mov.b	r15,	r15	
    6a76:	c2 4f 7f 00 	mov.b	r15,	&0x007f	
  while ((U1TCTL & TXEPT) != TXEPT);
    6a7a:	03 43       	nop			
    6a7c:	5f 42 79 00 	mov.b	&0x0079,r15	
    6a80:	4f 4f       	mov.b	r15,	r15	
    6a82:	1f f3       	and	#1,	r15	;r3 As==01
    6a84:	0f 93       	tst	r15		
    6a86:	fa 27       	jz	$-10     	;abs 0x6a7c
  return (unsigned char)c;
    6a88:	1f 44 fc ff 	mov	-4(r4),	r15	;0xfffc(r4)
    6a8c:	4f 4f       	mov.b	r15,	r15	
    6a8e:	4f 4f       	mov.b	r15,	r15	
}
    6a90:	21 53       	incd	r1		
    6a92:	34 41       	pop	r4		
    6a94:	30 41       	ret			

00006a96 <putchar>:
/**************************************************/
/******************** PUT CHAR *********************/
/**************************************************/

int putchar(int c)
{
    6a96:	04 12       	push	r4		
    6a98:	04 41       	mov	r1,	r4	
    6a9a:	24 53       	incd	r4		
    6a9c:	21 83       	decd	r1		
    6a9e:	84 4f fc ff 	mov	r15,	-4(r4)	;0xfffc(r4)
  return uart1_putchar(c);
    6aa2:	1f 44 fc ff 	mov	-4(r4),	r15	;0xfffc(r4)
    6aa6:	b0 12 64 6a 	call	#0x6a64	
}
    6aaa:	21 53       	incd	r1		
    6aac:	34 41       	pop	r4		
    6aae:	30 41       	ret			

00006ab0 <start_encrypt>:
/******************** END EXPE*********************/
/**************************************************/

void
start_encrypt()
{
    6ab0:	04 12       	push	r4		
    6ab2:	04 41       	mov	r1,	r4	
    6ab4:	24 53       	incd	r4		
  ;
}
    6ab6:	34 41       	pop	r4		
    6ab8:	30 41       	ret			

00006aba <start_decrypt>:
void
start_decrypt()
{
    6aba:	04 12       	push	r4		
    6abc:	04 41       	mov	r1,	r4	
    6abe:	24 53       	incd	r4		
  ;
}
    6ac0:	34 41       	pop	r4		
    6ac2:	30 41       	ret			

00006ac4 <end_expe>:


void
end_expe()
{
    6ac4:	04 12       	push	r4		
    6ac6:	04 41       	mov	r1,	r4	
    6ac8:	24 53       	incd	r4		
  ;
}
    6aca:	34 41       	pop	r4		
    6acc:	30 41       	ret			

00006ace <_unexpected_>:
    6ace:	00 13       	reti			

Disassembly of section .vectors:

0000ffe0 <__ivtbl_16>:
    ffe0:	00 41 00 41 00 41 00 41 00 41 00 41 00 41 00 41     .A.A.A.A.A.A.A.A
    fff0:	00 41 00 41 00 41 00 41 00 41 00 41 00 41 00 40     .A.A.A.A.A.A.A.@
